
G431KBT6_SH1106_BUTTON_COM_PORT.elf:     file format elf32-littlearm

Sections:
Idx Name          Size      VMA       LMA       File off  Algn
  0 .isr_vector   000001d8  08000000  08000000  00001000  2**0
                  CONTENTS, ALLOC, LOAD, READONLY, DATA
  1 .text         000045a4  080001e0  080001e0  000011e0  2**4
                  CONTENTS, ALLOC, LOAD, READONLY, CODE
  2 .rodata       00000998  08004784  08004784  00005784  2**2
                  CONTENTS, ALLOC, LOAD, READONLY, DATA
  3 .ARM.extab    00000000  0800511c  0800511c  0000705c  2**0
                  CONTENTS, READONLY
  4 .ARM          00000008  0800511c  0800511c  0000611c  2**2
                  CONTENTS, ALLOC, LOAD, READONLY, DATA
  5 .preinit_array 00000000  08005124  08005124  0000705c  2**0
                  CONTENTS, ALLOC, LOAD, DATA
  6 .init_array   00000004  08005124  08005124  00006124  2**2
                  CONTENTS, ALLOC, LOAD, READONLY, DATA
  7 .fini_array   00000004  08005128  08005128  00006128  2**2
                  CONTENTS, ALLOC, LOAD, READONLY, DATA
  8 .data         0000005c  20000000  0800512c  00007000  2**2
                  CONTENTS, ALLOC, LOAD, DATA
  9 .bss          00000668  2000005c  08005188  0000705c  2**2
                  ALLOC
 10 ._user_heap_stack 00000604  200006c4  08005188  000076c4  2**0
                  ALLOC
 11 .ARM.attributes 00000030  00000000  00000000  0000705c  2**0
                  CONTENTS, READONLY
 12 .debug_info   0004cb9f  00000000  00000000  0000708c  2**0
                  CONTENTS, READONLY, DEBUGGING, OCTETS
 13 .debug_abbrev 000031ec  00000000  00000000  00053c2b  2**0
                  CONTENTS, READONLY, DEBUGGING, OCTETS
 14 .debug_aranges 00003870  00000000  00000000  00056e18  2**3
                  CONTENTS, READONLY, DEBUGGING, OCTETS
 15 .debug_rnglists 00002a33  00000000  00000000  0005a688  2**0
                  CONTENTS, READONLY, DEBUGGING, OCTETS
 16 .debug_macro  0001e492  00000000  00000000  0005d0bb  2**0
                  CONTENTS, READONLY, DEBUGGING, OCTETS
 17 .debug_line   0001a523  00000000  00000000  0007b54d  2**0
                  CONTENTS, READONLY, DEBUGGING, OCTETS
 18 .debug_str    000cd91a  00000000  00000000  00095a70  2**0
                  CONTENTS, READONLY, DEBUGGING, OCTETS
 19 .comment      00000043  00000000  00000000  0016338a  2**0
                  CONTENTS, READONLY
 20 .debug_frame  0000f79c  00000000  00000000  001633d0  2**2
                  CONTENTS, READONLY, DEBUGGING, OCTETS
 21 .debug_line_str 0000007f  00000000  00000000  00172b6c  2**0
                  CONTENTS, READONLY, DEBUGGING, OCTETS

Disassembly of section .text:

080001e0 <__do_global_dtors_aux>:
 80001e0:	b510      	push	{r4, lr}
 80001e2:	4c05      	ldr	r4, [pc, #20]	@ (80001f8 <__do_global_dtors_aux+0x18>)
 80001e4:	7823      	ldrb	r3, [r4, #0]
 80001e6:	b933      	cbnz	r3, 80001f6 <__do_global_dtors_aux+0x16>
 80001e8:	4b04      	ldr	r3, [pc, #16]	@ (80001fc <__do_global_dtors_aux+0x1c>)
 80001ea:	b113      	cbz	r3, 80001f2 <__do_global_dtors_aux+0x12>
 80001ec:	4804      	ldr	r0, [pc, #16]	@ (8000200 <__do_global_dtors_aux+0x20>)
 80001ee:	f3af 8000 	nop.w
 80001f2:	2301      	movs	r3, #1
 80001f4:	7023      	strb	r3, [r4, #0]
 80001f6:	bd10      	pop	{r4, pc}
 80001f8:	2000005c 	.word	0x2000005c
 80001fc:	00000000 	.word	0x00000000
 8000200:	0800476c 	.word	0x0800476c

08000204 <frame_dummy>:
 8000204:	b508      	push	{r3, lr}
 8000206:	4b03      	ldr	r3, [pc, #12]	@ (8000214 <frame_dummy+0x10>)
 8000208:	b11b      	cbz	r3, 8000212 <frame_dummy+0xe>
 800020a:	4903      	ldr	r1, [pc, #12]	@ (8000218 <frame_dummy+0x14>)
 800020c:	4803      	ldr	r0, [pc, #12]	@ (800021c <frame_dummy+0x18>)
 800020e:	f3af 8000 	nop.w
 8000212:	bd08      	pop	{r3, pc}
 8000214:	00000000 	.word	0x00000000
 8000218:	20000060 	.word	0x20000060
 800021c:	0800476c 	.word	0x0800476c

08000220 <memchr>:
 8000220:	f001 01ff 	and.w	r1, r1, #255	@ 0xff
 8000224:	2a10      	cmp	r2, #16
 8000226:	db2b      	blt.n	8000280 <memchr+0x60>
 8000228:	f010 0f07 	tst.w	r0, #7
 800022c:	d008      	beq.n	8000240 <memchr+0x20>
 800022e:	f810 3b01 	ldrb.w	r3, [r0], #1
 8000232:	3a01      	subs	r2, #1
 8000234:	428b      	cmp	r3, r1
 8000236:	d02d      	beq.n	8000294 <memchr+0x74>
 8000238:	f010 0f07 	tst.w	r0, #7
 800023c:	b342      	cbz	r2, 8000290 <memchr+0x70>
 800023e:	d1f6      	bne.n	800022e <memchr+0xe>
 8000240:	b4f0      	push	{r4, r5, r6, r7}
 8000242:	ea41 2101 	orr.w	r1, r1, r1, lsl #8
 8000246:	ea41 4101 	orr.w	r1, r1, r1, lsl #16
 800024a:	f022 0407 	bic.w	r4, r2, #7
 800024e:	f07f 0700 	mvns.w	r7, #0
 8000252:	2300      	movs	r3, #0
 8000254:	e8f0 5602 	ldrd	r5, r6, [r0], #8
 8000258:	3c08      	subs	r4, #8
 800025a:	ea85 0501 	eor.w	r5, r5, r1
 800025e:	ea86 0601 	eor.w	r6, r6, r1
 8000262:	fa85 f547 	uadd8	r5, r5, r7
 8000266:	faa3 f587 	sel	r5, r3, r7
 800026a:	fa86 f647 	uadd8	r6, r6, r7
 800026e:	faa5 f687 	sel	r6, r5, r7
 8000272:	b98e      	cbnz	r6, 8000298 <memchr+0x78>
 8000274:	d1ee      	bne.n	8000254 <memchr+0x34>
 8000276:	bcf0      	pop	{r4, r5, r6, r7}
 8000278:	f001 01ff 	and.w	r1, r1, #255	@ 0xff
 800027c:	f002 0207 	and.w	r2, r2, #7
 8000280:	b132      	cbz	r2, 8000290 <memchr+0x70>
 8000282:	f810 3b01 	ldrb.w	r3, [r0], #1
 8000286:	3a01      	subs	r2, #1
 8000288:	ea83 0301 	eor.w	r3, r3, r1
 800028c:	b113      	cbz	r3, 8000294 <memchr+0x74>
 800028e:	d1f8      	bne.n	8000282 <memchr+0x62>
 8000290:	2000      	movs	r0, #0
 8000292:	4770      	bx	lr
 8000294:	3801      	subs	r0, #1
 8000296:	4770      	bx	lr
 8000298:	2d00      	cmp	r5, #0
 800029a:	bf06      	itte	eq
 800029c:	4635      	moveq	r5, r6
 800029e:	3803      	subeq	r0, #3
 80002a0:	3807      	subne	r0, #7
 80002a2:	f015 0f01 	tst.w	r5, #1
 80002a6:	d107      	bne.n	80002b8 <memchr+0x98>
 80002a8:	3001      	adds	r0, #1
 80002aa:	f415 7f80 	tst.w	r5, #256	@ 0x100
 80002ae:	bf02      	ittt	eq
 80002b0:	3001      	addeq	r0, #1
 80002b2:	f415 3fc0 	tsteq.w	r5, #98304	@ 0x18000
 80002b6:	3001      	addeq	r0, #1
 80002b8:	bcf0      	pop	{r4, r5, r6, r7}
 80002ba:	3801      	subs	r0, #1
 80002bc:	4770      	bx	lr
 80002be:	bf00      	nop

080002c0 <main>:
/**
  * @brief  The application entry point.
  * @retval int
  */
int main(void)
{
 80002c0:	b580      	push	{r7, lr}
 80002c2:	b088      	sub	sp, #32
 80002c4:	af02      	add	r7, sp, #8
  /* USER CODE END 1 */

  /* MCU Configuration--------------------------------------------------------*/

  /* Reset of all peripherals, Initializes the Flash interface and the Systick. */
  HAL_Init();
 80002c6:	f002 f95e 	bl	8002586 <HAL_Init>
  /* USER CODE BEGIN Init */

  /* USER CODE END Init */

  /* Configure the system clock */
  SystemClock_Config();
 80002ca:	f000 f8d9 	bl	8000480 <SystemClock_Config>
  /* USER CODE BEGIN SysInit */

  /* USER CODE END SysInit */

  /* Initialize all configured peripherals */
  MX_GPIO_Init();
 80002ce:	f000 f95f 	bl	8000590 <MX_GPIO_Init>
  MX_SPI1_Init();
 80002d2:	f000 f91f 	bl	8000514 <MX_SPI1_Init>
  /* USER CODE BEGIN 2 */

  HAL_GPIO_WritePin(GPIOB, LED_PB8_Pin, GPIO_PIN_SET);
 80002d6:	2201      	movs	r2, #1
 80002d8:	f44f 7180 	mov.w	r1, #256	@ 0x100
 80002dc:	485a      	ldr	r0, [pc, #360]	@ (8000448 <main+0x188>)
 80002de:	f002 fc55 	bl	8002b8c <HAL_GPIO_WritePin>
  // ============================================================
  // ИНИЦИАЛИЗАЦИЯ OLED ДИСПЛЕЯ SH1106 (SPI)
  // ============================================================

  // Начальная установка пинов CS (выкл), DC (команда), RES (сброс)
  HAL_GPIO_WritePin(OLED_CS_PORT, OLED_CS_PIN, GPIO_PIN_SET);     // CS = HIGH (дисплей не выбран)
 80002e2:	2201      	movs	r2, #1
 80002e4:	2101      	movs	r1, #1
 80002e6:	4858      	ldr	r0, [pc, #352]	@ (8000448 <main+0x188>)
 80002e8:	f002 fc50 	bl	8002b8c <HAL_GPIO_WritePin>
  HAL_GPIO_WritePin(OLED_DC_PORT, OLED_DC_PIN, GPIO_PIN_RESET);   // DC = 0 (команда)
 80002ec:	2200      	movs	r2, #0
 80002ee:	2110      	movs	r1, #16
 80002f0:	f04f 4090 	mov.w	r0, #1207959552	@ 0x48000000
 80002f4:	f002 fc4a 	bl	8002b8c <HAL_GPIO_WritePin>
  HAL_GPIO_WritePin(OLED_RST_PORT, OLED_RST_PIN, GPIO_PIN_RESET); // RESET = LOW
 80002f8:	2200      	movs	r2, #0
 80002fa:	2140      	movs	r1, #64	@ 0x40
 80002fc:	f04f 4090 	mov.w	r0, #1207959552	@ 0x48000000
 8000300:	f002 fc44 	bl	8002b8c <HAL_GPIO_WritePin>

  HAL_Delay(10);  // Держим RESET минимум 10 мс
 8000304:	200a      	movs	r0, #10
 8000306:	f002 f9af 	bl	8002668 <HAL_Delay>

  HAL_GPIO_WritePin(OLED_RST_PORT, OLED_RST_PIN, GPIO_PIN_SET); // RESET = HIGH (выход из сброса)
 800030a:	2201      	movs	r2, #1
 800030c:	2140      	movs	r1, #64	@ 0x40
 800030e:	f04f 4090 	mov.w	r0, #1207959552	@ 0x48000000
 8000312:	f002 fc3b 	bl	8002b8c <HAL_GPIO_WritePin>
  HAL_Delay(100); // Ожидание после сброса
 8000316:	2064      	movs	r0, #100	@ 0x64
 8000318:	f002 f9a6 	bl	8002668 <HAL_Delay>

  // Инициализация дисплея SH1106 с интерфейсом SPI
  // u8g2_byte_hw_spi  - наша функция отправки байта через HAL SPI
  // u8g2_gpio_and_delay - наша функция управления GPIO и задержками
  // суффикс _f — это полный буфер (1024 байта)
  u8g2_Setup_sh1106_128x64_noname_f(&u8g2,
 800031c:	4b4b      	ldr	r3, [pc, #300]	@ (800044c <main+0x18c>)
 800031e:	4a4c      	ldr	r2, [pc, #304]	@ (8000450 <main+0x190>)
 8000320:	494c      	ldr	r1, [pc, #304]	@ (8000454 <main+0x194>)
 8000322:	484d      	ldr	r0, [pc, #308]	@ (8000458 <main+0x198>)
 8000324:	f000 fcc6 	bl	8000cb4 <u8g2_Setup_sh1106_128x64_noname_f>
                                     U8G2_R0,             // Ориентация (0 градусов)
                                     u8g2_byte_hw_spi,    // Функция отправки байта (наш HAL SPI)
                                     u8g2_gpio_and_delay  // Функции GPIO и задержки
                                    );

  u8g2_InitDisplay(&u8g2);     // Инициализация дисплея (отправка команд)
 8000328:	484b      	ldr	r0, [pc, #300]	@ (8000458 <main+0x198>)
 800032a:	f002 f88f 	bl	800244c <u8x8_InitDisplay>
  u8g2_SetPowerSave(&u8g2, 0); // Включение дисплея (0 = питание вкл)
 800032e:	2100      	movs	r1, #0
 8000330:	4849      	ldr	r0, [pc, #292]	@ (8000458 <main+0x198>)
 8000332:	f002 f89a 	bl	800246a <u8x8_SetPowerSave>

  // Первая отрисовка — заставка
  u8g2_ClearBuffer(&u8g2);
 8000336:	4848      	ldr	r0, [pc, #288]	@ (8000458 <main+0x198>)
 8000338:	f000 fc2a 	bl	8000b90 <u8g2_ClearBuffer>
  u8g2_SetFont(&u8g2, u8g2_font_ncenB08_tr);
 800033c:	4947      	ldr	r1, [pc, #284]	@ (800045c <main+0x19c>)
 800033e:	4846      	ldr	r0, [pc, #280]	@ (8000458 <main+0x198>)
 8000340:	f001 fa68 	bl	8001814 <u8g2_SetFont>
  u8g2_DrawStr(&u8g2, 10, 20, "OLED SH1106 OK");
 8000344:	4b46      	ldr	r3, [pc, #280]	@ (8000460 <main+0x1a0>)
 8000346:	2214      	movs	r2, #20
 8000348:	210a      	movs	r1, #10
 800034a:	4843      	ldr	r0, [pc, #268]	@ (8000458 <main+0x198>)
 800034c:	f001 f9c0 	bl	80016d0 <u8g2_DrawStr>
  u8g2_DrawStr(&u8g2, 10, 40, "SPI Mode");
 8000350:	4b44      	ldr	r3, [pc, #272]	@ (8000464 <main+0x1a4>)
 8000352:	2228      	movs	r2, #40	@ 0x28
 8000354:	210a      	movs	r1, #10
 8000356:	4840      	ldr	r0, [pc, #256]	@ (8000458 <main+0x198>)
 8000358:	f001 f9ba 	bl	80016d0 <u8g2_DrawStr>
  u8g2_DrawStr(&u8g2, 10, 60, "STM32G431");
 800035c:	4b42      	ldr	r3, [pc, #264]	@ (8000468 <main+0x1a8>)
 800035e:	223c      	movs	r2, #60	@ 0x3c
 8000360:	210a      	movs	r1, #10
 8000362:	483d      	ldr	r0, [pc, #244]	@ (8000458 <main+0x198>)
 8000364:	f001 f9b4 	bl	80016d0 <u8g2_DrawStr>
  u8g2_SendBuffer(&u8g2);
 8000368:	483b      	ldr	r0, [pc, #236]	@ (8000458 <main+0x198>)
 800036a:	f000 fc84 	bl	8000c76 <u8g2_SendBuffer>

  HAL_Delay(2000); // Показываем заставку 2 секунды
 800036e:	f44f 60fa 	mov.w	r0, #2000	@ 0x7d0
 8000372:	f002 f979 	bl	8002668 <HAL_Delay>
  /* Infinite loop */
  /* USER CODE BEGIN WHILE */
  while (1)
  {
	    // Очищаем буфер дисплея (внутренний буфер u8g2)
	    u8g2_ClearBuffer(&u8g2);
 8000376:	4838      	ldr	r0, [pc, #224]	@ (8000458 <main+0x198>)
 8000378:	f000 fc0a 	bl	8000b90 <u8g2_ClearBuffer>

	    // Устанавливаем шрифт
	    u8g2_SetFont(&u8g2, u8g2_font_helvB08_tr);
 800037c:	493b      	ldr	r1, [pc, #236]	@ (800046c <main+0x1ac>)
 800037e:	4836      	ldr	r0, [pc, #216]	@ (8000458 <main+0x198>)
 8000380:	f001 fa48 	bl	8001814 <u8g2_SetFont>

	    // Рисуем рамку
	    u8g2_DrawFrame(&u8g2, 0, 0, 128, 64);
 8000384:	2340      	movs	r3, #64	@ 0x40
 8000386:	9300      	str	r3, [sp, #0]
 8000388:	2380      	movs	r3, #128	@ 0x80
 800038a:	2200      	movs	r2, #0
 800038c:	2100      	movs	r1, #0
 800038e:	4832      	ldr	r0, [pc, #200]	@ (8000458 <main+0x198>)
 8000390:	f000 fba1 	bl	8000ad6 <u8g2_DrawFrame>

	    // Выводим текст
	    u8g2_DrawStr(&u8g2, 5, 15, "TEST SH1106");
 8000394:	4b36      	ldr	r3, [pc, #216]	@ (8000470 <main+0x1b0>)
 8000396:	220f      	movs	r2, #15
 8000398:	2105      	movs	r1, #5
 800039a:	482f      	ldr	r0, [pc, #188]	@ (8000458 <main+0x198>)
 800039c:	f001 f998 	bl	80016d0 <u8g2_DrawStr>

	    // Выводим счётчик
	    char counter_str[16];
	    sprintf(counter_str, "Counter: %04d", counter);
 80003a0:	4b34      	ldr	r3, [pc, #208]	@ (8000474 <main+0x1b4>)
 80003a2:	881b      	ldrh	r3, [r3, #0]
 80003a4:	461a      	mov	r2, r3
 80003a6:	1d3b      	adds	r3, r7, #4
 80003a8:	4933      	ldr	r1, [pc, #204]	@ (8000478 <main+0x1b8>)
 80003aa:	4618      	mov	r0, r3
 80003ac:	f003 fd36 	bl	8003e1c <siprintf>
	    u8g2_DrawStr(&u8g2, 5, 35, counter_str);
 80003b0:	1d3b      	adds	r3, r7, #4
 80003b2:	2223      	movs	r2, #35	@ 0x23
 80003b4:	2105      	movs	r1, #5
 80003b6:	4828      	ldr	r0, [pc, #160]	@ (8000458 <main+0x198>)
 80003b8:	f001 f98a 	bl	80016d0 <u8g2_DrawStr>

	    // Рисуем простой индикатор прогресса
	    uint8_t progress = (counter % 100) * 118 / 100; // 0-118 пикселей
 80003bc:	4b2d      	ldr	r3, [pc, #180]	@ (8000474 <main+0x1b4>)
 80003be:	881b      	ldrh	r3, [r3, #0]
 80003c0:	4a2e      	ldr	r2, [pc, #184]	@ (800047c <main+0x1bc>)
 80003c2:	fba2 1203 	umull	r1, r2, r2, r3
 80003c6:	0952      	lsrs	r2, r2, #5
 80003c8:	2164      	movs	r1, #100	@ 0x64
 80003ca:	fb01 f202 	mul.w	r2, r1, r2
 80003ce:	1a9b      	subs	r3, r3, r2
 80003d0:	b29b      	uxth	r3, r3
 80003d2:	461a      	mov	r2, r3
 80003d4:	2376      	movs	r3, #118	@ 0x76
 80003d6:	fb02 f303 	mul.w	r3, r2, r3
 80003da:	4a28      	ldr	r2, [pc, #160]	@ (800047c <main+0x1bc>)
 80003dc:	fb82 1203 	smull	r1, r2, r2, r3
 80003e0:	1152      	asrs	r2, r2, #5
 80003e2:	17db      	asrs	r3, r3, #31
 80003e4:	1ad3      	subs	r3, r2, r3
 80003e6:	75fb      	strb	r3, [r7, #23]
	    u8g2_DrawBox(&u8g2, 5, 48, progress, 8);
 80003e8:	7dfb      	ldrb	r3, [r7, #23]
 80003ea:	b29b      	uxth	r3, r3
 80003ec:	2208      	movs	r2, #8
 80003ee:	9200      	str	r2, [sp, #0]
 80003f0:	2230      	movs	r2, #48	@ 0x30
 80003f2:	2105      	movs	r1, #5
 80003f4:	4818      	ldr	r0, [pc, #96]	@ (8000458 <main+0x198>)
 80003f6:	f000 fb38 	bl	8000a6a <u8g2_DrawBox>

	    // Отправляем буфер на дисплей
	    u8g2_SendBuffer(&u8g2);
 80003fa:	4817      	ldr	r0, [pc, #92]	@ (8000458 <main+0x198>)
 80003fc:	f000 fc3b 	bl	8000c76 <u8g2_SendBuffer>

	    // Мигаем бортовым LED каждые 500 мс (один цикл отрисовки ~300 мс)
	    if ((counter % 50) < 25) {
 8000400:	4b1c      	ldr	r3, [pc, #112]	@ (8000474 <main+0x1b4>)
 8000402:	881b      	ldrh	r3, [r3, #0]
 8000404:	4a1d      	ldr	r2, [pc, #116]	@ (800047c <main+0x1bc>)
 8000406:	fba2 1203 	umull	r1, r2, r2, r3
 800040a:	0912      	lsrs	r2, r2, #4
 800040c:	2132      	movs	r1, #50	@ 0x32
 800040e:	fb01 f202 	mul.w	r2, r1, r2
 8000412:	1a9b      	subs	r3, r3, r2
 8000414:	b29b      	uxth	r3, r3
 8000416:	2b18      	cmp	r3, #24
 8000418:	d806      	bhi.n	8000428 <main+0x168>
	        HAL_GPIO_WritePin(GPIOB, LED_PB8_Pin, GPIO_PIN_RESET); // LED ON
 800041a:	2200      	movs	r2, #0
 800041c:	f44f 7180 	mov.w	r1, #256	@ 0x100
 8000420:	4809      	ldr	r0, [pc, #36]	@ (8000448 <main+0x188>)
 8000422:	f002 fbb3 	bl	8002b8c <HAL_GPIO_WritePin>
 8000426:	e005      	b.n	8000434 <main+0x174>
	    } else {
	        HAL_GPIO_WritePin(GPIOB, LED_PB8_Pin, GPIO_PIN_SET);   // LED OFF
 8000428:	2201      	movs	r2, #1
 800042a:	f44f 7180 	mov.w	r1, #256	@ 0x100
 800042e:	4806      	ldr	r0, [pc, #24]	@ (8000448 <main+0x188>)
 8000430:	f002 fbac 	bl	8002b8c <HAL_GPIO_WritePin>
	    }

	    counter++;
 8000434:	4b0f      	ldr	r3, [pc, #60]	@ (8000474 <main+0x1b4>)
 8000436:	881b      	ldrh	r3, [r3, #0]
 8000438:	3301      	adds	r3, #1
 800043a:	b29a      	uxth	r2, r3
 800043c:	4b0d      	ldr	r3, [pc, #52]	@ (8000474 <main+0x1b4>)
 800043e:	801a      	strh	r2, [r3, #0]
	    HAL_Delay(250); // Пауза 250 мс между кадрами
 8000440:	20fa      	movs	r0, #250	@ 0xfa
 8000442:	f002 f911 	bl	8002668 <HAL_Delay>
  {
 8000446:	e796      	b.n	8000376 <main+0xb6>
 8000448:	48000400 	.word	0x48000400
 800044c:	08000741 	.word	0x08000741
 8000450:	08000689 	.word	0x08000689
 8000454:	0800506c 	.word	0x0800506c
 8000458:	200000dc 	.word	0x200000dc
 800045c:	08004bdc 	.word	0x08004bdc
 8000460:	08004784 	.word	0x08004784
 8000464:	08004794 	.word	0x08004794
 8000468:	080047a0 	.word	0x080047a0
 800046c:	080047d8 	.word	0x080047d8
 8000470:	080047ac 	.word	0x080047ac
 8000474:	20000170 	.word	0x20000170
 8000478:	080047b8 	.word	0x080047b8
 800047c:	51eb851f 	.word	0x51eb851f

08000480 <SystemClock_Config>:
/**
  * @brief System Clock Configuration
  * @retval None
  */
void SystemClock_Config(void)
{
 8000480:	b580      	push	{r7, lr}
 8000482:	b094      	sub	sp, #80	@ 0x50
 8000484:	af00      	add	r7, sp, #0
  RCC_OscInitTypeDef RCC_OscInitStruct = {0};
 8000486:	f107 0318 	add.w	r3, r7, #24
 800048a:	2238      	movs	r2, #56	@ 0x38
 800048c:	2100      	movs	r1, #0
 800048e:	4618      	mov	r0, r3
 8000490:	f003 fce6 	bl	8003e60 <memset>
  RCC_ClkInitTypeDef RCC_ClkInitStruct = {0};
 8000494:	1d3b      	adds	r3, r7, #4
 8000496:	2200      	movs	r2, #0
 8000498:	601a      	str	r2, [r3, #0]
 800049a:	605a      	str	r2, [r3, #4]
 800049c:	609a      	str	r2, [r3, #8]
 800049e:	60da      	str	r2, [r3, #12]
 80004a0:	611a      	str	r2, [r3, #16]

  /** Configure the main internal regulator output voltage
  */
  HAL_PWREx_ControlVoltageScaling(PWR_REGULATOR_VOLTAGE_SCALE1_BOOST);
 80004a2:	2000      	movs	r0, #0
 80004a4:	f002 fb8a 	bl	8002bbc <HAL_PWREx_ControlVoltageScaling>

  /** Initializes the RCC Oscillators according to the specified parameters
  * in the RCC_OscInitTypeDef structure.
  */
  RCC_OscInitStruct.OscillatorType = RCC_OSCILLATORTYPE_HSE;
 80004a8:	2301      	movs	r3, #1
 80004aa:	61bb      	str	r3, [r7, #24]
  RCC_OscInitStruct.HSEState = RCC_HSE_ON;
 80004ac:	f44f 3380 	mov.w	r3, #65536	@ 0x10000
 80004b0:	61fb      	str	r3, [r7, #28]
  RCC_OscInitStruct.PLL.PLLState = RCC_PLL_ON;
 80004b2:	2302      	movs	r3, #2
 80004b4:	637b      	str	r3, [r7, #52]	@ 0x34
  RCC_OscInitStruct.PLL.PLLSource = RCC_PLLSOURCE_HSE;
 80004b6:	2303      	movs	r3, #3
 80004b8:	63bb      	str	r3, [r7, #56]	@ 0x38
  RCC_OscInitStruct.PLL.PLLM = RCC_PLLM_DIV6;
 80004ba:	2306      	movs	r3, #6
 80004bc:	63fb      	str	r3, [r7, #60]	@ 0x3c
  RCC_OscInitStruct.PLL.PLLN = 85;
 80004be:	2355      	movs	r3, #85	@ 0x55
 80004c0:	643b      	str	r3, [r7, #64]	@ 0x40
  RCC_OscInitStruct.PLL.PLLP = RCC_PLLP_DIV2;
 80004c2:	2302      	movs	r3, #2
 80004c4:	647b      	str	r3, [r7, #68]	@ 0x44
  RCC_OscInitStruct.PLL.PLLQ = RCC_PLLQ_DIV2;
 80004c6:	2302      	movs	r3, #2
 80004c8:	64bb      	str	r3, [r7, #72]	@ 0x48
  RCC_OscInitStruct.PLL.PLLR = RCC_PLLR_DIV2;
 80004ca:	2302      	movs	r3, #2
 80004cc:	64fb      	str	r3, [r7, #76]	@ 0x4c
  if (HAL_RCC_OscConfig(&RCC_OscInitStruct) != HAL_OK)
 80004ce:	f107 0318 	add.w	r3, r7, #24
 80004d2:	4618      	mov	r0, r3
 80004d4:	f002 fc26 	bl	8002d24 <HAL_RCC_OscConfig>
 80004d8:	4603      	mov	r3, r0
 80004da:	2b00      	cmp	r3, #0
 80004dc:	d001      	beq.n	80004e2 <SystemClock_Config+0x62>
  {
    Error_Handler();
 80004de:	f000 f9b7 	bl	8000850 <Error_Handler>
  }

  /** Initializes the CPU, AHB and APB buses clocks
  */
  RCC_ClkInitStruct.ClockType = RCC_CLOCKTYPE_HCLK|RCC_CLOCKTYPE_SYSCLK
 80004e2:	230f      	movs	r3, #15
 80004e4:	607b      	str	r3, [r7, #4]
                              |RCC_CLOCKTYPE_PCLK1|RCC_CLOCKTYPE_PCLK2;
  RCC_ClkInitStruct.SYSCLKSource = RCC_SYSCLKSOURCE_PLLCLK;
 80004e6:	2303      	movs	r3, #3
 80004e8:	60bb      	str	r3, [r7, #8]
  RCC_ClkInitStruct.AHBCLKDivider = RCC_SYSCLK_DIV1;
 80004ea:	2300      	movs	r3, #0
 80004ec:	60fb      	str	r3, [r7, #12]
  RCC_ClkInitStruct.APB1CLKDivider = RCC_HCLK_DIV1;
 80004ee:	2300      	movs	r3, #0
 80004f0:	613b      	str	r3, [r7, #16]
  RCC_ClkInitStruct.APB2CLKDivider = RCC_HCLK_DIV1;
 80004f2:	2300      	movs	r3, #0
 80004f4:	617b      	str	r3, [r7, #20]

  if (HAL_RCC_ClockConfig(&RCC_ClkInitStruct, FLASH_LATENCY_4) != HAL_OK)
 80004f6:	1d3b      	adds	r3, r7, #4
 80004f8:	2104      	movs	r1, #4
 80004fa:	4618      	mov	r0, r3
 80004fc:	f002 ff24 	bl	8003348 <HAL_RCC_ClockConfig>
 8000500:	4603      	mov	r3, r0
 8000502:	2b00      	cmp	r3, #0
 8000504:	d001      	beq.n	800050a <SystemClock_Config+0x8a>
  {
    Error_Handler();
 8000506:	f000 f9a3 	bl	8000850 <Error_Handler>
  }
}
 800050a:	bf00      	nop
 800050c:	3750      	adds	r7, #80	@ 0x50
 800050e:	46bd      	mov	sp, r7
 8000510:	bd80      	pop	{r7, pc}
	...

08000514 <MX_SPI1_Init>:
  * @brief SPI1 Initialization Function
  * @param None
  * @retval None
  */
static void MX_SPI1_Init(void)
{
 8000514:	b580      	push	{r7, lr}
 8000516:	af00      	add	r7, sp, #0

  /* USER CODE BEGIN SPI1_Init 1 */

  /* USER CODE END SPI1_Init 1 */
  /* SPI1 parameter configuration*/
  hspi1.Instance = SPI1;
 8000518:	4b1b      	ldr	r3, [pc, #108]	@ (8000588 <MX_SPI1_Init+0x74>)
 800051a:	4a1c      	ldr	r2, [pc, #112]	@ (800058c <MX_SPI1_Init+0x78>)
 800051c:	601a      	str	r2, [r3, #0]
  hspi1.Init.Mode = SPI_MODE_MASTER;
 800051e:	4b1a      	ldr	r3, [pc, #104]	@ (8000588 <MX_SPI1_Init+0x74>)
 8000520:	f44f 7282 	mov.w	r2, #260	@ 0x104
 8000524:	605a      	str	r2, [r3, #4]
  hspi1.Init.Direction = SPI_DIRECTION_2LINES;
 8000526:	4b18      	ldr	r3, [pc, #96]	@ (8000588 <MX_SPI1_Init+0x74>)
 8000528:	2200      	movs	r2, #0
 800052a:	609a      	str	r2, [r3, #8]
  hspi1.Init.DataSize = SPI_DATASIZE_8BIT;
 800052c:	4b16      	ldr	r3, [pc, #88]	@ (8000588 <MX_SPI1_Init+0x74>)
 800052e:	f44f 62e0 	mov.w	r2, #1792	@ 0x700
 8000532:	60da      	str	r2, [r3, #12]
  hspi1.Init.CLKPolarity = SPI_POLARITY_LOW;
 8000534:	4b14      	ldr	r3, [pc, #80]	@ (8000588 <MX_SPI1_Init+0x74>)
 8000536:	2200      	movs	r2, #0
 8000538:	611a      	str	r2, [r3, #16]
  hspi1.Init.CLKPhase = SPI_PHASE_1EDGE;
 800053a:	4b13      	ldr	r3, [pc, #76]	@ (8000588 <MX_SPI1_Init+0x74>)
 800053c:	2200      	movs	r2, #0
 800053e:	615a      	str	r2, [r3, #20]
  hspi1.Init.NSS = SPI_NSS_SOFT;
 8000540:	4b11      	ldr	r3, [pc, #68]	@ (8000588 <MX_SPI1_Init+0x74>)
 8000542:	f44f 7200 	mov.w	r2, #512	@ 0x200
 8000546:	619a      	str	r2, [r3, #24]
  hspi1.Init.BaudRatePrescaler = SPI_BAUDRATEPRESCALER_256;
 8000548:	4b0f      	ldr	r3, [pc, #60]	@ (8000588 <MX_SPI1_Init+0x74>)
 800054a:	2238      	movs	r2, #56	@ 0x38
 800054c:	61da      	str	r2, [r3, #28]
  hspi1.Init.FirstBit = SPI_FIRSTBIT_MSB;
 800054e:	4b0e      	ldr	r3, [pc, #56]	@ (8000588 <MX_SPI1_Init+0x74>)
 8000550:	2200      	movs	r2, #0
 8000552:	621a      	str	r2, [r3, #32]
  hspi1.Init.TIMode = SPI_TIMODE_DISABLE;
 8000554:	4b0c      	ldr	r3, [pc, #48]	@ (8000588 <MX_SPI1_Init+0x74>)
 8000556:	2200      	movs	r2, #0
 8000558:	625a      	str	r2, [r3, #36]	@ 0x24
  hspi1.Init.CRCCalculation = SPI_CRCCALCULATION_DISABLE;
 800055a:	4b0b      	ldr	r3, [pc, #44]	@ (8000588 <MX_SPI1_Init+0x74>)
 800055c:	2200      	movs	r2, #0
 800055e:	629a      	str	r2, [r3, #40]	@ 0x28
  hspi1.Init.CRCPolynomial = 7;
 8000560:	4b09      	ldr	r3, [pc, #36]	@ (8000588 <MX_SPI1_Init+0x74>)
 8000562:	2207      	movs	r2, #7
 8000564:	62da      	str	r2, [r3, #44]	@ 0x2c
  hspi1.Init.CRCLength = SPI_CRC_LENGTH_DATASIZE;
 8000566:	4b08      	ldr	r3, [pc, #32]	@ (8000588 <MX_SPI1_Init+0x74>)
 8000568:	2200      	movs	r2, #0
 800056a:	631a      	str	r2, [r3, #48]	@ 0x30
  hspi1.Init.NSSPMode = SPI_NSS_PULSE_ENABLE;
 800056c:	4b06      	ldr	r3, [pc, #24]	@ (8000588 <MX_SPI1_Init+0x74>)
 800056e:	2208      	movs	r2, #8
 8000570:	635a      	str	r2, [r3, #52]	@ 0x34
  if (HAL_SPI_Init(&hspi1) != HAL_OK)
 8000572:	4805      	ldr	r0, [pc, #20]	@ (8000588 <MX_SPI1_Init+0x74>)
 8000574:	f003 f8cc 	bl	8003710 <HAL_SPI_Init>
 8000578:	4603      	mov	r3, r0
 800057a:	2b00      	cmp	r3, #0
 800057c:	d001      	beq.n	8000582 <MX_SPI1_Init+0x6e>
  {
    Error_Handler();
 800057e:	f000 f967 	bl	8000850 <Error_Handler>
  }
  /* USER CODE BEGIN SPI1_Init 2 */

  /* USER CODE END SPI1_Init 2 */

}
 8000582:	bf00      	nop
 8000584:	bd80      	pop	{r7, pc}
 8000586:	bf00      	nop
 8000588:	20000078 	.word	0x20000078
 800058c:	40013000 	.word	0x40013000

08000590 <MX_GPIO_Init>:
  * @brief GPIO Initialization Function
  * @param None
  * @retval None
  */
static void MX_GPIO_Init(void)
{
 8000590:	b580      	push	{r7, lr}
 8000592:	b088      	sub	sp, #32
 8000594:	af00      	add	r7, sp, #0
  GPIO_InitTypeDef GPIO_InitStruct = {0};
 8000596:	f107 030c 	add.w	r3, r7, #12
 800059a:	2200      	movs	r2, #0
 800059c:	601a      	str	r2, [r3, #0]
 800059e:	605a      	str	r2, [r3, #4]
 80005a0:	609a      	str	r2, [r3, #8]
 80005a2:	60da      	str	r2, [r3, #12]
 80005a4:	611a      	str	r2, [r3, #16]
  /* USER CODE BEGIN MX_GPIO_Init_1 */

  /* USER CODE END MX_GPIO_Init_1 */

  /* GPIO Ports Clock Enable */
  __HAL_RCC_GPIOF_CLK_ENABLE();
 80005a6:	4b29      	ldr	r3, [pc, #164]	@ (800064c <MX_GPIO_Init+0xbc>)
 80005a8:	6cdb      	ldr	r3, [r3, #76]	@ 0x4c
 80005aa:	4a28      	ldr	r2, [pc, #160]	@ (800064c <MX_GPIO_Init+0xbc>)
 80005ac:	f043 0320 	orr.w	r3, r3, #32
 80005b0:	64d3      	str	r3, [r2, #76]	@ 0x4c
 80005b2:	4b26      	ldr	r3, [pc, #152]	@ (800064c <MX_GPIO_Init+0xbc>)
 80005b4:	6cdb      	ldr	r3, [r3, #76]	@ 0x4c
 80005b6:	f003 0320 	and.w	r3, r3, #32
 80005ba:	60bb      	str	r3, [r7, #8]
 80005bc:	68bb      	ldr	r3, [r7, #8]
  __HAL_RCC_GPIOA_CLK_ENABLE();
 80005be:	4b23      	ldr	r3, [pc, #140]	@ (800064c <MX_GPIO_Init+0xbc>)
 80005c0:	6cdb      	ldr	r3, [r3, #76]	@ 0x4c
 80005c2:	4a22      	ldr	r2, [pc, #136]	@ (800064c <MX_GPIO_Init+0xbc>)
 80005c4:	f043 0301 	orr.w	r3, r3, #1
 80005c8:	64d3      	str	r3, [r2, #76]	@ 0x4c
 80005ca:	4b20      	ldr	r3, [pc, #128]	@ (800064c <MX_GPIO_Init+0xbc>)
 80005cc:	6cdb      	ldr	r3, [r3, #76]	@ 0x4c
 80005ce:	f003 0301 	and.w	r3, r3, #1
 80005d2:	607b      	str	r3, [r7, #4]
 80005d4:	687b      	ldr	r3, [r7, #4]
  __HAL_RCC_GPIOB_CLK_ENABLE();
 80005d6:	4b1d      	ldr	r3, [pc, #116]	@ (800064c <MX_GPIO_Init+0xbc>)
 80005d8:	6cdb      	ldr	r3, [r3, #76]	@ 0x4c
 80005da:	4a1c      	ldr	r2, [pc, #112]	@ (800064c <MX_GPIO_Init+0xbc>)
 80005dc:	f043 0302 	orr.w	r3, r3, #2
 80005e0:	64d3      	str	r3, [r2, #76]	@ 0x4c
 80005e2:	4b1a      	ldr	r3, [pc, #104]	@ (800064c <MX_GPIO_Init+0xbc>)
 80005e4:	6cdb      	ldr	r3, [r3, #76]	@ 0x4c
 80005e6:	f003 0302 	and.w	r3, r3, #2
 80005ea:	603b      	str	r3, [r7, #0]
 80005ec:	683b      	ldr	r3, [r7, #0]

  /*Configure GPIO pin Output Level */
  HAL_GPIO_WritePin(GPIOA, GPIO_PIN_4|GPIO_PIN_6, GPIO_PIN_RESET);
 80005ee:	2200      	movs	r2, #0
 80005f0:	2150      	movs	r1, #80	@ 0x50
 80005f2:	f04f 4090 	mov.w	r0, #1207959552	@ 0x48000000
 80005f6:	f002 fac9 	bl	8002b8c <HAL_GPIO_WritePin>

  /*Configure GPIO pin Output Level */
  HAL_GPIO_WritePin(GPIOB, GPIO_PIN_0|LED_PB8_Pin, GPIO_PIN_RESET);
 80005fa:	2200      	movs	r2, #0
 80005fc:	f240 1101 	movw	r1, #257	@ 0x101
 8000600:	4813      	ldr	r0, [pc, #76]	@ (8000650 <MX_GPIO_Init+0xc0>)
 8000602:	f002 fac3 	bl	8002b8c <HAL_GPIO_WritePin>

  /*Configure GPIO pins : PA4 PA6 */
  GPIO_InitStruct.Pin = GPIO_PIN_4|GPIO_PIN_6;
 8000606:	2350      	movs	r3, #80	@ 0x50
 8000608:	60fb      	str	r3, [r7, #12]
  GPIO_InitStruct.Mode = GPIO_MODE_OUTPUT_PP;
 800060a:	2301      	movs	r3, #1
 800060c:	613b      	str	r3, [r7, #16]
  GPIO_InitStruct.Pull = GPIO_NOPULL;
 800060e:	2300      	movs	r3, #0
 8000610:	617b      	str	r3, [r7, #20]
  GPIO_InitStruct.Speed = GPIO_SPEED_FREQ_LOW;
 8000612:	2300      	movs	r3, #0
 8000614:	61bb      	str	r3, [r7, #24]
  HAL_GPIO_Init(GPIOA, &GPIO_InitStruct);
 8000616:	f107 030c 	add.w	r3, r7, #12
 800061a:	4619      	mov	r1, r3
 800061c:	f04f 4090 	mov.w	r0, #1207959552	@ 0x48000000
 8000620:	f002 f928 	bl	8002874 <HAL_GPIO_Init>

  /*Configure GPIO pins : PB0 LED_PB8_Pin */
  GPIO_InitStruct.Pin = GPIO_PIN_0|LED_PB8_Pin;
 8000624:	f240 1301 	movw	r3, #257	@ 0x101
 8000628:	60fb      	str	r3, [r7, #12]
  GPIO_InitStruct.Mode = GPIO_MODE_OUTPUT_PP;
 800062a:	2301      	movs	r3, #1
 800062c:	613b      	str	r3, [r7, #16]
  GPIO_InitStruct.Pull = GPIO_NOPULL;
 800062e:	2300      	movs	r3, #0
 8000630:	617b      	str	r3, [r7, #20]
  GPIO_InitStruct.Speed = GPIO_SPEED_FREQ_LOW;
 8000632:	2300      	movs	r3, #0
 8000634:	61bb      	str	r3, [r7, #24]
  HAL_GPIO_Init(GPIOB, &GPIO_InitStruct);
 8000636:	f107 030c 	add.w	r3, r7, #12
 800063a:	4619      	mov	r1, r3
 800063c:	4804      	ldr	r0, [pc, #16]	@ (8000650 <MX_GPIO_Init+0xc0>)
 800063e:	f002 f919 	bl	8002874 <HAL_GPIO_Init>

  /* USER CODE BEGIN MX_GPIO_Init_2 */

  /* USER CODE END MX_GPIO_Init_2 */
}
 8000642:	bf00      	nop
 8000644:	3720      	adds	r7, #32
 8000646:	46bd      	mov	sp, r7
 8000648:	bd80      	pop	{r7, pc}
 800064a:	bf00      	nop
 800064c:	40021000 	.word	0x40021000
 8000650:	48000400 	.word	0x48000400

08000654 <u8g2_delay_us>:

/* USER CODE BEGIN 4 */

// Функция задержки в микросекундах (для u8g2)
void u8g2_delay_us(uint32_t us) {
 8000654:	b480      	push	{r7}
 8000656:	b085      	sub	sp, #20
 8000658:	af00      	add	r7, sp, #0
 800065a:	6078      	str	r0, [r7, #4]
    // HAL_Delay работает только с миллисекундами
    // Для микросекунд используем простой цикл
    // При частоте ядра ~170 МГц этот цикл даёт приблизительную задержку
    // Для инициализации дисплея точность достаточна
    while (us--) {
 800065c:	e008      	b.n	8000670 <u8g2_delay_us+0x1c>
        for (volatile int i = 0; i < 10; i++);
 800065e:	2300      	movs	r3, #0
 8000660:	60fb      	str	r3, [r7, #12]
 8000662:	e002      	b.n	800066a <u8g2_delay_us+0x16>
 8000664:	68fb      	ldr	r3, [r7, #12]
 8000666:	3301      	adds	r3, #1
 8000668:	60fb      	str	r3, [r7, #12]
 800066a:	68fb      	ldr	r3, [r7, #12]
 800066c:	2b09      	cmp	r3, #9
 800066e:	ddf9      	ble.n	8000664 <u8g2_delay_us+0x10>
    while (us--) {
 8000670:	687b      	ldr	r3, [r7, #4]
 8000672:	1e5a      	subs	r2, r3, #1
 8000674:	607a      	str	r2, [r7, #4]
 8000676:	2b00      	cmp	r3, #0
 8000678:	d1f1      	bne.n	800065e <u8g2_delay_us+0xa>
    }
}
 800067a:	bf00      	nop
 800067c:	bf00      	nop
 800067e:	3714      	adds	r7, #20
 8000680:	46bd      	mov	sp, r7
 8000682:	f85d 7b04 	ldr.w	r7, [sp], #4
 8000686:	4770      	bx	lr

08000688 <u8g2_byte_hw_spi>:

// Функция отправки байта через аппаратный SPI HAL (для u8g2)
// Управляет CS и DC вокруг передачи данных/команд
uint8_t u8g2_byte_hw_spi(u8x8_t *u8x8, uint8_t msg, uint8_t arg_int, void *arg_ptr) {
 8000688:	b580      	push	{r7, lr}
 800068a:	b084      	sub	sp, #16
 800068c:	af00      	add	r7, sp, #0
 800068e:	60f8      	str	r0, [r7, #12]
 8000690:	607b      	str	r3, [r7, #4]
 8000692:	460b      	mov	r3, r1
 8000694:	72fb      	strb	r3, [r7, #11]
 8000696:	4613      	mov	r3, r2
 8000698:	72bb      	strb	r3, [r7, #10]
    switch (msg) {
 800069a:	7afb      	ldrb	r3, [r7, #11]
 800069c:	3b14      	subs	r3, #20
 800069e:	2b0c      	cmp	r3, #12
 80006a0:	d842      	bhi.n	8000728 <u8g2_byte_hw_spi+0xa0>
 80006a2:	a201      	add	r2, pc, #4	@ (adr r2, 80006a8 <u8g2_byte_hw_spi+0x20>)
 80006a4:	f852 f023 	ldr.w	pc, [r2, r3, lsl #2]
 80006a8:	0800072d 	.word	0x0800072d
 80006ac:	08000729 	.word	0x08000729
 80006b0:	08000729 	.word	0x08000729
 80006b4:	080006dd 	.word	0x080006dd
 80006b8:	08000711 	.word	0x08000711
 80006bc:	0800071d 	.word	0x0800071d
 80006c0:	08000729 	.word	0x08000729
 80006c4:	08000729 	.word	0x08000729
 80006c8:	08000729 	.word	0x08000729
 80006cc:	08000729 	.word	0x08000729
 80006d0:	08000729 	.word	0x08000729
 80006d4:	08000729 	.word	0x08000729
 80006d8:	080006ef 	.word	0x080006ef
        case U8X8_MSG_BYTE_SEND:
            // Отправляем байты через HAL SPI
            HAL_SPI_Transmit(&hspi1, (uint8_t *)arg_ptr, arg_int, HAL_MAX_DELAY);
 80006dc:	7abb      	ldrb	r3, [r7, #10]
 80006de:	b29a      	uxth	r2, r3
 80006e0:	f04f 33ff 	mov.w	r3, #4294967295
 80006e4:	6879      	ldr	r1, [r7, #4]
 80006e6:	4814      	ldr	r0, [pc, #80]	@ (8000738 <u8g2_byte_hw_spi+0xb0>)
 80006e8:	f003 f8bd 	bl	8003866 <HAL_SPI_Transmit>
            break;
 80006ec:	e01f      	b.n	800072e <u8g2_byte_hw_spi+0xa6>
            // Инициализация — ничего не нужно, HAL SPI уже инициализирован
            break;

        case U8X8_MSG_BYTE_SET_DC:
            // Устанавливаем DC (Data/Command)
            if (arg_int == 0)
 80006ee:	7abb      	ldrb	r3, [r7, #10]
 80006f0:	2b00      	cmp	r3, #0
 80006f2:	d106      	bne.n	8000702 <u8g2_byte_hw_spi+0x7a>
                HAL_GPIO_WritePin(OLED_DC_PORT, OLED_DC_PIN, GPIO_PIN_RESET); // Command
 80006f4:	2200      	movs	r2, #0
 80006f6:	2110      	movs	r1, #16
 80006f8:	f04f 4090 	mov.w	r0, #1207959552	@ 0x48000000
 80006fc:	f002 fa46 	bl	8002b8c <HAL_GPIO_WritePin>
            else
                HAL_GPIO_WritePin(OLED_DC_PORT, OLED_DC_PIN, GPIO_PIN_SET);   // Data
            break;
 8000700:	e015      	b.n	800072e <u8g2_byte_hw_spi+0xa6>
                HAL_GPIO_WritePin(OLED_DC_PORT, OLED_DC_PIN, GPIO_PIN_SET);   // Data
 8000702:	2201      	movs	r2, #1
 8000704:	2110      	movs	r1, #16
 8000706:	f04f 4090 	mov.w	r0, #1207959552	@ 0x48000000
 800070a:	f002 fa3f 	bl	8002b8c <HAL_GPIO_WritePin>
            break;
 800070e:	e00e      	b.n	800072e <u8g2_byte_hw_spi+0xa6>

        case U8X8_MSG_BYTE_START_TRANSFER:
            // Опускаем CS — начало передачи
            HAL_GPIO_WritePin(OLED_CS_PORT, OLED_CS_PIN, GPIO_PIN_RESET);
 8000710:	2200      	movs	r2, #0
 8000712:	2101      	movs	r1, #1
 8000714:	4809      	ldr	r0, [pc, #36]	@ (800073c <u8g2_byte_hw_spi+0xb4>)
 8000716:	f002 fa39 	bl	8002b8c <HAL_GPIO_WritePin>
            break;
 800071a:	e008      	b.n	800072e <u8g2_byte_hw_spi+0xa6>

        case U8X8_MSG_BYTE_END_TRANSFER:
            // Поднимаем CS — конец передачи
            HAL_GPIO_WritePin(OLED_CS_PORT, OLED_CS_PIN, GPIO_PIN_SET);
 800071c:	2201      	movs	r2, #1
 800071e:	2101      	movs	r1, #1
 8000720:	4806      	ldr	r0, [pc, #24]	@ (800073c <u8g2_byte_hw_spi+0xb4>)
 8000722:	f002 fa33 	bl	8002b8c <HAL_GPIO_WritePin>
            break;
 8000726:	e002      	b.n	800072e <u8g2_byte_hw_spi+0xa6>

        default:
            return 0;
 8000728:	2300      	movs	r3, #0
 800072a:	e001      	b.n	8000730 <u8g2_byte_hw_spi+0xa8>
            break;
 800072c:	bf00      	nop
    }
    return 1;
 800072e:	2301      	movs	r3, #1
}
 8000730:	4618      	mov	r0, r3
 8000732:	3710      	adds	r7, #16
 8000734:	46bd      	mov	sp, r7
 8000736:	bd80      	pop	{r7, pc}
 8000738:	20000078 	.word	0x20000078
 800073c:	48000400 	.word	0x48000400

08000740 <u8g2_gpio_and_delay>:

// Функция управления GPIO и задержками для u8g2
uint8_t u8g2_gpio_and_delay(u8x8_t *u8x8, uint8_t msg, uint8_t arg_int, void *arg_ptr) {
 8000740:	b580      	push	{r7, lr}
 8000742:	b084      	sub	sp, #16
 8000744:	af00      	add	r7, sp, #0
 8000746:	60f8      	str	r0, [r7, #12]
 8000748:	607b      	str	r3, [r7, #4]
 800074a:	460b      	mov	r3, r1
 800074c:	72fb      	strb	r3, [r7, #11]
 800074e:	4613      	mov	r3, r2
 8000750:	72bb      	strb	r3, [r7, #10]
    switch (msg) {
 8000752:	7afb      	ldrb	r3, [r7, #11]
 8000754:	3b28      	subs	r3, #40	@ 0x28
 8000756:	2b23      	cmp	r3, #35	@ 0x23
 8000758:	d873      	bhi.n	8000842 <u8g2_gpio_and_delay+0x102>
 800075a:	a201      	add	r2, pc, #4	@ (adr r2, 8000760 <u8g2_gpio_and_delay+0x20>)
 800075c:	f852 f023 	ldr.w	pc, [r2, r3, lsl #2]
 8000760:	08000843 	.word	0x08000843
 8000764:	080007f1 	.word	0x080007f1
 8000768:	080007fb 	.word	0x080007fb
 800076c:	0800080d 	.word	0x0800080d
 8000770:	08000843 	.word	0x08000843
 8000774:	08000843 	.word	0x08000843
 8000778:	08000843 	.word	0x08000843
 800077c:	08000843 	.word	0x08000843
 8000780:	08000843 	.word	0x08000843
 8000784:	08000843 	.word	0x08000843
 8000788:	08000843 	.word	0x08000843
 800078c:	08000843 	.word	0x08000843
 8000790:	08000843 	.word	0x08000843
 8000794:	08000843 	.word	0x08000843
 8000798:	08000843 	.word	0x08000843
 800079c:	08000843 	.word	0x08000843
 80007a0:	08000843 	.word	0x08000843
 80007a4:	08000843 	.word	0x08000843
 80007a8:	08000843 	.word	0x08000843
 80007ac:	08000843 	.word	0x08000843
 80007b0:	08000843 	.word	0x08000843
 80007b4:	08000843 	.word	0x08000843
 80007b8:	08000843 	.word	0x08000843
 80007bc:	08000843 	.word	0x08000843
 80007c0:	08000843 	.word	0x08000843
 80007c4:	08000843 	.word	0x08000843
 80007c8:	08000843 	.word	0x08000843
 80007cc:	08000843 	.word	0x08000843
 80007d0:	08000843 	.word	0x08000843
 80007d4:	08000843 	.word	0x08000843
 80007d8:	08000843 	.word	0x08000843
 80007dc:	08000843 	.word	0x08000843
 80007e0:	08000843 	.word	0x08000843
 80007e4:	08000843 	.word	0x08000843
 80007e8:	08000843 	.word	0x08000843
 80007ec:	08000821 	.word	0x08000821
        case U8X8_MSG_GPIO_AND_DELAY_INIT:   // Инициализация GPIO и задержек
            break;

        case U8X8_MSG_DELAY_MILLI:           // Задержка в миллисекундах
            HAL_Delay(arg_int);
 80007f0:	7abb      	ldrb	r3, [r7, #10]
 80007f2:	4618      	mov	r0, r3
 80007f4:	f001 ff38 	bl	8002668 <HAL_Delay>
            break;
 80007f8:	e023      	b.n	8000842 <u8g2_gpio_and_delay+0x102>

        case U8X8_MSG_DELAY_10MICRO:         // Задержка в 10 микросекундах
            u8g2_delay_us(arg_int * 10);
 80007fa:	7aba      	ldrb	r2, [r7, #10]
 80007fc:	4613      	mov	r3, r2
 80007fe:	009b      	lsls	r3, r3, #2
 8000800:	4413      	add	r3, r2
 8000802:	005b      	lsls	r3, r3, #1
 8000804:	4618      	mov	r0, r3
 8000806:	f7ff ff25 	bl	8000654 <u8g2_delay_us>
            break;
 800080a:	e01a      	b.n	8000842 <u8g2_gpio_and_delay+0x102>

        case U8X8_MSG_DELAY_100NANO:         // Задержка в 100 наносекундах (приблизительно)
            u8g2_delay_us(arg_int / 10);
 800080c:	7abb      	ldrb	r3, [r7, #10]
 800080e:	4a0f      	ldr	r2, [pc, #60]	@ (800084c <u8g2_gpio_and_delay+0x10c>)
 8000810:	fba2 2303 	umull	r2, r3, r2, r3
 8000814:	08db      	lsrs	r3, r3, #3
 8000816:	b2db      	uxtb	r3, r3
 8000818:	4618      	mov	r0, r3
 800081a:	f7ff ff1b 	bl	8000654 <u8g2_delay_us>
            break;
 800081e:	e010      	b.n	8000842 <u8g2_gpio_and_delay+0x102>

        case U8X8_MSG_GPIO_RESET:            // Управление RESET
            if (arg_int == 0)
 8000820:	7abb      	ldrb	r3, [r7, #10]
 8000822:	2b00      	cmp	r3, #0
 8000824:	d106      	bne.n	8000834 <u8g2_gpio_and_delay+0xf4>
                HAL_GPIO_WritePin(OLED_RST_PORT, OLED_RST_PIN, GPIO_PIN_RESET);
 8000826:	2200      	movs	r2, #0
 8000828:	2140      	movs	r1, #64	@ 0x40
 800082a:	f04f 4090 	mov.w	r0, #1207959552	@ 0x48000000
 800082e:	f002 f9ad 	bl	8002b8c <HAL_GPIO_WritePin>
            else
                HAL_GPIO_WritePin(OLED_RST_PORT, OLED_RST_PIN, GPIO_PIN_SET);
            break;
 8000832:	e005      	b.n	8000840 <u8g2_gpio_and_delay+0x100>
                HAL_GPIO_WritePin(OLED_RST_PORT, OLED_RST_PIN, GPIO_PIN_SET);
 8000834:	2201      	movs	r2, #1
 8000836:	2140      	movs	r1, #64	@ 0x40
 8000838:	f04f 4090 	mov.w	r0, #1207959552	@ 0x48000000
 800083c:	f002 f9a6 	bl	8002b8c <HAL_GPIO_WritePin>
            break;
 8000840:	bf00      	nop
    }
    return 1;
 8000842:	2301      	movs	r3, #1
}
 8000844:	4618      	mov	r0, r3
 8000846:	3710      	adds	r7, #16
 8000848:	46bd      	mov	sp, r7
 800084a:	bd80      	pop	{r7, pc}
 800084c:	cccccccd 	.word	0xcccccccd

08000850 <Error_Handler>:
/**
  * @brief  This function is executed in case of error occurrence.
  * @retval None
  */
void Error_Handler(void)
{
 8000850:	b480      	push	{r7}
 8000852:	af00      	add	r7, sp, #0
  \details Disables IRQ interrupts by setting the I-bit in the CPSR.
           Can only be executed in Privileged modes.
 */
__STATIC_FORCEINLINE void __disable_irq(void)
{
  __ASM volatile ("cpsid i" : : : "memory");
 8000854:	b672      	cpsid	i
}
 8000856:	bf00      	nop
  /* USER CODE BEGIN Error_Handler_Debug */
  /* User can add his own implementation to report the HAL error return state */
  __disable_irq();
  while (1)
 8000858:	bf00      	nop
 800085a:	e7fd      	b.n	8000858 <Error_Handler+0x8>

0800085c <HAL_MspInit>:
/* USER CODE END 0 */
/**
  * Initializes the Global MSP.
  */
void HAL_MspInit(void)
{
 800085c:	b580      	push	{r7, lr}
 800085e:	b082      	sub	sp, #8
 8000860:	af00      	add	r7, sp, #0

  /* USER CODE BEGIN MspInit 0 */

  /* USER CODE END MspInit 0 */

  __HAL_RCC_SYSCFG_CLK_ENABLE();
 8000862:	4b0f      	ldr	r3, [pc, #60]	@ (80008a0 <HAL_MspInit+0x44>)
 8000864:	6e1b      	ldr	r3, [r3, #96]	@ 0x60
 8000866:	4a0e      	ldr	r2, [pc, #56]	@ (80008a0 <HAL_MspInit+0x44>)
 8000868:	f043 0301 	orr.w	r3, r3, #1
 800086c:	6613      	str	r3, [r2, #96]	@ 0x60
 800086e:	4b0c      	ldr	r3, [pc, #48]	@ (80008a0 <HAL_MspInit+0x44>)
 8000870:	6e1b      	ldr	r3, [r3, #96]	@ 0x60
 8000872:	f003 0301 	and.w	r3, r3, #1
 8000876:	607b      	str	r3, [r7, #4]
 8000878:	687b      	ldr	r3, [r7, #4]
  __HAL_RCC_PWR_CLK_ENABLE();
 800087a:	4b09      	ldr	r3, [pc, #36]	@ (80008a0 <HAL_MspInit+0x44>)
 800087c:	6d9b      	ldr	r3, [r3, #88]	@ 0x58
 800087e:	4a08      	ldr	r2, [pc, #32]	@ (80008a0 <HAL_MspInit+0x44>)
 8000880:	f043 5380 	orr.w	r3, r3, #268435456	@ 0x10000000
 8000884:	6593      	str	r3, [r2, #88]	@ 0x58
 8000886:	4b06      	ldr	r3, [pc, #24]	@ (80008a0 <HAL_MspInit+0x44>)
 8000888:	6d9b      	ldr	r3, [r3, #88]	@ 0x58
 800088a:	f003 5380 	and.w	r3, r3, #268435456	@ 0x10000000
 800088e:	603b      	str	r3, [r7, #0]
 8000890:	683b      	ldr	r3, [r7, #0]

  /* System interrupt init*/

  /** Disable the internal Pull-Up in Dead Battery pins of UCPD peripheral
  */
  HAL_PWREx_DisableUCPDDeadBattery();
 8000892:	f002 fa37 	bl	8002d04 <HAL_PWREx_DisableUCPDDeadBattery>

  /* USER CODE BEGIN MspInit 1 */

  /* USER CODE END MspInit 1 */
}
 8000896:	bf00      	nop
 8000898:	3708      	adds	r7, #8
 800089a:	46bd      	mov	sp, r7
 800089c:	bd80      	pop	{r7, pc}
 800089e:	bf00      	nop
 80008a0:	40021000 	.word	0x40021000

080008a4 <HAL_SPI_MspInit>:
  * This function configures the hardware resources used in this example
  * @param hspi: SPI handle pointer
  * @retval None
  */
void HAL_SPI_MspInit(SPI_HandleTypeDef* hspi)
{
 80008a4:	b580      	push	{r7, lr}
 80008a6:	b08a      	sub	sp, #40	@ 0x28
 80008a8:	af00      	add	r7, sp, #0
 80008aa:	6078      	str	r0, [r7, #4]
  GPIO_InitTypeDef GPIO_InitStruct = {0};
 80008ac:	f107 0314 	add.w	r3, r7, #20
 80008b0:	2200      	movs	r2, #0
 80008b2:	601a      	str	r2, [r3, #0]
 80008b4:	605a      	str	r2, [r3, #4]
 80008b6:	609a      	str	r2, [r3, #8]
 80008b8:	60da      	str	r2, [r3, #12]
 80008ba:	611a      	str	r2, [r3, #16]
  if(hspi->Instance==SPI1)
 80008bc:	687b      	ldr	r3, [r7, #4]
 80008be:	681b      	ldr	r3, [r3, #0]
 80008c0:	4a17      	ldr	r2, [pc, #92]	@ (8000920 <HAL_SPI_MspInit+0x7c>)
 80008c2:	4293      	cmp	r3, r2
 80008c4:	d128      	bne.n	8000918 <HAL_SPI_MspInit+0x74>
  {
    /* USER CODE BEGIN SPI1_MspInit 0 */

    /* USER CODE END SPI1_MspInit 0 */
    /* Peripheral clock enable */
    __HAL_RCC_SPI1_CLK_ENABLE();
 80008c6:	4b17      	ldr	r3, [pc, #92]	@ (8000924 <HAL_SPI_MspInit+0x80>)
 80008c8:	6e1b      	ldr	r3, [r3, #96]	@ 0x60
 80008ca:	4a16      	ldr	r2, [pc, #88]	@ (8000924 <HAL_SPI_MspInit+0x80>)
 80008cc:	f443 5380 	orr.w	r3, r3, #4096	@ 0x1000
 80008d0:	6613      	str	r3, [r2, #96]	@ 0x60
 80008d2:	4b14      	ldr	r3, [pc, #80]	@ (8000924 <HAL_SPI_MspInit+0x80>)
 80008d4:	6e1b      	ldr	r3, [r3, #96]	@ 0x60
 80008d6:	f403 5380 	and.w	r3, r3, #4096	@ 0x1000
 80008da:	613b      	str	r3, [r7, #16]
 80008dc:	693b      	ldr	r3, [r7, #16]

    __HAL_RCC_GPIOA_CLK_ENABLE();
 80008de:	4b11      	ldr	r3, [pc, #68]	@ (8000924 <HAL_SPI_MspInit+0x80>)
 80008e0:	6cdb      	ldr	r3, [r3, #76]	@ 0x4c
 80008e2:	4a10      	ldr	r2, [pc, #64]	@ (8000924 <HAL_SPI_MspInit+0x80>)
 80008e4:	f043 0301 	orr.w	r3, r3, #1
 80008e8:	64d3      	str	r3, [r2, #76]	@ 0x4c
 80008ea:	4b0e      	ldr	r3, [pc, #56]	@ (8000924 <HAL_SPI_MspInit+0x80>)
 80008ec:	6cdb      	ldr	r3, [r3, #76]	@ 0x4c
 80008ee:	f003 0301 	and.w	r3, r3, #1
 80008f2:	60fb      	str	r3, [r7, #12]
 80008f4:	68fb      	ldr	r3, [r7, #12]
    /**SPI1 GPIO Configuration
    PA5     ------> SPI1_SCK
    PA6     ------> SPI1_MISO
    PA7     ------> SPI1_MOSI
    */
    GPIO_InitStruct.Pin = GPIO_PIN_5|GPIO_PIN_6|GPIO_PIN_7;
 80008f6:	23e0      	movs	r3, #224	@ 0xe0
 80008f8:	617b      	str	r3, [r7, #20]
    GPIO_InitStruct.Mode = GPIO_MODE_AF_PP;
 80008fa:	2302      	movs	r3, #2
 80008fc:	61bb      	str	r3, [r7, #24]
    GPIO_InitStruct.Pull = GPIO_NOPULL;
 80008fe:	2300      	movs	r3, #0
 8000900:	61fb      	str	r3, [r7, #28]
    GPIO_InitStruct.Speed = GPIO_SPEED_FREQ_LOW;
 8000902:	2300      	movs	r3, #0
 8000904:	623b      	str	r3, [r7, #32]
    GPIO_InitStruct.Alternate = GPIO_AF5_SPI1;
 8000906:	2305      	movs	r3, #5
 8000908:	627b      	str	r3, [r7, #36]	@ 0x24
    HAL_GPIO_Init(GPIOA, &GPIO_InitStruct);
 800090a:	f107 0314 	add.w	r3, r7, #20
 800090e:	4619      	mov	r1, r3
 8000910:	f04f 4090 	mov.w	r0, #1207959552	@ 0x48000000
 8000914:	f001 ffae 	bl	8002874 <HAL_GPIO_Init>

    /* USER CODE END SPI1_MspInit 1 */

  }

}
 8000918:	bf00      	nop
 800091a:	3728      	adds	r7, #40	@ 0x28
 800091c:	46bd      	mov	sp, r7
 800091e:	bd80      	pop	{r7, pc}
 8000920:	40013000 	.word	0x40013000
 8000924:	40021000 	.word	0x40021000

08000928 <NMI_Handler>:
/******************************************************************************/
/**
  * @brief This function handles Non maskable interrupt.
  */
void NMI_Handler(void)
{
 8000928:	b480      	push	{r7}
 800092a:	af00      	add	r7, sp, #0
  /* USER CODE BEGIN NonMaskableInt_IRQn 0 */

  /* USER CODE END NonMaskableInt_IRQn 0 */
  /* USER CODE BEGIN NonMaskableInt_IRQn 1 */
   while (1)
 800092c:	bf00      	nop
 800092e:	e7fd      	b.n	800092c <NMI_Handler+0x4>

08000930 <HardFault_Handler>:

/**
  * @brief This function handles Hard fault interrupt.
  */
void HardFault_Handler(void)
{
 8000930:	b480      	push	{r7}
 8000932:	af00      	add	r7, sp, #0
  /* USER CODE BEGIN HardFault_IRQn 0 */

  /* USER CODE END HardFault_IRQn 0 */
  while (1)
 8000934:	bf00      	nop
 8000936:	e7fd      	b.n	8000934 <HardFault_Handler+0x4>

08000938 <MemManage_Handler>:

/**
  * @brief This function handles Memory management fault.
  */
void MemManage_Handler(void)
{
 8000938:	b480      	push	{r7}
 800093a:	af00      	add	r7, sp, #0
  /* USER CODE BEGIN MemoryManagement_IRQn 0 */

  /* USER CODE END MemoryManagement_IRQn 0 */
  while (1)
 800093c:	bf00      	nop
 800093e:	e7fd      	b.n	800093c <MemManage_Handler+0x4>

08000940 <BusFault_Handler>:

/**
  * @brief This function handles Prefetch fault, memory access fault.
  */
void BusFault_Handler(void)
{
 8000940:	b480      	push	{r7}
 8000942:	af00      	add	r7, sp, #0
  /* USER CODE BEGIN BusFault_IRQn 0 */

  /* USER CODE END BusFault_IRQn 0 */
  while (1)
 8000944:	bf00      	nop
 8000946:	e7fd      	b.n	8000944 <BusFault_Handler+0x4>

08000948 <UsageFault_Handler>:

/**
  * @brief This function handles Undefined instruction or illegal state.
  */
void UsageFault_Handler(void)
{
 8000948:	b480      	push	{r7}
 800094a:	af00      	add	r7, sp, #0
  /* USER CODE BEGIN UsageFault_IRQn 0 */

  /* USER CODE END UsageFault_IRQn 0 */
  while (1)
 800094c:	bf00      	nop
 800094e:	e7fd      	b.n	800094c <UsageFault_Handler+0x4>

08000950 <SVC_Handler>:

/**
  * @brief This function handles System service call via SWI instruction.
  */
void SVC_Handler(void)
{
 8000950:	b480      	push	{r7}
 8000952:	af00      	add	r7, sp, #0

  /* USER CODE END SVCall_IRQn 0 */
  /* USER CODE BEGIN SVCall_IRQn 1 */

  /* USER CODE END SVCall_IRQn 1 */
}
 8000954:	bf00      	nop
 8000956:	46bd      	mov	sp, r7
 8000958:	f85d 7b04 	ldr.w	r7, [sp], #4
 800095c:	4770      	bx	lr

0800095e <DebugMon_Handler>:

/**
  * @brief This function handles Debug monitor.
  */
void DebugMon_Handler(void)
{
 800095e:	b480      	push	{r7}
 8000960:	af00      	add	r7, sp, #0

  /* USER CODE END DebugMonitor_IRQn 0 */
  /* USER CODE BEGIN DebugMonitor_IRQn 1 */

  /* USER CODE END DebugMonitor_IRQn 1 */
}
 8000962:	bf00      	nop
 8000964:	46bd      	mov	sp, r7
 8000966:	f85d 7b04 	ldr.w	r7, [sp], #4
 800096a:	4770      	bx	lr

0800096c <PendSV_Handler>:

/**
  * @brief This function handles Pendable request for system service.
  */
void PendSV_Handler(void)
{
 800096c:	b480      	push	{r7}
 800096e:	af00      	add	r7, sp, #0

  /* USER CODE END PendSV_IRQn 0 */
  /* USER CODE BEGIN PendSV_IRQn 1 */

  /* USER CODE END PendSV_IRQn 1 */
}
 8000970:	bf00      	nop
 8000972:	46bd      	mov	sp, r7
 8000974:	f85d 7b04 	ldr.w	r7, [sp], #4
 8000978:	4770      	bx	lr

0800097a <SysTick_Handler>:

/**
  * @brief This function handles System tick timer.
  */
void SysTick_Handler(void)
{
 800097a:	b580      	push	{r7, lr}
 800097c:	af00      	add	r7, sp, #0
  /* USER CODE BEGIN SysTick_IRQn 0 */

  /* USER CODE END SysTick_IRQn 0 */
  HAL_IncTick();
 800097e:	f001 fe55 	bl	800262c <HAL_IncTick>
  /* USER CODE BEGIN SysTick_IRQn 1 */

  /* USER CODE END SysTick_IRQn 1 */
}
 8000982:	bf00      	nop
 8000984:	bd80      	pop	{r7, pc}
	...

08000988 <_sbrk>:
 *
 * @param incr Memory size
 * @return Pointer to allocated memory
 */
void *_sbrk(ptrdiff_t incr)
{
 8000988:	b580      	push	{r7, lr}
 800098a:	b086      	sub	sp, #24
 800098c:	af00      	add	r7, sp, #0
 800098e:	6078      	str	r0, [r7, #4]
  extern uint8_t _end; /* Symbol defined in the linker script */
  extern uint8_t _estack; /* Symbol defined in the linker script */
  extern uint32_t _Min_Stack_Size; /* Symbol defined in the linker script */
  const uint32_t stack_limit = (uint32_t)&_estack - (uint32_t)&_Min_Stack_Size;
 8000990:	4a14      	ldr	r2, [pc, #80]	@ (80009e4 <_sbrk+0x5c>)
 8000992:	4b15      	ldr	r3, [pc, #84]	@ (80009e8 <_sbrk+0x60>)
 8000994:	1ad3      	subs	r3, r2, r3
 8000996:	617b      	str	r3, [r7, #20]
  const uint8_t *max_heap = (uint8_t *)stack_limit;
 8000998:	697b      	ldr	r3, [r7, #20]
 800099a:	613b      	str	r3, [r7, #16]
  uint8_t *prev_heap_end;

  /* Initialize heap end at first call */
  if (NULL == __sbrk_heap_end)
 800099c:	4b13      	ldr	r3, [pc, #76]	@ (80009ec <_sbrk+0x64>)
 800099e:	681b      	ldr	r3, [r3, #0]
 80009a0:	2b00      	cmp	r3, #0
 80009a2:	d102      	bne.n	80009aa <_sbrk+0x22>
  {
    __sbrk_heap_end = &_end;
 80009a4:	4b11      	ldr	r3, [pc, #68]	@ (80009ec <_sbrk+0x64>)
 80009a6:	4a12      	ldr	r2, [pc, #72]	@ (80009f0 <_sbrk+0x68>)
 80009a8:	601a      	str	r2, [r3, #0]
  }

  /* Protect heap from growing into the reserved MSP stack */
  if (__sbrk_heap_end + incr > max_heap)
 80009aa:	4b10      	ldr	r3, [pc, #64]	@ (80009ec <_sbrk+0x64>)
 80009ac:	681a      	ldr	r2, [r3, #0]
 80009ae:	687b      	ldr	r3, [r7, #4]
 80009b0:	4413      	add	r3, r2
 80009b2:	693a      	ldr	r2, [r7, #16]
 80009b4:	429a      	cmp	r2, r3
 80009b6:	d207      	bcs.n	80009c8 <_sbrk+0x40>
  {
    errno = ENOMEM;
 80009b8:	f003 fa5a 	bl	8003e70 <__errno>
 80009bc:	4603      	mov	r3, r0
 80009be:	220c      	movs	r2, #12
 80009c0:	601a      	str	r2, [r3, #0]
    return (void *)-1;
 80009c2:	f04f 33ff 	mov.w	r3, #4294967295
 80009c6:	e009      	b.n	80009dc <_sbrk+0x54>
  }

  prev_heap_end = __sbrk_heap_end;
 80009c8:	4b08      	ldr	r3, [pc, #32]	@ (80009ec <_sbrk+0x64>)
 80009ca:	681b      	ldr	r3, [r3, #0]
 80009cc:	60fb      	str	r3, [r7, #12]
  __sbrk_heap_end += incr;
 80009ce:	4b07      	ldr	r3, [pc, #28]	@ (80009ec <_sbrk+0x64>)
 80009d0:	681a      	ldr	r2, [r3, #0]
 80009d2:	687b      	ldr	r3, [r7, #4]
 80009d4:	4413      	add	r3, r2
 80009d6:	4a05      	ldr	r2, [pc, #20]	@ (80009ec <_sbrk+0x64>)
 80009d8:	6013      	str	r3, [r2, #0]

  return (void *)prev_heap_end;
 80009da:	68fb      	ldr	r3, [r7, #12]
}
 80009dc:	4618      	mov	r0, r3
 80009de:	3718      	adds	r7, #24
 80009e0:	46bd      	mov	sp, r7
 80009e2:	bd80      	pop	{r7, pc}
 80009e4:	20008000 	.word	0x20008000
 80009e8:	00000400 	.word	0x00000400
 80009ec:	20000174 	.word	0x20000174
 80009f0:	200006c8 	.word	0x200006c8

080009f4 <SystemInit>:
  * @param  None
  * @retval None
  */

void SystemInit(void)
{
 80009f4:	b480      	push	{r7}
 80009f6:	af00      	add	r7, sp, #0
  /* FPU settings ------------------------------------------------------------*/
  #if (__FPU_PRESENT == 1) && (__FPU_USED == 1)
    SCB->CPACR |= ((3UL << (10*2))|(3UL << (11*2)));  /* set CP10 and CP11 Full Access */
 80009f8:	4b06      	ldr	r3, [pc, #24]	@ (8000a14 <SystemInit+0x20>)
 80009fa:	f8d3 3088 	ldr.w	r3, [r3, #136]	@ 0x88
 80009fe:	4a05      	ldr	r2, [pc, #20]	@ (8000a14 <SystemInit+0x20>)
 8000a00:	f443 0370 	orr.w	r3, r3, #15728640	@ 0xf00000
 8000a04:	f8c2 3088 	str.w	r3, [r2, #136]	@ 0x88

  /* Configure the Vector Table location add offset address ------------------*/
#if defined(USER_VECT_TAB_ADDRESS)
  SCB->VTOR = VECT_TAB_BASE_ADDRESS | VECT_TAB_OFFSET; /* Vector Table Relocation in Internal SRAM */
#endif /* USER_VECT_TAB_ADDRESS */
}
 8000a08:	bf00      	nop
 8000a0a:	46bd      	mov	sp, r7
 8000a0c:	f85d 7b04 	ldr.w	r7, [sp], #4
 8000a10:	4770      	bx	lr
 8000a12:	bf00      	nop
 8000a14:	e000ed00 	.word	0xe000ed00

08000a18 <Reset_Handler>:

    .section	.text.Reset_Handler
	.weak	Reset_Handler
	.type	Reset_Handler, %function
Reset_Handler:
  ldr   r0, =_estack
 8000a18:	480d      	ldr	r0, [pc, #52]	@ (8000a50 <LoopForever+0x2>)
  mov   sp, r0          /* set stack pointer */
 8000a1a:	4685      	mov	sp, r0
  
/* Call the clock system initialization function.*/
    bl  SystemInit
 8000a1c:	f7ff ffea 	bl	80009f4 <SystemInit>

/* Copy the data segment initializers from flash to SRAM */
  ldr r0, =_sdata
 8000a20:	480c      	ldr	r0, [pc, #48]	@ (8000a54 <LoopForever+0x6>)
  ldr r1, =_edata
 8000a22:	490d      	ldr	r1, [pc, #52]	@ (8000a58 <LoopForever+0xa>)
  ldr r2, =_sidata
 8000a24:	4a0d      	ldr	r2, [pc, #52]	@ (8000a5c <LoopForever+0xe>)
  movs r3, #0
 8000a26:	2300      	movs	r3, #0
  b	LoopCopyDataInit
 8000a28:	e002      	b.n	8000a30 <LoopCopyDataInit>

08000a2a <CopyDataInit>:

CopyDataInit:
  ldr r4, [r2, r3]
 8000a2a:	58d4      	ldr	r4, [r2, r3]
  str r4, [r0, r3]
 8000a2c:	50c4      	str	r4, [r0, r3]
  adds r3, r3, #4
 8000a2e:	3304      	adds	r3, #4

08000a30 <LoopCopyDataInit>:

LoopCopyDataInit:
  adds r4, r0, r3
 8000a30:	18c4      	adds	r4, r0, r3
  cmp r4, r1
 8000a32:	428c      	cmp	r4, r1
  bcc CopyDataInit
 8000a34:	d3f9      	bcc.n	8000a2a <CopyDataInit>
  
/* Zero fill the bss segment. */
  ldr r2, =_sbss
 8000a36:	4a0a      	ldr	r2, [pc, #40]	@ (8000a60 <LoopForever+0x12>)
  ldr r4, =_ebss
 8000a38:	4c0a      	ldr	r4, [pc, #40]	@ (8000a64 <LoopForever+0x16>)
  movs r3, #0
 8000a3a:	2300      	movs	r3, #0
  b LoopFillZerobss
 8000a3c:	e001      	b.n	8000a42 <LoopFillZerobss>

08000a3e <FillZerobss>:

FillZerobss:
  str  r3, [r2]
 8000a3e:	6013      	str	r3, [r2, #0]
  adds r2, r2, #4
 8000a40:	3204      	adds	r2, #4

08000a42 <LoopFillZerobss>:

LoopFillZerobss:
  cmp r2, r4
 8000a42:	42a2      	cmp	r2, r4
  bcc FillZerobss
 8000a44:	d3fb      	bcc.n	8000a3e <FillZerobss>
/* Call static constructors */
    bl __libc_init_array
 8000a46:	f003 fa19 	bl	8003e7c <__libc_init_array>
/* Call the application's entry point.*/
	bl	main
 8000a4a:	f7ff fc39 	bl	80002c0 <main>

08000a4e <LoopForever>:

LoopForever:
    b LoopForever
 8000a4e:	e7fe      	b.n	8000a4e <LoopForever>
  ldr   r0, =_estack
 8000a50:	20008000 	.word	0x20008000
  ldr r0, =_sdata
 8000a54:	20000000 	.word	0x20000000
  ldr r1, =_edata
 8000a58:	2000005c 	.word	0x2000005c
  ldr r2, =_sidata
 8000a5c:	0800512c 	.word	0x0800512c
  ldr r2, =_sbss
 8000a60:	2000005c 	.word	0x2000005c
  ldr r4, =_ebss
 8000a64:	200006c4 	.word	0x200006c4

08000a68 <ADC1_2_IRQHandler>:
 * @retval : None
*/
    .section	.text.Default_Handler,"ax",%progbits
Default_Handler:
Infinite_Loop:
	b	Infinite_Loop
 8000a68:	e7fe      	b.n	8000a68 <ADC1_2_IRQHandler>

08000a6a <u8g2_DrawBox>:
/*
  draw a filled box
  restriction: does not work for w = 0 or h = 0
*/
void u8g2_DrawBox(u8g2_t *u8g2, u8g2_uint_t x, u8g2_uint_t y, u8g2_uint_t w, u8g2_uint_t h)
{
 8000a6a:	b580      	push	{r7, lr}
 8000a6c:	b086      	sub	sp, #24
 8000a6e:	af02      	add	r7, sp, #8
 8000a70:	60f8      	str	r0, [r7, #12]
 8000a72:	4608      	mov	r0, r1
 8000a74:	4611      	mov	r1, r2
 8000a76:	461a      	mov	r2, r3
 8000a78:	4603      	mov	r3, r0
 8000a7a:	817b      	strh	r3, [r7, #10]
 8000a7c:	460b      	mov	r3, r1
 8000a7e:	813b      	strh	r3, [r7, #8]
 8000a80:	4613      	mov	r3, r2
 8000a82:	80fb      	strh	r3, [r7, #6]
#ifdef U8G2_WITH_INTERSECTION
  if ( u8g2_IsIntersection(u8g2, x, y, x+w, y+h) == 0 ) 
 8000a84:	897a      	ldrh	r2, [r7, #10]
 8000a86:	88fb      	ldrh	r3, [r7, #6]
 8000a88:	4413      	add	r3, r2
 8000a8a:	b298      	uxth	r0, r3
 8000a8c:	893a      	ldrh	r2, [r7, #8]
 8000a8e:	8b3b      	ldrh	r3, [r7, #24]
 8000a90:	4413      	add	r3, r2
 8000a92:	b29b      	uxth	r3, r3
 8000a94:	893a      	ldrh	r2, [r7, #8]
 8000a96:	8979      	ldrh	r1, [r7, #10]
 8000a98:	9300      	str	r3, [sp, #0]
 8000a9a:	4603      	mov	r3, r0
 8000a9c:	68f8      	ldr	r0, [r7, #12]
 8000a9e:	f001 f800 	bl	8001aa2 <u8g2_IsIntersection>
 8000aa2:	4603      	mov	r3, r0
 8000aa4:	2b00      	cmp	r3, #0
 8000aa6:	d012      	beq.n	8000ace <u8g2_DrawBox+0x64>
    return;
#endif /* U8G2_WITH_INTERSECTION */
  while( h != 0 )
 8000aa8:	e00d      	b.n	8000ac6 <u8g2_DrawBox+0x5c>
  { 
    u8g2_DrawHVLine(u8g2, x, y, w, 0);
 8000aaa:	88fb      	ldrh	r3, [r7, #6]
 8000aac:	893a      	ldrh	r2, [r7, #8]
 8000aae:	8979      	ldrh	r1, [r7, #10]
 8000ab0:	2000      	movs	r0, #0
 8000ab2:	9000      	str	r0, [sp, #0]
 8000ab4:	68f8      	ldr	r0, [r7, #12]
 8000ab6:	f000 ff36 	bl	8001926 <u8g2_DrawHVLine>
    y++;    
 8000aba:	893b      	ldrh	r3, [r7, #8]
 8000abc:	3301      	adds	r3, #1
 8000abe:	813b      	strh	r3, [r7, #8]
    h--;
 8000ac0:	8b3b      	ldrh	r3, [r7, #24]
 8000ac2:	3b01      	subs	r3, #1
 8000ac4:	833b      	strh	r3, [r7, #24]
  while( h != 0 )
 8000ac6:	8b3b      	ldrh	r3, [r7, #24]
 8000ac8:	2b00      	cmp	r3, #0
 8000aca:	d1ee      	bne.n	8000aaa <u8g2_DrawBox+0x40>
 8000acc:	e000      	b.n	8000ad0 <u8g2_DrawBox+0x66>
    return;
 8000ace:	bf00      	nop
  }
}
 8000ad0:	3710      	adds	r7, #16
 8000ad2:	46bd      	mov	sp, r7
 8000ad4:	bd80      	pop	{r7, pc}

08000ad6 <u8g2_DrawFrame>:
/*
  draw a frame (empty box)
  restriction: does not work for w = 0 or h = 0
*/
void u8g2_DrawFrame(u8g2_t *u8g2, u8g2_uint_t x, u8g2_uint_t y, u8g2_uint_t w, u8g2_uint_t h)
{
 8000ad6:	b580      	push	{r7, lr}
 8000ad8:	b088      	sub	sp, #32
 8000ada:	af02      	add	r7, sp, #8
 8000adc:	60f8      	str	r0, [r7, #12]
 8000ade:	4608      	mov	r0, r1
 8000ae0:	4611      	mov	r1, r2
 8000ae2:	461a      	mov	r2, r3
 8000ae4:	4603      	mov	r3, r0
 8000ae6:	817b      	strh	r3, [r7, #10]
 8000ae8:	460b      	mov	r3, r1
 8000aea:	813b      	strh	r3, [r7, #8]
 8000aec:	4613      	mov	r3, r2
 8000aee:	80fb      	strh	r3, [r7, #6]
  u8g2_uint_t xtmp = x;
 8000af0:	897b      	ldrh	r3, [r7, #10]
 8000af2:	82fb      	strh	r3, [r7, #22]
  
#ifdef U8G2_WITH_INTERSECTION
  if ( u8g2_IsIntersection(u8g2, x, y, x+w, y+h) == 0 ) 
 8000af4:	897a      	ldrh	r2, [r7, #10]
 8000af6:	88fb      	ldrh	r3, [r7, #6]
 8000af8:	4413      	add	r3, r2
 8000afa:	b298      	uxth	r0, r3
 8000afc:	893a      	ldrh	r2, [r7, #8]
 8000afe:	8c3b      	ldrh	r3, [r7, #32]
 8000b00:	4413      	add	r3, r2
 8000b02:	b29b      	uxth	r3, r3
 8000b04:	893a      	ldrh	r2, [r7, #8]
 8000b06:	8979      	ldrh	r1, [r7, #10]
 8000b08:	9300      	str	r3, [sp, #0]
 8000b0a:	4603      	mov	r3, r0
 8000b0c:	68f8      	ldr	r0, [r7, #12]
 8000b0e:	f000 ffc8 	bl	8001aa2 <u8g2_IsIntersection>
 8000b12:	4603      	mov	r3, r0
 8000b14:	2b00      	cmp	r3, #0
 8000b16:	d037      	beq.n	8000b88 <u8g2_DrawFrame+0xb2>
    return;
#endif /* U8G2_WITH_INTERSECTION */
  
  u8g2_DrawHVLine(u8g2, x, y, w, 0);
 8000b18:	88fb      	ldrh	r3, [r7, #6]
 8000b1a:	893a      	ldrh	r2, [r7, #8]
 8000b1c:	8979      	ldrh	r1, [r7, #10]
 8000b1e:	2000      	movs	r0, #0
 8000b20:	9000      	str	r0, [sp, #0]
 8000b22:	68f8      	ldr	r0, [r7, #12]
 8000b24:	f000 feff 	bl	8001926 <u8g2_DrawHVLine>
  if (h >= 2) {
 8000b28:	8c3b      	ldrh	r3, [r7, #32]
 8000b2a:	2b01      	cmp	r3, #1
 8000b2c:	d92d      	bls.n	8000b8a <u8g2_DrawFrame+0xb4>
    h-=2;
 8000b2e:	8c3b      	ldrh	r3, [r7, #32]
 8000b30:	3b02      	subs	r3, #2
 8000b32:	843b      	strh	r3, [r7, #32]
    y++;
 8000b34:	893b      	ldrh	r3, [r7, #8]
 8000b36:	3301      	adds	r3, #1
 8000b38:	813b      	strh	r3, [r7, #8]
    if (h > 0) {
 8000b3a:	8c3b      	ldrh	r3, [r7, #32]
 8000b3c:	2b00      	cmp	r3, #0
 8000b3e:	d01a      	beq.n	8000b76 <u8g2_DrawFrame+0xa0>
      u8g2_DrawHVLine(u8g2, x, y, h, 1);
 8000b40:	8c3b      	ldrh	r3, [r7, #32]
 8000b42:	893a      	ldrh	r2, [r7, #8]
 8000b44:	8979      	ldrh	r1, [r7, #10]
 8000b46:	2001      	movs	r0, #1
 8000b48:	9000      	str	r0, [sp, #0]
 8000b4a:	68f8      	ldr	r0, [r7, #12]
 8000b4c:	f000 feeb 	bl	8001926 <u8g2_DrawHVLine>
      x+=w;
 8000b50:	897a      	ldrh	r2, [r7, #10]
 8000b52:	88fb      	ldrh	r3, [r7, #6]
 8000b54:	4413      	add	r3, r2
 8000b56:	817b      	strh	r3, [r7, #10]
      x--;
 8000b58:	897b      	ldrh	r3, [r7, #10]
 8000b5a:	3b01      	subs	r3, #1
 8000b5c:	817b      	strh	r3, [r7, #10]
      u8g2_DrawHVLine(u8g2, x, y, h, 1);
 8000b5e:	8c3b      	ldrh	r3, [r7, #32]
 8000b60:	893a      	ldrh	r2, [r7, #8]
 8000b62:	8979      	ldrh	r1, [r7, #10]
 8000b64:	2001      	movs	r0, #1
 8000b66:	9000      	str	r0, [sp, #0]
 8000b68:	68f8      	ldr	r0, [r7, #12]
 8000b6a:	f000 fedc 	bl	8001926 <u8g2_DrawHVLine>
      y+=h;
 8000b6e:	893a      	ldrh	r2, [r7, #8]
 8000b70:	8c3b      	ldrh	r3, [r7, #32]
 8000b72:	4413      	add	r3, r2
 8000b74:	813b      	strh	r3, [r7, #8]
    }
    u8g2_DrawHVLine(u8g2, xtmp, y, w, 0);
 8000b76:	88fb      	ldrh	r3, [r7, #6]
 8000b78:	893a      	ldrh	r2, [r7, #8]
 8000b7a:	8af9      	ldrh	r1, [r7, #22]
 8000b7c:	2000      	movs	r0, #0
 8000b7e:	9000      	str	r0, [sp, #0]
 8000b80:	68f8      	ldr	r0, [r7, #12]
 8000b82:	f000 fed0 	bl	8001926 <u8g2_DrawHVLine>
 8000b86:	e000      	b.n	8000b8a <u8g2_DrawFrame+0xb4>
    return;
 8000b88:	bf00      	nop
  }
}
 8000b8a:	3718      	adds	r7, #24
 8000b8c:	46bd      	mov	sp, r7
 8000b8e:	bd80      	pop	{r7, pc}

08000b90 <u8g2_ClearBuffer>:
#include "u8g2.h"
#include <string.h>

/*============================================*/
void u8g2_ClearBuffer(u8g2_t *u8g2)
{
 8000b90:	b580      	push	{r7, lr}
 8000b92:	b084      	sub	sp, #16
 8000b94:	af00      	add	r7, sp, #0
 8000b96:	6078      	str	r0, [r7, #4]
  size_t cnt;
  cnt = u8g2_GetU8x8(u8g2)->display_info->tile_width;
 8000b98:	687b      	ldr	r3, [r7, #4]
 8000b9a:	681b      	ldr	r3, [r3, #0]
 8000b9c:	7c1b      	ldrb	r3, [r3, #16]
 8000b9e:	60fb      	str	r3, [r7, #12]
  cnt *= u8g2->tile_buf_height;
 8000ba0:	687b      	ldr	r3, [r7, #4]
 8000ba2:	f893 3038 	ldrb.w	r3, [r3, #56]	@ 0x38
 8000ba6:	461a      	mov	r2, r3
 8000ba8:	68fb      	ldr	r3, [r7, #12]
 8000baa:	fb02 f303 	mul.w	r3, r2, r3
 8000bae:	60fb      	str	r3, [r7, #12]
  cnt *= 8;
 8000bb0:	68fb      	ldr	r3, [r7, #12]
 8000bb2:	00db      	lsls	r3, r3, #3
 8000bb4:	60fb      	str	r3, [r7, #12]
  memset(u8g2->tile_buf_ptr, 0, cnt);
 8000bb6:	687b      	ldr	r3, [r7, #4]
 8000bb8:	6b5b      	ldr	r3, [r3, #52]	@ 0x34
 8000bba:	68fa      	ldr	r2, [r7, #12]
 8000bbc:	2100      	movs	r1, #0
 8000bbe:	4618      	mov	r0, r3
 8000bc0:	f003 f94e 	bl	8003e60 <memset>
}
 8000bc4:	bf00      	nop
 8000bc6:	3710      	adds	r7, #16
 8000bc8:	46bd      	mov	sp, r7
 8000bca:	bd80      	pop	{r7, pc}

08000bcc <u8g2_send_tile_row>:

/*============================================*/

static void u8g2_send_tile_row(u8g2_t *u8g2, uint8_t src_tile_row, uint8_t dest_tile_row)
{
 8000bcc:	b580      	push	{r7, lr}
 8000bce:	b086      	sub	sp, #24
 8000bd0:	af02      	add	r7, sp, #8
 8000bd2:	6078      	str	r0, [r7, #4]
 8000bd4:	460b      	mov	r3, r1
 8000bd6:	70fb      	strb	r3, [r7, #3]
 8000bd8:	4613      	mov	r3, r2
 8000bda:	70bb      	strb	r3, [r7, #2]
  uint8_t *ptr;
  uint16_t offset;
  uint8_t w;
  
  w = u8g2_GetU8x8(u8g2)->display_info->tile_width;
 8000bdc:	687b      	ldr	r3, [r7, #4]
 8000bde:	681b      	ldr	r3, [r3, #0]
 8000be0:	7c1b      	ldrb	r3, [r3, #16]
 8000be2:	73fb      	strb	r3, [r7, #15]
  offset = src_tile_row;
 8000be4:	78fb      	ldrb	r3, [r7, #3]
 8000be6:	81bb      	strh	r3, [r7, #12]
  ptr = u8g2->tile_buf_ptr;
 8000be8:	687b      	ldr	r3, [r7, #4]
 8000bea:	6b5b      	ldr	r3, [r3, #52]	@ 0x34
 8000bec:	60bb      	str	r3, [r7, #8]
  offset *= w;
 8000bee:	7bfb      	ldrb	r3, [r7, #15]
 8000bf0:	b29b      	uxth	r3, r3
 8000bf2:	89ba      	ldrh	r2, [r7, #12]
 8000bf4:	fb12 f303 	smulbb	r3, r2, r3
 8000bf8:	81bb      	strh	r3, [r7, #12]
  offset *= 8;
 8000bfa:	89bb      	ldrh	r3, [r7, #12]
 8000bfc:	00db      	lsls	r3, r3, #3
 8000bfe:	81bb      	strh	r3, [r7, #12]
  ptr += offset;
 8000c00:	89bb      	ldrh	r3, [r7, #12]
 8000c02:	68ba      	ldr	r2, [r7, #8]
 8000c04:	4413      	add	r3, r2
 8000c06:	60bb      	str	r3, [r7, #8]
  u8x8_DrawTile(u8g2_GetU8x8(u8g2), 0, dest_tile_row, w, ptr);
 8000c08:	7bf9      	ldrb	r1, [r7, #15]
 8000c0a:	78ba      	ldrb	r2, [r7, #2]
 8000c0c:	68bb      	ldr	r3, [r7, #8]
 8000c0e:	9300      	str	r3, [sp, #0]
 8000c10:	460b      	mov	r3, r1
 8000c12:	2100      	movs	r1, #0
 8000c14:	6878      	ldr	r0, [r7, #4]
 8000c16:	f001 fbe8 	bl	80023ea <u8x8_DrawTile>
}
 8000c1a:	bf00      	nop
 8000c1c:	3710      	adds	r7, #16
 8000c1e:	46bd      	mov	sp, r7
 8000c20:	bd80      	pop	{r7, pc}

08000c22 <u8g2_send_buffer>:
  For most displays, this will make the content visible to the user.
  Some displays (like the SSD1606) require a u8x8_RefreshDisplay()
*/
static void u8g2_send_buffer(u8g2_t *u8g2) U8X8_NOINLINE;
static void u8g2_send_buffer(u8g2_t *u8g2)
{
 8000c22:	b580      	push	{r7, lr}
 8000c24:	b084      	sub	sp, #16
 8000c26:	af00      	add	r7, sp, #0
 8000c28:	6078      	str	r0, [r7, #4]
  uint8_t src_row;
  uint8_t src_max;
  uint8_t dest_row;
  uint8_t dest_max;

  src_row = 0;
 8000c2a:	2300      	movs	r3, #0
 8000c2c:	73fb      	strb	r3, [r7, #15]
  src_max = u8g2->tile_buf_height;
 8000c2e:	687b      	ldr	r3, [r7, #4]
 8000c30:	f893 3038 	ldrb.w	r3, [r3, #56]	@ 0x38
 8000c34:	737b      	strb	r3, [r7, #13]
  dest_row = u8g2->tile_curr_row;
 8000c36:	687b      	ldr	r3, [r7, #4]
 8000c38:	f893 3039 	ldrb.w	r3, [r3, #57]	@ 0x39
 8000c3c:	73bb      	strb	r3, [r7, #14]
  dest_max = u8g2_GetU8x8(u8g2)->display_info->tile_height;
 8000c3e:	687b      	ldr	r3, [r7, #4]
 8000c40:	681b      	ldr	r3, [r3, #0]
 8000c42:	7c5b      	ldrb	r3, [r3, #17]
 8000c44:	733b      	strb	r3, [r7, #12]
  
  do
  {
    u8g2_send_tile_row(u8g2, src_row, dest_row);
 8000c46:	7bba      	ldrb	r2, [r7, #14]
 8000c48:	7bfb      	ldrb	r3, [r7, #15]
 8000c4a:	4619      	mov	r1, r3
 8000c4c:	6878      	ldr	r0, [r7, #4]
 8000c4e:	f7ff ffbd 	bl	8000bcc <u8g2_send_tile_row>
    src_row++;
 8000c52:	7bfb      	ldrb	r3, [r7, #15]
 8000c54:	3301      	adds	r3, #1
 8000c56:	73fb      	strb	r3, [r7, #15]
    dest_row++;
 8000c58:	7bbb      	ldrb	r3, [r7, #14]
 8000c5a:	3301      	adds	r3, #1
 8000c5c:	73bb      	strb	r3, [r7, #14]
  } while( src_row < src_max && dest_row < dest_max );
 8000c5e:	7bfa      	ldrb	r2, [r7, #15]
 8000c60:	7b7b      	ldrb	r3, [r7, #13]
 8000c62:	429a      	cmp	r2, r3
 8000c64:	d203      	bcs.n	8000c6e <u8g2_send_buffer+0x4c>
 8000c66:	7bba      	ldrb	r2, [r7, #14]
 8000c68:	7b3b      	ldrb	r3, [r7, #12]
 8000c6a:	429a      	cmp	r2, r3
 8000c6c:	d3eb      	bcc.n	8000c46 <u8g2_send_buffer+0x24>
}
 8000c6e:	bf00      	nop
 8000c70:	3710      	adds	r7, #16
 8000c72:	46bd      	mov	sp, r7
 8000c74:	bd80      	pop	{r7, pc}

08000c76 <u8g2_SendBuffer>:

/* same as u8g2_send_buffer but also send the DISPLAY_REFRESH message (used by SSD1606) */
void u8g2_SendBuffer(u8g2_t *u8g2)
{
 8000c76:	b580      	push	{r7, lr}
 8000c78:	b082      	sub	sp, #8
 8000c7a:	af00      	add	r7, sp, #0
 8000c7c:	6078      	str	r0, [r7, #4]
  u8g2_send_buffer(u8g2);
 8000c7e:	6878      	ldr	r0, [r7, #4]
 8000c80:	f7ff ffcf 	bl	8000c22 <u8g2_send_buffer>
  u8x8_RefreshDisplay( u8g2_GetU8x8(u8g2) );  
 8000c84:	6878      	ldr	r0, [r7, #4]
 8000c86:	f001 fc01 	bl	800248c <u8x8_RefreshDisplay>
}
 8000c8a:	bf00      	nop
 8000c8c:	3708      	adds	r7, #8
 8000c8e:	46bd      	mov	sp, r7
 8000c90:	bd80      	pop	{r7, pc}
	...

08000c94 <u8g2_m_16_8_f>:
  *page_cnt = 2;
  return buf;
  #endif
}
uint8_t *u8g2_m_16_8_f(uint8_t *page_cnt)
{
 8000c94:	b480      	push	{r7}
 8000c96:	b083      	sub	sp, #12
 8000c98:	af00      	add	r7, sp, #0
 8000c9a:	6078      	str	r0, [r7, #4]
  #ifdef U8G2_USE_DYNAMIC_ALLOC
  *page_cnt = 8;
  return 0;
  #else
  static uint8_t buf[1024];
  *page_cnt = 8;
 8000c9c:	687b      	ldr	r3, [r7, #4]
 8000c9e:	2208      	movs	r2, #8
 8000ca0:	701a      	strb	r2, [r3, #0]
  return buf;
 8000ca2:	4b03      	ldr	r3, [pc, #12]	@ (8000cb0 <u8g2_m_16_8_f+0x1c>)
  #endif
}
 8000ca4:	4618      	mov	r0, r3
 8000ca6:	370c      	adds	r7, #12
 8000ca8:	46bd      	mov	sp, r7
 8000caa:	f85d 7b04 	ldr.w	r7, [sp], #4
 8000cae:	4770      	bx	lr
 8000cb0:	20000178 	.word	0x20000178

08000cb4 <u8g2_Setup_sh1106_128x64_noname_f>:
  buf = u8g2_m_16_8_2(&tile_buf_height);
  u8g2_SetupBuffer(u8g2, buf, tile_buf_height, u8g2_ll_hvline_vertical_top_lsb, rotation);
}
/* sh1106 f */
void u8g2_Setup_sh1106_128x64_noname_f(u8g2_t *u8g2, const u8g2_cb_t *rotation, u8x8_msg_cb byte_cb, u8x8_msg_cb gpio_and_delay_cb)
{
 8000cb4:	b580      	push	{r7, lr}
 8000cb6:	b088      	sub	sp, #32
 8000cb8:	af02      	add	r7, sp, #8
 8000cba:	60f8      	str	r0, [r7, #12]
 8000cbc:	60b9      	str	r1, [r7, #8]
 8000cbe:	607a      	str	r2, [r7, #4]
 8000cc0:	603b      	str	r3, [r7, #0]
  uint8_t tile_buf_height;
  uint8_t *buf;
  u8g2_SetupDisplay(u8g2, u8x8_d_sh1106_128x64_noname, u8x8_cad_001, byte_cb, gpio_and_delay_cb);
 8000cc2:	683b      	ldr	r3, [r7, #0]
 8000cc4:	9300      	str	r3, [sp, #0]
 8000cc6:	687b      	ldr	r3, [r7, #4]
 8000cc8:	4a0b      	ldr	r2, [pc, #44]	@ (8000cf8 <u8g2_Setup_sh1106_128x64_noname_f+0x44>)
 8000cca:	490c      	ldr	r1, [pc, #48]	@ (8000cfc <u8g2_Setup_sh1106_128x64_noname_f+0x48>)
 8000ccc:	68f8      	ldr	r0, [r7, #12]
 8000cce:	f001 fc3d 	bl	800254c <u8x8_Setup>
  buf = u8g2_m_16_8_f(&tile_buf_height);
 8000cd2:	f107 0313 	add.w	r3, r7, #19
 8000cd6:	4618      	mov	r0, r3
 8000cd8:	f7ff ffdc 	bl	8000c94 <u8g2_m_16_8_f>
 8000cdc:	6178      	str	r0, [r7, #20]
  u8g2_SetupBuffer(u8g2, buf, tile_buf_height, u8g2_ll_hvline_vertical_top_lsb, rotation);
 8000cde:	7cfa      	ldrb	r2, [r7, #19]
 8000ce0:	68bb      	ldr	r3, [r7, #8]
 8000ce2:	9300      	str	r3, [sp, #0]
 8000ce4:	4b06      	ldr	r3, [pc, #24]	@ (8000d00 <u8g2_Setup_sh1106_128x64_noname_f+0x4c>)
 8000ce6:	6979      	ldr	r1, [r7, #20]
 8000ce8:	68f8      	ldr	r0, [r7, #12]
 8000cea:	f000 ffc4 	bl	8001c76 <u8g2_SetupBuffer>
}
 8000cee:	bf00      	nop
 8000cf0:	3718      	adds	r7, #24
 8000cf2:	46bd      	mov	sp, r7
 8000cf4:	bd80      	pop	{r7, pc}
 8000cf6:	bf00      	nop
 8000cf8:	0800210d 	.word	0x0800210d
 8000cfc:	080022e5 	.word	0x080022e5
 8000d00:	08001af9 	.word	0x08001af9

08000d04 <u8g2_font_get_byte>:
/* low level byte and word access */

/* removed NOINLINE, because it leads to smaller code, might also be faster */
//static uint8_t u8g2_font_get_byte(const uint8_t *font, uint8_t offset) U8G2_NOINLINE;
static uint8_t u8g2_font_get_byte(const uint8_t *font, uint8_t offset)
{
 8000d04:	b480      	push	{r7}
 8000d06:	b083      	sub	sp, #12
 8000d08:	af00      	add	r7, sp, #0
 8000d0a:	6078      	str	r0, [r7, #4]
 8000d0c:	460b      	mov	r3, r1
 8000d0e:	70fb      	strb	r3, [r7, #3]
  font += offset;
 8000d10:	78fb      	ldrb	r3, [r7, #3]
 8000d12:	687a      	ldr	r2, [r7, #4]
 8000d14:	4413      	add	r3, r2
 8000d16:	607b      	str	r3, [r7, #4]
  return u8x8_pgm_read( font );  
 8000d18:	687b      	ldr	r3, [r7, #4]
 8000d1a:	781b      	ldrb	r3, [r3, #0]
}
 8000d1c:	4618      	mov	r0, r3
 8000d1e:	370c      	adds	r7, #12
 8000d20:	46bd      	mov	sp, r7
 8000d22:	f85d 7b04 	ldr.w	r7, [sp], #4
 8000d26:	4770      	bx	lr

08000d28 <u8g2_font_get_word>:

static uint16_t u8g2_font_get_word(const uint8_t *font, uint8_t offset) U8G2_NOINLINE; 
static uint16_t u8g2_font_get_word(const uint8_t *font, uint8_t offset)
{
 8000d28:	b480      	push	{r7}
 8000d2a:	b085      	sub	sp, #20
 8000d2c:	af00      	add	r7, sp, #0
 8000d2e:	6078      	str	r0, [r7, #4]
 8000d30:	460b      	mov	r3, r1
 8000d32:	70fb      	strb	r3, [r7, #3]
    uint16_t pos;
    font += offset;
 8000d34:	78fb      	ldrb	r3, [r7, #3]
 8000d36:	687a      	ldr	r2, [r7, #4]
 8000d38:	4413      	add	r3, r2
 8000d3a:	607b      	str	r3, [r7, #4]
    pos = u8x8_pgm_read( font );
 8000d3c:	687b      	ldr	r3, [r7, #4]
 8000d3e:	781b      	ldrb	r3, [r3, #0]
 8000d40:	81fb      	strh	r3, [r7, #14]
    font++;
 8000d42:	687b      	ldr	r3, [r7, #4]
 8000d44:	3301      	adds	r3, #1
 8000d46:	607b      	str	r3, [r7, #4]
    pos <<= 8;
 8000d48:	89fb      	ldrh	r3, [r7, #14]
 8000d4a:	021b      	lsls	r3, r3, #8
 8000d4c:	81fb      	strh	r3, [r7, #14]
    pos += u8x8_pgm_read( font);
 8000d4e:	687b      	ldr	r3, [r7, #4]
 8000d50:	781b      	ldrb	r3, [r3, #0]
 8000d52:	461a      	mov	r2, r3
 8000d54:	89fb      	ldrh	r3, [r7, #14]
 8000d56:	4413      	add	r3, r2
 8000d58:	81fb      	strh	r3, [r7, #14]
    return pos;
 8000d5a:	89fb      	ldrh	r3, [r7, #14]
}
 8000d5c:	4618      	mov	r0, r3
 8000d5e:	3714      	adds	r7, #20
 8000d60:	46bd      	mov	sp, r7
 8000d62:	f85d 7b04 	ldr.w	r7, [sp], #4
 8000d66:	4770      	bx	lr

08000d68 <u8g2_read_font_info>:

/*========================================================================*/
/* new font format */
void u8g2_read_font_info(u8g2_font_info_t *font_info, const uint8_t *font)
{
 8000d68:	b580      	push	{r7, lr}
 8000d6a:	b082      	sub	sp, #8
 8000d6c:	af00      	add	r7, sp, #0
 8000d6e:	6078      	str	r0, [r7, #4]
 8000d70:	6039      	str	r1, [r7, #0]
  /* offset 0 */
  font_info->glyph_cnt = u8g2_font_get_byte(font, 0);
 8000d72:	2100      	movs	r1, #0
 8000d74:	6838      	ldr	r0, [r7, #0]
 8000d76:	f7ff ffc5 	bl	8000d04 <u8g2_font_get_byte>
 8000d7a:	4603      	mov	r3, r0
 8000d7c:	461a      	mov	r2, r3
 8000d7e:	687b      	ldr	r3, [r7, #4]
 8000d80:	701a      	strb	r2, [r3, #0]
  font_info->bbx_mode = u8g2_font_get_byte(font, 1);
 8000d82:	2101      	movs	r1, #1
 8000d84:	6838      	ldr	r0, [r7, #0]
 8000d86:	f7ff ffbd 	bl	8000d04 <u8g2_font_get_byte>
 8000d8a:	4603      	mov	r3, r0
 8000d8c:	461a      	mov	r2, r3
 8000d8e:	687b      	ldr	r3, [r7, #4]
 8000d90:	705a      	strb	r2, [r3, #1]
  font_info->bits_per_0 = u8g2_font_get_byte(font, 2);
 8000d92:	2102      	movs	r1, #2
 8000d94:	6838      	ldr	r0, [r7, #0]
 8000d96:	f7ff ffb5 	bl	8000d04 <u8g2_font_get_byte>
 8000d9a:	4603      	mov	r3, r0
 8000d9c:	461a      	mov	r2, r3
 8000d9e:	687b      	ldr	r3, [r7, #4]
 8000da0:	709a      	strb	r2, [r3, #2]
  font_info->bits_per_1 = u8g2_font_get_byte(font, 3);
 8000da2:	2103      	movs	r1, #3
 8000da4:	6838      	ldr	r0, [r7, #0]
 8000da6:	f7ff ffad 	bl	8000d04 <u8g2_font_get_byte>
 8000daa:	4603      	mov	r3, r0
 8000dac:	461a      	mov	r2, r3
 8000dae:	687b      	ldr	r3, [r7, #4]
 8000db0:	70da      	strb	r2, [r3, #3]
  
  /* offset 4 */
  font_info->bits_per_char_width = u8g2_font_get_byte(font, 4);
 8000db2:	2104      	movs	r1, #4
 8000db4:	6838      	ldr	r0, [r7, #0]
 8000db6:	f7ff ffa5 	bl	8000d04 <u8g2_font_get_byte>
 8000dba:	4603      	mov	r3, r0
 8000dbc:	461a      	mov	r2, r3
 8000dbe:	687b      	ldr	r3, [r7, #4]
 8000dc0:	711a      	strb	r2, [r3, #4]
  font_info->bits_per_char_height = u8g2_font_get_byte(font, 5);
 8000dc2:	2105      	movs	r1, #5
 8000dc4:	6838      	ldr	r0, [r7, #0]
 8000dc6:	f7ff ff9d 	bl	8000d04 <u8g2_font_get_byte>
 8000dca:	4603      	mov	r3, r0
 8000dcc:	461a      	mov	r2, r3
 8000dce:	687b      	ldr	r3, [r7, #4]
 8000dd0:	715a      	strb	r2, [r3, #5]
  font_info->bits_per_char_x = u8g2_font_get_byte(font, 6);
 8000dd2:	2106      	movs	r1, #6
 8000dd4:	6838      	ldr	r0, [r7, #0]
 8000dd6:	f7ff ff95 	bl	8000d04 <u8g2_font_get_byte>
 8000dda:	4603      	mov	r3, r0
 8000ddc:	461a      	mov	r2, r3
 8000dde:	687b      	ldr	r3, [r7, #4]
 8000de0:	719a      	strb	r2, [r3, #6]
  font_info->bits_per_char_y = u8g2_font_get_byte(font, 7);
 8000de2:	2107      	movs	r1, #7
 8000de4:	6838      	ldr	r0, [r7, #0]
 8000de6:	f7ff ff8d 	bl	8000d04 <u8g2_font_get_byte>
 8000dea:	4603      	mov	r3, r0
 8000dec:	461a      	mov	r2, r3
 8000dee:	687b      	ldr	r3, [r7, #4]
 8000df0:	71da      	strb	r2, [r3, #7]
  font_info->bits_per_delta_x = u8g2_font_get_byte(font, 8);
 8000df2:	2108      	movs	r1, #8
 8000df4:	6838      	ldr	r0, [r7, #0]
 8000df6:	f7ff ff85 	bl	8000d04 <u8g2_font_get_byte>
 8000dfa:	4603      	mov	r3, r0
 8000dfc:	461a      	mov	r2, r3
 8000dfe:	687b      	ldr	r3, [r7, #4]
 8000e00:	721a      	strb	r2, [r3, #8]
  
  /* offset 9 */
  font_info->max_char_width = u8g2_font_get_byte(font, 9);
 8000e02:	2109      	movs	r1, #9
 8000e04:	6838      	ldr	r0, [r7, #0]
 8000e06:	f7ff ff7d 	bl	8000d04 <u8g2_font_get_byte>
 8000e0a:	4603      	mov	r3, r0
 8000e0c:	b25a      	sxtb	r2, r3
 8000e0e:	687b      	ldr	r3, [r7, #4]
 8000e10:	725a      	strb	r2, [r3, #9]
  font_info->max_char_height = u8g2_font_get_byte(font, 10);
 8000e12:	210a      	movs	r1, #10
 8000e14:	6838      	ldr	r0, [r7, #0]
 8000e16:	f7ff ff75 	bl	8000d04 <u8g2_font_get_byte>
 8000e1a:	4603      	mov	r3, r0
 8000e1c:	b25a      	sxtb	r2, r3
 8000e1e:	687b      	ldr	r3, [r7, #4]
 8000e20:	729a      	strb	r2, [r3, #10]
  font_info->x_offset = u8g2_font_get_byte(font, 11);
 8000e22:	210b      	movs	r1, #11
 8000e24:	6838      	ldr	r0, [r7, #0]
 8000e26:	f7ff ff6d 	bl	8000d04 <u8g2_font_get_byte>
 8000e2a:	4603      	mov	r3, r0
 8000e2c:	b25a      	sxtb	r2, r3
 8000e2e:	687b      	ldr	r3, [r7, #4]
 8000e30:	72da      	strb	r2, [r3, #11]
  font_info->y_offset = u8g2_font_get_byte(font, 12);
 8000e32:	210c      	movs	r1, #12
 8000e34:	6838      	ldr	r0, [r7, #0]
 8000e36:	f7ff ff65 	bl	8000d04 <u8g2_font_get_byte>
 8000e3a:	4603      	mov	r3, r0
 8000e3c:	b25a      	sxtb	r2, r3
 8000e3e:	687b      	ldr	r3, [r7, #4]
 8000e40:	731a      	strb	r2, [r3, #12]
  
  /* offset 13 */
  font_info->ascent_A = u8g2_font_get_byte(font, 13);
 8000e42:	210d      	movs	r1, #13
 8000e44:	6838      	ldr	r0, [r7, #0]
 8000e46:	f7ff ff5d 	bl	8000d04 <u8g2_font_get_byte>
 8000e4a:	4603      	mov	r3, r0
 8000e4c:	b25a      	sxtb	r2, r3
 8000e4e:	687b      	ldr	r3, [r7, #4]
 8000e50:	735a      	strb	r2, [r3, #13]
  font_info->descent_g = u8g2_font_get_byte(font, 14);
 8000e52:	210e      	movs	r1, #14
 8000e54:	6838      	ldr	r0, [r7, #0]
 8000e56:	f7ff ff55 	bl	8000d04 <u8g2_font_get_byte>
 8000e5a:	4603      	mov	r3, r0
 8000e5c:	b25a      	sxtb	r2, r3
 8000e5e:	687b      	ldr	r3, [r7, #4]
 8000e60:	739a      	strb	r2, [r3, #14]
  font_info->ascent_para = u8g2_font_get_byte(font, 15);
 8000e62:	210f      	movs	r1, #15
 8000e64:	6838      	ldr	r0, [r7, #0]
 8000e66:	f7ff ff4d 	bl	8000d04 <u8g2_font_get_byte>
 8000e6a:	4603      	mov	r3, r0
 8000e6c:	b25a      	sxtb	r2, r3
 8000e6e:	687b      	ldr	r3, [r7, #4]
 8000e70:	73da      	strb	r2, [r3, #15]
  font_info->descent_para = u8g2_font_get_byte(font, 16);
 8000e72:	2110      	movs	r1, #16
 8000e74:	6838      	ldr	r0, [r7, #0]
 8000e76:	f7ff ff45 	bl	8000d04 <u8g2_font_get_byte>
 8000e7a:	4603      	mov	r3, r0
 8000e7c:	b25a      	sxtb	r2, r3
 8000e7e:	687b      	ldr	r3, [r7, #4]
 8000e80:	741a      	strb	r2, [r3, #16]
  
  /* offset 17 */
  font_info->start_pos_upper_A = u8g2_font_get_word(font, 17);
 8000e82:	2111      	movs	r1, #17
 8000e84:	6838      	ldr	r0, [r7, #0]
 8000e86:	f7ff ff4f 	bl	8000d28 <u8g2_font_get_word>
 8000e8a:	4603      	mov	r3, r0
 8000e8c:	461a      	mov	r2, r3
 8000e8e:	687b      	ldr	r3, [r7, #4]
 8000e90:	825a      	strh	r2, [r3, #18]
  font_info->start_pos_lower_a = u8g2_font_get_word(font, 19); 
 8000e92:	2113      	movs	r1, #19
 8000e94:	6838      	ldr	r0, [r7, #0]
 8000e96:	f7ff ff47 	bl	8000d28 <u8g2_font_get_word>
 8000e9a:	4603      	mov	r3, r0
 8000e9c:	461a      	mov	r2, r3
 8000e9e:	687b      	ldr	r3, [r7, #4]
 8000ea0:	829a      	strh	r2, [r3, #20]
  
  /* offset 21 */
#ifdef U8G2_WITH_UNICODE
  font_info->start_pos_unicode = u8g2_font_get_word(font, 21); 
 8000ea2:	2115      	movs	r1, #21
 8000ea4:	6838      	ldr	r0, [r7, #0]
 8000ea6:	f7ff ff3f 	bl	8000d28 <u8g2_font_get_word>
 8000eaa:	4603      	mov	r3, r0
 8000eac:	461a      	mov	r2, r3
 8000eae:	687b      	ldr	r3, [r7, #4]
 8000eb0:	82da      	strh	r2, [r3, #22]
#endif
}
 8000eb2:	bf00      	nop
 8000eb4:	3708      	adds	r7, #8
 8000eb6:	46bd      	mov	sp, r7
 8000eb8:	bd80      	pop	{r7, pc}

08000eba <u8g2_font_decode_get_unsigned_bits>:
/*========================================================================*/
/* glyph handling */

/* optimized */
uint8_t u8g2_font_decode_get_unsigned_bits(u8g2_font_decode_t *f, uint8_t cnt) 
{
 8000eba:	b480      	push	{r7}
 8000ebc:	b085      	sub	sp, #20
 8000ebe:	af00      	add	r7, sp, #0
 8000ec0:	6078      	str	r0, [r7, #4]
 8000ec2:	460b      	mov	r3, r1
 8000ec4:	70fb      	strb	r3, [r7, #3]
  uint8_t val;
  uint8_t bit_pos = f->decode_bit_pos;
 8000ec6:	687b      	ldr	r3, [r7, #4]
 8000ec8:	7b1b      	ldrb	r3, [r3, #12]
 8000eca:	737b      	strb	r3, [r7, #13]
  uint8_t bit_pos_plus_cnt;
  
  //val = *(f->decode_ptr);
  val = u8x8_pgm_read( f->decode_ptr );  
 8000ecc:	687b      	ldr	r3, [r7, #4]
 8000ece:	681b      	ldr	r3, [r3, #0]
 8000ed0:	781b      	ldrb	r3, [r3, #0]
 8000ed2:	73fb      	strb	r3, [r7, #15]
  
  val >>= bit_pos;
 8000ed4:	7bfa      	ldrb	r2, [r7, #15]
 8000ed6:	7b7b      	ldrb	r3, [r7, #13]
 8000ed8:	fa42 f303 	asr.w	r3, r2, r3
 8000edc:	73fb      	strb	r3, [r7, #15]
  bit_pos_plus_cnt = bit_pos;
 8000ede:	7b7b      	ldrb	r3, [r7, #13]
 8000ee0:	73bb      	strb	r3, [r7, #14]
  bit_pos_plus_cnt += cnt;
 8000ee2:	7bba      	ldrb	r2, [r7, #14]
 8000ee4:	78fb      	ldrb	r3, [r7, #3]
 8000ee6:	4413      	add	r3, r2
 8000ee8:	73bb      	strb	r3, [r7, #14]
  if ( bit_pos_plus_cnt >= 8 )
 8000eea:	7bbb      	ldrb	r3, [r7, #14]
 8000eec:	2b07      	cmp	r3, #7
 8000eee:	d91a      	bls.n	8000f26 <u8g2_font_decode_get_unsigned_bits+0x6c>
  {
    uint8_t s = 8;
 8000ef0:	2308      	movs	r3, #8
 8000ef2:	733b      	strb	r3, [r7, #12]
    s -= bit_pos;
 8000ef4:	7b3a      	ldrb	r2, [r7, #12]
 8000ef6:	7b7b      	ldrb	r3, [r7, #13]
 8000ef8:	1ad3      	subs	r3, r2, r3
 8000efa:	733b      	strb	r3, [r7, #12]
    f->decode_ptr++;
 8000efc:	687b      	ldr	r3, [r7, #4]
 8000efe:	681b      	ldr	r3, [r3, #0]
 8000f00:	1c5a      	adds	r2, r3, #1
 8000f02:	687b      	ldr	r3, [r7, #4]
 8000f04:	601a      	str	r2, [r3, #0]
    //val |= *(f->decode_ptr) << (8-bit_pos);
    val |= u8x8_pgm_read( f->decode_ptr ) << (s);
 8000f06:	687b      	ldr	r3, [r7, #4]
 8000f08:	681b      	ldr	r3, [r3, #0]
 8000f0a:	781b      	ldrb	r3, [r3, #0]
 8000f0c:	461a      	mov	r2, r3
 8000f0e:	7b3b      	ldrb	r3, [r7, #12]
 8000f10:	fa02 f303 	lsl.w	r3, r2, r3
 8000f14:	b25a      	sxtb	r2, r3
 8000f16:	f997 300f 	ldrsb.w	r3, [r7, #15]
 8000f1a:	4313      	orrs	r3, r2
 8000f1c:	b25b      	sxtb	r3, r3
 8000f1e:	73fb      	strb	r3, [r7, #15]
    //bit_pos -= 8;
    bit_pos_plus_cnt -= 8;
 8000f20:	7bbb      	ldrb	r3, [r7, #14]
 8000f22:	3b08      	subs	r3, #8
 8000f24:	73bb      	strb	r3, [r7, #14]
  }
  val &= (1U<<cnt)-1;
 8000f26:	78fb      	ldrb	r3, [r7, #3]
 8000f28:	f04f 32ff 	mov.w	r2, #4294967295
 8000f2c:	fa02 f303 	lsl.w	r3, r2, r3
 8000f30:	b2db      	uxtb	r3, r3
 8000f32:	43db      	mvns	r3, r3
 8000f34:	b2da      	uxtb	r2, r3
 8000f36:	7bfb      	ldrb	r3, [r7, #15]
 8000f38:	4013      	ands	r3, r2
 8000f3a:	73fb      	strb	r3, [r7, #15]
  //bit_pos += cnt;
  
  f->decode_bit_pos = bit_pos_plus_cnt;
 8000f3c:	687b      	ldr	r3, [r7, #4]
 8000f3e:	7bba      	ldrb	r2, [r7, #14]
 8000f40:	731a      	strb	r2, [r3, #12]
  return val;
 8000f42:	7bfb      	ldrb	r3, [r7, #15]
}
 8000f44:	4618      	mov	r0, r3
 8000f46:	3714      	adds	r7, #20
 8000f48:	46bd      	mov	sp, r7
 8000f4a:	f85d 7b04 	ldr.w	r7, [sp], #4
 8000f4e:	4770      	bx	lr

08000f50 <u8g2_font_decode_get_signed_bits>:
	r = bits(x)+1;

*/
/* optimized */
int8_t u8g2_font_decode_get_signed_bits(u8g2_font_decode_t *f, uint8_t cnt)
{
 8000f50:	b580      	push	{r7, lr}
 8000f52:	b084      	sub	sp, #16
 8000f54:	af00      	add	r7, sp, #0
 8000f56:	6078      	str	r0, [r7, #4]
 8000f58:	460b      	mov	r3, r1
 8000f5a:	70fb      	strb	r3, [r7, #3]
  int8_t v, d;
  v = (int8_t)u8g2_font_decode_get_unsigned_bits(f, cnt);
 8000f5c:	78fb      	ldrb	r3, [r7, #3]
 8000f5e:	4619      	mov	r1, r3
 8000f60:	6878      	ldr	r0, [r7, #4]
 8000f62:	f7ff ffaa 	bl	8000eba <u8g2_font_decode_get_unsigned_bits>
 8000f66:	4603      	mov	r3, r0
 8000f68:	73fb      	strb	r3, [r7, #15]
  d = 1;
 8000f6a:	2301      	movs	r3, #1
 8000f6c:	73bb      	strb	r3, [r7, #14]
  cnt--;
 8000f6e:	78fb      	ldrb	r3, [r7, #3]
 8000f70:	3b01      	subs	r3, #1
 8000f72:	70fb      	strb	r3, [r7, #3]
  d <<= cnt;
 8000f74:	f997 200e 	ldrsb.w	r2, [r7, #14]
 8000f78:	78fb      	ldrb	r3, [r7, #3]
 8000f7a:	fa02 f303 	lsl.w	r3, r2, r3
 8000f7e:	73bb      	strb	r3, [r7, #14]
  v -= d;
 8000f80:	7bfa      	ldrb	r2, [r7, #15]
 8000f82:	7bbb      	ldrb	r3, [r7, #14]
 8000f84:	1ad3      	subs	r3, r2, r3
 8000f86:	b2db      	uxtb	r3, r3
 8000f88:	73fb      	strb	r3, [r7, #15]
  return v;
 8000f8a:	f997 300f 	ldrsb.w	r3, [r7, #15]
  //return (int8_t)u8g2_font_decode_get_unsigned_bits(f, cnt) - ((1<<cnt)>>1);
}
 8000f8e:	4618      	mov	r0, r3
 8000f90:	3710      	adds	r7, #16
 8000f92:	46bd      	mov	sp, r7
 8000f94:	bd80      	pop	{r7, pc}

08000f96 <u8g2_add_vector_y>:


#ifdef U8G2_WITH_FONT_ROTATION
u8g2_uint_t u8g2_add_vector_y(u8g2_uint_t dy, int8_t x, int8_t y, uint8_t dir)
{
 8000f96:	b490      	push	{r4, r7}
 8000f98:	b082      	sub	sp, #8
 8000f9a:	af00      	add	r7, sp, #0
 8000f9c:	4604      	mov	r4, r0
 8000f9e:	4608      	mov	r0, r1
 8000fa0:	4611      	mov	r1, r2
 8000fa2:	461a      	mov	r2, r3
 8000fa4:	4623      	mov	r3, r4
 8000fa6:	80fb      	strh	r3, [r7, #6]
 8000fa8:	4603      	mov	r3, r0
 8000faa:	717b      	strb	r3, [r7, #5]
 8000fac:	460b      	mov	r3, r1
 8000fae:	713b      	strb	r3, [r7, #4]
 8000fb0:	4613      	mov	r3, r2
 8000fb2:	70fb      	strb	r3, [r7, #3]
  switch(dir)
 8000fb4:	78fb      	ldrb	r3, [r7, #3]
 8000fb6:	2b02      	cmp	r3, #2
 8000fb8:	d014      	beq.n	8000fe4 <u8g2_add_vector_y+0x4e>
 8000fba:	2b02      	cmp	r3, #2
 8000fbc:	dc19      	bgt.n	8000ff2 <u8g2_add_vector_y+0x5c>
 8000fbe:	2b00      	cmp	r3, #0
 8000fc0:	d002      	beq.n	8000fc8 <u8g2_add_vector_y+0x32>
 8000fc2:	2b01      	cmp	r3, #1
 8000fc4:	d007      	beq.n	8000fd6 <u8g2_add_vector_y+0x40>
 8000fc6:	e014      	b.n	8000ff2 <u8g2_add_vector_y+0x5c>
  {
    case 0:
      dy += y;
 8000fc8:	f997 3004 	ldrsb.w	r3, [r7, #4]
 8000fcc:	b29a      	uxth	r2, r3
 8000fce:	88fb      	ldrh	r3, [r7, #6]
 8000fd0:	4413      	add	r3, r2
 8000fd2:	80fb      	strh	r3, [r7, #6]
      break;
 8000fd4:	e014      	b.n	8001000 <u8g2_add_vector_y+0x6a>
    case 1:
      dy += x;
 8000fd6:	f997 3005 	ldrsb.w	r3, [r7, #5]
 8000fda:	b29a      	uxth	r2, r3
 8000fdc:	88fb      	ldrh	r3, [r7, #6]
 8000fde:	4413      	add	r3, r2
 8000fe0:	80fb      	strh	r3, [r7, #6]
      break;
 8000fe2:	e00d      	b.n	8001000 <u8g2_add_vector_y+0x6a>
    case 2:
      dy -= y;
 8000fe4:	f997 3004 	ldrsb.w	r3, [r7, #4]
 8000fe8:	b29b      	uxth	r3, r3
 8000fea:	88fa      	ldrh	r2, [r7, #6]
 8000fec:	1ad3      	subs	r3, r2, r3
 8000fee:	80fb      	strh	r3, [r7, #6]
      break;
 8000ff0:	e006      	b.n	8001000 <u8g2_add_vector_y+0x6a>
    default:
      dy -= x;
 8000ff2:	f997 3005 	ldrsb.w	r3, [r7, #5]
 8000ff6:	b29b      	uxth	r3, r3
 8000ff8:	88fa      	ldrh	r2, [r7, #6]
 8000ffa:	1ad3      	subs	r3, r2, r3
 8000ffc:	80fb      	strh	r3, [r7, #6]
      break;      
 8000ffe:	bf00      	nop
  }
  return dy;
 8001000:	88fb      	ldrh	r3, [r7, #6]
}
 8001002:	4618      	mov	r0, r3
 8001004:	3708      	adds	r7, #8
 8001006:	46bd      	mov	sp, r7
 8001008:	bc90      	pop	{r4, r7}
 800100a:	4770      	bx	lr

0800100c <u8g2_add_vector_x>:

u8g2_uint_t u8g2_add_vector_x(u8g2_uint_t dx, int8_t x, int8_t y, uint8_t dir)
{
 800100c:	b490      	push	{r4, r7}
 800100e:	b082      	sub	sp, #8
 8001010:	af00      	add	r7, sp, #0
 8001012:	4604      	mov	r4, r0
 8001014:	4608      	mov	r0, r1
 8001016:	4611      	mov	r1, r2
 8001018:	461a      	mov	r2, r3
 800101a:	4623      	mov	r3, r4
 800101c:	80fb      	strh	r3, [r7, #6]
 800101e:	4603      	mov	r3, r0
 8001020:	717b      	strb	r3, [r7, #5]
 8001022:	460b      	mov	r3, r1
 8001024:	713b      	strb	r3, [r7, #4]
 8001026:	4613      	mov	r3, r2
 8001028:	70fb      	strb	r3, [r7, #3]
  switch(dir)
 800102a:	78fb      	ldrb	r3, [r7, #3]
 800102c:	2b02      	cmp	r3, #2
 800102e:	d014      	beq.n	800105a <u8g2_add_vector_x+0x4e>
 8001030:	2b02      	cmp	r3, #2
 8001032:	dc19      	bgt.n	8001068 <u8g2_add_vector_x+0x5c>
 8001034:	2b00      	cmp	r3, #0
 8001036:	d002      	beq.n	800103e <u8g2_add_vector_x+0x32>
 8001038:	2b01      	cmp	r3, #1
 800103a:	d007      	beq.n	800104c <u8g2_add_vector_x+0x40>
 800103c:	e014      	b.n	8001068 <u8g2_add_vector_x+0x5c>
  {
    case 0:
      dx += x;
 800103e:	f997 3005 	ldrsb.w	r3, [r7, #5]
 8001042:	b29a      	uxth	r2, r3
 8001044:	88fb      	ldrh	r3, [r7, #6]
 8001046:	4413      	add	r3, r2
 8001048:	80fb      	strh	r3, [r7, #6]
      break;
 800104a:	e014      	b.n	8001076 <u8g2_add_vector_x+0x6a>
    case 1:
      dx -= y;
 800104c:	f997 3004 	ldrsb.w	r3, [r7, #4]
 8001050:	b29b      	uxth	r3, r3
 8001052:	88fa      	ldrh	r2, [r7, #6]
 8001054:	1ad3      	subs	r3, r2, r3
 8001056:	80fb      	strh	r3, [r7, #6]
      break;
 8001058:	e00d      	b.n	8001076 <u8g2_add_vector_x+0x6a>
    case 2:
      dx -= x;
 800105a:	f997 3005 	ldrsb.w	r3, [r7, #5]
 800105e:	b29b      	uxth	r3, r3
 8001060:	88fa      	ldrh	r2, [r7, #6]
 8001062:	1ad3      	subs	r3, r2, r3
 8001064:	80fb      	strh	r3, [r7, #6]
      break;
 8001066:	e006      	b.n	8001076 <u8g2_add_vector_x+0x6a>
    default:
      dx += y;
 8001068:	f997 3004 	ldrsb.w	r3, [r7, #4]
 800106c:	b29a      	uxth	r2, r3
 800106e:	88fb      	ldrh	r3, [r7, #6]
 8001070:	4413      	add	r3, r2
 8001072:	80fb      	strh	r3, [r7, #6]
      break;      
 8001074:	bf00      	nop
  }
  return dx;
 8001076:	88fb      	ldrh	r3, [r7, #6]
}
 8001078:	4618      	mov	r0, r3
 800107a:	3708      	adds	r7, #8
 800107c:	46bd      	mov	sp, r7
 800107e:	bc90      	pop	{r4, r7}
 8001080:	4770      	bx	lr

08001082 <u8g2_font_decode_len>:
  Called by:
    u8g2_font_decode_glyph()
*/
/* optimized */
void u8g2_font_decode_len(u8g2_t *u8g2, uint8_t len, uint8_t is_foreground)
{
 8001082:	b580      	push	{r7, lr}
 8001084:	b088      	sub	sp, #32
 8001086:	af02      	add	r7, sp, #8
 8001088:	6078      	str	r0, [r7, #4]
 800108a:	460b      	mov	r3, r1
 800108c:	70fb      	strb	r3, [r7, #3]
 800108e:	4613      	mov	r3, r2
 8001090:	70bb      	strb	r3, [r7, #2]
  uint8_t lx,ly;
  
  /* target position on the screen */
  u8g2_uint_t x, y;
  
  u8g2_font_decode_t *decode = &(u8g2->font_decode);
 8001092:	687b      	ldr	r3, [r7, #4]
 8001094:	3360      	adds	r3, #96	@ 0x60
 8001096:	613b      	str	r3, [r7, #16]
  
  cnt = len;
 8001098:	78fb      	ldrb	r3, [r7, #3]
 800109a:	75fb      	strb	r3, [r7, #23]
  
  /* get the local position */
  lx = decode->x;
 800109c:	693b      	ldr	r3, [r7, #16]
 800109e:	f993 3008 	ldrsb.w	r3, [r3, #8]
 80010a2:	757b      	strb	r3, [r7, #21]
  ly = decode->y;
 80010a4:	693b      	ldr	r3, [r7, #16]
 80010a6:	f993 3009 	ldrsb.w	r3, [r3, #9]
 80010aa:	753b      	strb	r3, [r7, #20]
  
  for(;;)
  {
    /* calculate the number of pixel to the right edge of the glyph */
    rem = decode->glyph_width;
 80010ac:	693b      	ldr	r3, [r7, #16]
 80010ae:	f993 300a 	ldrsb.w	r3, [r3, #10]
 80010b2:	73fb      	strb	r3, [r7, #15]
    rem -= lx;
 80010b4:	7bfa      	ldrb	r2, [r7, #15]
 80010b6:	7d7b      	ldrb	r3, [r7, #21]
 80010b8:	1ad3      	subs	r3, r2, r3
 80010ba:	73fb      	strb	r3, [r7, #15]
    
    /* calculate how many pixel to draw. This is either to the right edge */
    /* or lesser, if not enough pixel are left */
    current = rem;
 80010bc:	7bfb      	ldrb	r3, [r7, #15]
 80010be:	75bb      	strb	r3, [r7, #22]
    if ( cnt < rem )
 80010c0:	7dfa      	ldrb	r2, [r7, #23]
 80010c2:	7bfb      	ldrb	r3, [r7, #15]
 80010c4:	429a      	cmp	r2, r3
 80010c6:	d201      	bcs.n	80010cc <u8g2_font_decode_len+0x4a>
      current = cnt;
 80010c8:	7dfb      	ldrb	r3, [r7, #23]
 80010ca:	75bb      	strb	r3, [r7, #22]
    
    /* now draw the line, but apply the rotation around the glyph target position */
    //u8g2_font_decode_draw_pixel(u8g2, lx,ly,current, is_foreground);

    /* get target position */
    x = decode->target_x;
 80010cc:	693b      	ldr	r3, [r7, #16]
 80010ce:	889b      	ldrh	r3, [r3, #4]
 80010d0:	81bb      	strh	r3, [r7, #12]
    y = decode->target_y;
 80010d2:	693b      	ldr	r3, [r7, #16]
 80010d4:	88db      	ldrh	r3, [r3, #6]
 80010d6:	817b      	strh	r3, [r7, #10]

    /* apply rotation */
#ifdef U8G2_WITH_FONT_ROTATION
    
    x = u8g2_add_vector_x(x, lx, ly, decode->dir);
 80010d8:	f997 1015 	ldrsb.w	r1, [r7, #21]
 80010dc:	f997 2014 	ldrsb.w	r2, [r7, #20]
 80010e0:	693b      	ldr	r3, [r7, #16]
 80010e2:	7c1b      	ldrb	r3, [r3, #16]
 80010e4:	89b8      	ldrh	r0, [r7, #12]
 80010e6:	f7ff ff91 	bl	800100c <u8g2_add_vector_x>
 80010ea:	4603      	mov	r3, r0
 80010ec:	81bb      	strh	r3, [r7, #12]
    y = u8g2_add_vector_y(y, lx, ly, decode->dir);
 80010ee:	f997 1015 	ldrsb.w	r1, [r7, #21]
 80010f2:	f997 2014 	ldrsb.w	r2, [r7, #20]
 80010f6:	693b      	ldr	r3, [r7, #16]
 80010f8:	7c1b      	ldrb	r3, [r3, #16]
 80010fa:	8978      	ldrh	r0, [r7, #10]
 80010fc:	f7ff ff4b 	bl	8000f96 <u8g2_add_vector_y>
 8001100:	4603      	mov	r3, r0
 8001102:	817b      	strh	r3, [r7, #10]
    x += lx;
    y += ly;
#endif
    
    /* draw foreground and background (if required) */
    if ( is_foreground )
 8001104:	78bb      	ldrb	r3, [r7, #2]
 8001106:	2b00      	cmp	r3, #0
 8001108:	d010      	beq.n	800112c <u8g2_font_decode_len+0xaa>
    {
      u8g2->draw_color = decode->fg_color;			/* draw_color will be restored later */
 800110a:	693b      	ldr	r3, [r7, #16]
 800110c:	7b9a      	ldrb	r2, [r3, #14]
 800110e:	687b      	ldr	r3, [r7, #4]
 8001110:	f883 2092 	strb.w	r2, [r3, #146]	@ 0x92
      u8g2_DrawHVLine(u8g2, 
 8001114:	7dbb      	ldrb	r3, [r7, #22]
 8001116:	b298      	uxth	r0, r3
 8001118:	693b      	ldr	r3, [r7, #16]
 800111a:	7c1b      	ldrb	r3, [r3, #16]
 800111c:	897a      	ldrh	r2, [r7, #10]
 800111e:	89b9      	ldrh	r1, [r7, #12]
 8001120:	9300      	str	r3, [sp, #0]
 8001122:	4603      	mov	r3, r0
 8001124:	6878      	ldr	r0, [r7, #4]
 8001126:	f000 fbfe 	bl	8001926 <u8g2_DrawHVLine>
 800112a:	e013      	b.n	8001154 <u8g2_font_decode_len+0xd2>
#else
	0
#endif
      );
    }
    else if ( decode->is_transparent == 0 )    
 800112c:	693b      	ldr	r3, [r7, #16]
 800112e:	7b5b      	ldrb	r3, [r3, #13]
 8001130:	2b00      	cmp	r3, #0
 8001132:	d10f      	bne.n	8001154 <u8g2_font_decode_len+0xd2>
    {
      u8g2->draw_color = decode->bg_color;			/* draw_color will be restored later */
 8001134:	693b      	ldr	r3, [r7, #16]
 8001136:	7bda      	ldrb	r2, [r3, #15]
 8001138:	687b      	ldr	r3, [r7, #4]
 800113a:	f883 2092 	strb.w	r2, [r3, #146]	@ 0x92
      u8g2_DrawHVLine(u8g2, 
 800113e:	7dbb      	ldrb	r3, [r7, #22]
 8001140:	b298      	uxth	r0, r3
 8001142:	693b      	ldr	r3, [r7, #16]
 8001144:	7c1b      	ldrb	r3, [r3, #16]
 8001146:	897a      	ldrh	r2, [r7, #10]
 8001148:	89b9      	ldrh	r1, [r7, #12]
 800114a:	9300      	str	r3, [sp, #0]
 800114c:	4603      	mov	r3, r0
 800114e:	6878      	ldr	r0, [r7, #4]
 8001150:	f000 fbe9 	bl	8001926 <u8g2_DrawHVLine>
#endif
      );   
    }
    
    /* check, whether the end of the run length code has been reached */
    if ( cnt < rem )
 8001154:	7dfa      	ldrb	r2, [r7, #23]
 8001156:	7bfb      	ldrb	r3, [r7, #15]
 8001158:	429a      	cmp	r2, r3
 800115a:	d309      	bcc.n	8001170 <u8g2_font_decode_len+0xee>
      break;
    cnt -= rem;
 800115c:	7dfa      	ldrb	r2, [r7, #23]
 800115e:	7bfb      	ldrb	r3, [r7, #15]
 8001160:	1ad3      	subs	r3, r2, r3
 8001162:	75fb      	strb	r3, [r7, #23]
    lx = 0;
 8001164:	2300      	movs	r3, #0
 8001166:	757b      	strb	r3, [r7, #21]
    ly++;
 8001168:	7d3b      	ldrb	r3, [r7, #20]
 800116a:	3301      	adds	r3, #1
 800116c:	753b      	strb	r3, [r7, #20]
    rem = decode->glyph_width;
 800116e:	e79d      	b.n	80010ac <u8g2_font_decode_len+0x2a>
      break;
 8001170:	bf00      	nop
  }
  lx += cnt;
 8001172:	7d7a      	ldrb	r2, [r7, #21]
 8001174:	7dfb      	ldrb	r3, [r7, #23]
 8001176:	4413      	add	r3, r2
 8001178:	757b      	strb	r3, [r7, #21]
  
  decode->x = lx;
 800117a:	f997 2015 	ldrsb.w	r2, [r7, #21]
 800117e:	693b      	ldr	r3, [r7, #16]
 8001180:	721a      	strb	r2, [r3, #8]
  decode->y = ly;  
 8001182:	f997 2014 	ldrsb.w	r2, [r7, #20]
 8001186:	693b      	ldr	r3, [r7, #16]
 8001188:	725a      	strb	r2, [r3, #9]
}
 800118a:	bf00      	nop
 800118c:	3718      	adds	r7, #24
 800118e:	46bd      	mov	sp, r7
 8001190:	bd80      	pop	{r7, pc}

08001192 <u8g2_font_setup_decode>:
  
}


static void u8g2_font_setup_decode(u8g2_t *u8g2, const uint8_t *glyph_data)
{
 8001192:	b580      	push	{r7, lr}
 8001194:	b084      	sub	sp, #16
 8001196:	af00      	add	r7, sp, #0
 8001198:	6078      	str	r0, [r7, #4]
 800119a:	6039      	str	r1, [r7, #0]
  u8g2_font_decode_t *decode = &(u8g2->font_decode);
 800119c:	687b      	ldr	r3, [r7, #4]
 800119e:	3360      	adds	r3, #96	@ 0x60
 80011a0:	60fb      	str	r3, [r7, #12]
  decode->decode_ptr = glyph_data;
 80011a2:	68fb      	ldr	r3, [r7, #12]
 80011a4:	683a      	ldr	r2, [r7, #0]
 80011a6:	601a      	str	r2, [r3, #0]
  decode->decode_bit_pos = 0;
 80011a8:	68fb      	ldr	r3, [r7, #12]
 80011aa:	2200      	movs	r2, #0
 80011ac:	731a      	strb	r2, [r3, #12]
  /*
  decode->decode_ptr += 1;
  decode->decode_ptr += 1;
  */
  
  decode->glyph_width = u8g2_font_decode_get_unsigned_bits(decode, u8g2->font_info.bits_per_char_width);
 80011ae:	687b      	ldr	r3, [r7, #4]
 80011b0:	f893 3078 	ldrb.w	r3, [r3, #120]	@ 0x78
 80011b4:	4619      	mov	r1, r3
 80011b6:	68f8      	ldr	r0, [r7, #12]
 80011b8:	f7ff fe7f 	bl	8000eba <u8g2_font_decode_get_unsigned_bits>
 80011bc:	4603      	mov	r3, r0
 80011be:	b25a      	sxtb	r2, r3
 80011c0:	68fb      	ldr	r3, [r7, #12]
 80011c2:	729a      	strb	r2, [r3, #10]
  decode->glyph_height = u8g2_font_decode_get_unsigned_bits(decode,u8g2->font_info.bits_per_char_height);
 80011c4:	687b      	ldr	r3, [r7, #4]
 80011c6:	f893 3079 	ldrb.w	r3, [r3, #121]	@ 0x79
 80011ca:	4619      	mov	r1, r3
 80011cc:	68f8      	ldr	r0, [r7, #12]
 80011ce:	f7ff fe74 	bl	8000eba <u8g2_font_decode_get_unsigned_bits>
 80011d2:	4603      	mov	r3, r0
 80011d4:	b25a      	sxtb	r2, r3
 80011d6:	68fb      	ldr	r3, [r7, #12]
 80011d8:	72da      	strb	r2, [r3, #11]
  
  decode->fg_color = u8g2->draw_color;
 80011da:	687b      	ldr	r3, [r7, #4]
 80011dc:	f893 2092 	ldrb.w	r2, [r3, #146]	@ 0x92
 80011e0:	68fb      	ldr	r3, [r7, #12]
 80011e2:	739a      	strb	r2, [r3, #14]
  decode->bg_color = (decode->fg_color == 0 ? 1 : 0);
 80011e4:	68fb      	ldr	r3, [r7, #12]
 80011e6:	7b9b      	ldrb	r3, [r3, #14]
 80011e8:	2b00      	cmp	r3, #0
 80011ea:	bf0c      	ite	eq
 80011ec:	2301      	moveq	r3, #1
 80011ee:	2300      	movne	r3, #0
 80011f0:	b2db      	uxtb	r3, r3
 80011f2:	461a      	mov	r2, r3
 80011f4:	68fb      	ldr	r3, [r7, #12]
 80011f6:	73da      	strb	r2, [r3, #15]
}
 80011f8:	bf00      	nop
 80011fa:	3710      	adds	r7, #16
 80011fc:	46bd      	mov	sp, r7
 80011fe:	bd80      	pop	{r7, pc}

08001200 <u8g2_font_decode_glyph>:
  Calls:
    u8g2_font_decode_len()
*/
/* optimized */
int8_t u8g2_font_decode_glyph(u8g2_t *u8g2, const uint8_t *glyph_data)
{
 8001200:	b580      	push	{r7, lr}
 8001202:	b08a      	sub	sp, #40	@ 0x28
 8001204:	af02      	add	r7, sp, #8
 8001206:	6078      	str	r0, [r7, #4]
 8001208:	6039      	str	r1, [r7, #0]
  uint8_t a, b;
  int8_t x, y;
  int8_t d;
  int8_t h;
  u8g2_font_decode_t *decode = &(u8g2->font_decode);
 800120a:	687b      	ldr	r3, [r7, #4]
 800120c:	3360      	adds	r3, #96	@ 0x60
 800120e:	617b      	str	r3, [r7, #20]
    
  u8g2_font_setup_decode(u8g2, glyph_data);     /* set values in u8g2->font_decode data structure */
 8001210:	6839      	ldr	r1, [r7, #0]
 8001212:	6878      	ldr	r0, [r7, #4]
 8001214:	f7ff ffbd 	bl	8001192 <u8g2_font_setup_decode>
  h = u8g2->font_decode.glyph_height;
 8001218:	687b      	ldr	r3, [r7, #4]
 800121a:	f893 306b 	ldrb.w	r3, [r3, #107]	@ 0x6b
 800121e:	74fb      	strb	r3, [r7, #19]
  
  x = u8g2_font_decode_get_signed_bits(decode, u8g2->font_info.bits_per_char_x);
 8001220:	687b      	ldr	r3, [r7, #4]
 8001222:	f893 307a 	ldrb.w	r3, [r3, #122]	@ 0x7a
 8001226:	4619      	mov	r1, r3
 8001228:	6978      	ldr	r0, [r7, #20]
 800122a:	f7ff fe91 	bl	8000f50 <u8g2_font_decode_get_signed_bits>
 800122e:	4603      	mov	r3, r0
 8001230:	74bb      	strb	r3, [r7, #18]
  y = u8g2_font_decode_get_signed_bits(decode, u8g2->font_info.bits_per_char_y);
 8001232:	687b      	ldr	r3, [r7, #4]
 8001234:	f893 307b 	ldrb.w	r3, [r3, #123]	@ 0x7b
 8001238:	4619      	mov	r1, r3
 800123a:	6978      	ldr	r0, [r7, #20]
 800123c:	f7ff fe88 	bl	8000f50 <u8g2_font_decode_get_signed_bits>
 8001240:	4603      	mov	r3, r0
 8001242:	747b      	strb	r3, [r7, #17]
  d = u8g2_font_decode_get_signed_bits(decode, u8g2->font_info.bits_per_delta_x);
 8001244:	687b      	ldr	r3, [r7, #4]
 8001246:	f893 307c 	ldrb.w	r3, [r3, #124]	@ 0x7c
 800124a:	4619      	mov	r1, r3
 800124c:	6978      	ldr	r0, [r7, #20]
 800124e:	f7ff fe7f 	bl	8000f50 <u8g2_font_decode_get_signed_bits>
 8001252:	4603      	mov	r3, r0
 8001254:	743b      	strb	r3, [r7, #16]
  
  if ( decode->glyph_width > 0 )
 8001256:	697b      	ldr	r3, [r7, #20]
 8001258:	f993 300a 	ldrsb.w	r3, [r3, #10]
 800125c:	2b00      	cmp	r3, #0
 800125e:	f340 80d7 	ble.w	8001410 <u8g2_font_decode_glyph+0x210>
  {
#ifdef U8G2_WITH_FONT_ROTATION
    decode->target_x = u8g2_add_vector_x(decode->target_x, x, -(h+y), decode->dir);
 8001262:	697b      	ldr	r3, [r7, #20]
 8001264:	8898      	ldrh	r0, [r3, #4]
 8001266:	7cfa      	ldrb	r2, [r7, #19]
 8001268:	7c7b      	ldrb	r3, [r7, #17]
 800126a:	4413      	add	r3, r2
 800126c:	b2db      	uxtb	r3, r3
 800126e:	425b      	negs	r3, r3
 8001270:	b2db      	uxtb	r3, r3
 8001272:	b25a      	sxtb	r2, r3
 8001274:	697b      	ldr	r3, [r7, #20]
 8001276:	7c1b      	ldrb	r3, [r3, #16]
 8001278:	f997 1012 	ldrsb.w	r1, [r7, #18]
 800127c:	f7ff fec6 	bl	800100c <u8g2_add_vector_x>
 8001280:	4603      	mov	r3, r0
 8001282:	461a      	mov	r2, r3
 8001284:	697b      	ldr	r3, [r7, #20]
 8001286:	809a      	strh	r2, [r3, #4]
    decode->target_y = u8g2_add_vector_y(decode->target_y, x, -(h+y), decode->dir);
 8001288:	697b      	ldr	r3, [r7, #20]
 800128a:	88d8      	ldrh	r0, [r3, #6]
 800128c:	7cfa      	ldrb	r2, [r7, #19]
 800128e:	7c7b      	ldrb	r3, [r7, #17]
 8001290:	4413      	add	r3, r2
 8001292:	b2db      	uxtb	r3, r3
 8001294:	425b      	negs	r3, r3
 8001296:	b2db      	uxtb	r3, r3
 8001298:	b25a      	sxtb	r2, r3
 800129a:	697b      	ldr	r3, [r7, #20]
 800129c:	7c1b      	ldrb	r3, [r3, #16]
 800129e:	f997 1012 	ldrsb.w	r1, [r7, #18]
 80012a2:	f7ff fe78 	bl	8000f96 <u8g2_add_vector_y>
 80012a6:	4603      	mov	r3, r0
 80012a8:	461a      	mov	r2, r3
 80012aa:	697b      	ldr	r3, [r7, #20]
 80012ac:	80da      	strh	r2, [r3, #6]
    //u8g2_add_vector(&(decode->target_x), &(decode->target_y), x, -(h+y), decode->dir);

#ifdef U8G2_WITH_INTERSECTION
    {
      u8g2_uint_t x0, x1, y0, y1;
      x0 = decode->target_x;
 80012ae:	697b      	ldr	r3, [r7, #20]
 80012b0:	889b      	ldrh	r3, [r3, #4]
 80012b2:	83fb      	strh	r3, [r7, #30]
      y0 = decode->target_y;
 80012b4:	697b      	ldr	r3, [r7, #20]
 80012b6:	88db      	ldrh	r3, [r3, #6]
 80012b8:	837b      	strh	r3, [r7, #26]
      x1 = x0;
 80012ba:	8bfb      	ldrh	r3, [r7, #30]
 80012bc:	83bb      	strh	r3, [r7, #28]
      y1 = y0;
 80012be:	8b7b      	ldrh	r3, [r7, #26]
 80012c0:	833b      	strh	r3, [r7, #24]
      
#ifdef U8G2_WITH_FONT_ROTATION
      switch(decode->dir)
 80012c2:	697b      	ldr	r3, [r7, #20]
 80012c4:	7c1b      	ldrb	r3, [r3, #16]
 80012c6:	2b03      	cmp	r3, #3
 80012c8:	d85a      	bhi.n	8001380 <u8g2_font_decode_glyph+0x180>
 80012ca:	a201      	add	r2, pc, #4	@ (adr r2, 80012d0 <u8g2_font_decode_glyph+0xd0>)
 80012cc:	f852 f023 	ldr.w	pc, [r2, r3, lsl #2]
 80012d0:	080012e1 	.word	0x080012e1
 80012d4:	080012fd 	.word	0x080012fd
 80012d8:	08001325 	.word	0x08001325
 80012dc:	08001359 	.word	0x08001359
      {
	case 0:
	    x1 += decode->glyph_width;
 80012e0:	697b      	ldr	r3, [r7, #20]
 80012e2:	f993 300a 	ldrsb.w	r3, [r3, #10]
 80012e6:	b29a      	uxth	r2, r3
 80012e8:	8bbb      	ldrh	r3, [r7, #28]
 80012ea:	4413      	add	r3, r2
 80012ec:	83bb      	strh	r3, [r7, #28]
	    y1 += h;
 80012ee:	f997 3013 	ldrsb.w	r3, [r7, #19]
 80012f2:	b29a      	uxth	r2, r3
 80012f4:	8b3b      	ldrh	r3, [r7, #24]
 80012f6:	4413      	add	r3, r2
 80012f8:	833b      	strh	r3, [r7, #24]
	    break;
 80012fa:	e041      	b.n	8001380 <u8g2_font_decode_glyph+0x180>
	case 1:
	    x0 -= h;
 80012fc:	f997 3013 	ldrsb.w	r3, [r7, #19]
 8001300:	b29b      	uxth	r3, r3
 8001302:	8bfa      	ldrh	r2, [r7, #30]
 8001304:	1ad3      	subs	r3, r2, r3
 8001306:	83fb      	strh	r3, [r7, #30]
	    x0++;	/* shift down, because of assymetric boundaries for the interseciton test */
 8001308:	8bfb      	ldrh	r3, [r7, #30]
 800130a:	3301      	adds	r3, #1
 800130c:	83fb      	strh	r3, [r7, #30]
	    x1++;
 800130e:	8bbb      	ldrh	r3, [r7, #28]
 8001310:	3301      	adds	r3, #1
 8001312:	83bb      	strh	r3, [r7, #28]
	    y1 += decode->glyph_width;
 8001314:	697b      	ldr	r3, [r7, #20]
 8001316:	f993 300a 	ldrsb.w	r3, [r3, #10]
 800131a:	b29a      	uxth	r2, r3
 800131c:	8b3b      	ldrh	r3, [r7, #24]
 800131e:	4413      	add	r3, r2
 8001320:	833b      	strh	r3, [r7, #24]
	    break;
 8001322:	e02d      	b.n	8001380 <u8g2_font_decode_glyph+0x180>
	case 2:
	    x0 -= decode->glyph_width;
 8001324:	697b      	ldr	r3, [r7, #20]
 8001326:	f993 300a 	ldrsb.w	r3, [r3, #10]
 800132a:	b29b      	uxth	r3, r3
 800132c:	8bfa      	ldrh	r2, [r7, #30]
 800132e:	1ad3      	subs	r3, r2, r3
 8001330:	83fb      	strh	r3, [r7, #30]
	    x0++;	/* shift down, because of assymetric boundaries for the interseciton test */
 8001332:	8bfb      	ldrh	r3, [r7, #30]
 8001334:	3301      	adds	r3, #1
 8001336:	83fb      	strh	r3, [r7, #30]
	    x1++;
 8001338:	8bbb      	ldrh	r3, [r7, #28]
 800133a:	3301      	adds	r3, #1
 800133c:	83bb      	strh	r3, [r7, #28]
	    y0 -= h;
 800133e:	f997 3013 	ldrsb.w	r3, [r7, #19]
 8001342:	b29b      	uxth	r3, r3
 8001344:	8b7a      	ldrh	r2, [r7, #26]
 8001346:	1ad3      	subs	r3, r2, r3
 8001348:	837b      	strh	r3, [r7, #26]
	    y0++;	/* shift down, because of assymetric boundaries for the interseciton test */
 800134a:	8b7b      	ldrh	r3, [r7, #26]
 800134c:	3301      	adds	r3, #1
 800134e:	837b      	strh	r3, [r7, #26]
	    y1++;
 8001350:	8b3b      	ldrh	r3, [r7, #24]
 8001352:	3301      	adds	r3, #1
 8001354:	833b      	strh	r3, [r7, #24]
	    break;	  
 8001356:	e013      	b.n	8001380 <u8g2_font_decode_glyph+0x180>
	case 3:
	    x1 += h;
 8001358:	f997 3013 	ldrsb.w	r3, [r7, #19]
 800135c:	b29a      	uxth	r2, r3
 800135e:	8bbb      	ldrh	r3, [r7, #28]
 8001360:	4413      	add	r3, r2
 8001362:	83bb      	strh	r3, [r7, #28]
	    y0 -= decode->glyph_width;
 8001364:	697b      	ldr	r3, [r7, #20]
 8001366:	f993 300a 	ldrsb.w	r3, [r3, #10]
 800136a:	b29b      	uxth	r3, r3
 800136c:	8b7a      	ldrh	r2, [r7, #26]
 800136e:	1ad3      	subs	r3, r2, r3
 8001370:	837b      	strh	r3, [r7, #26]
	    y0++;	/* shift down, because of assymetric boundaries for the interseciton test */
 8001372:	8b7b      	ldrh	r3, [r7, #26]
 8001374:	3301      	adds	r3, #1
 8001376:	837b      	strh	r3, [r7, #26]
	    y1++;
 8001378:	8b3b      	ldrh	r3, [r7, #24]
 800137a:	3301      	adds	r3, #1
 800137c:	833b      	strh	r3, [r7, #24]
	    break;	  
 800137e:	bf00      	nop
#else /* U8G2_WITH_FONT_ROTATION */
      x1 += decode->glyph_width;
      y1 += h;      
#endif
      
      if ( u8g2_IsIntersection(u8g2, x0, y0, x1, y1) == 0 ) 
 8001380:	8bb8      	ldrh	r0, [r7, #28]
 8001382:	8b7a      	ldrh	r2, [r7, #26]
 8001384:	8bf9      	ldrh	r1, [r7, #30]
 8001386:	8b3b      	ldrh	r3, [r7, #24]
 8001388:	9300      	str	r3, [sp, #0]
 800138a:	4603      	mov	r3, r0
 800138c:	6878      	ldr	r0, [r7, #4]
 800138e:	f000 fb88 	bl	8001aa2 <u8g2_IsIntersection>
 8001392:	4603      	mov	r3, r0
 8001394:	2b00      	cmp	r3, #0
 8001396:	d102      	bne.n	800139e <u8g2_font_decode_glyph+0x19e>
	return d;
 8001398:	f997 3010 	ldrsb.w	r3, [r7, #16]
 800139c:	e03a      	b.n	8001414 <u8g2_font_decode_glyph+0x214>
    }
#endif /* U8G2_WITH_INTERSECTION */
   
    /* reset local x/y position */
    decode->x = 0;
 800139e:	697b      	ldr	r3, [r7, #20]
 80013a0:	2200      	movs	r2, #0
 80013a2:	721a      	strb	r2, [r3, #8]
    decode->y = 0;
 80013a4:	697b      	ldr	r3, [r7, #20]
 80013a6:	2200      	movs	r2, #0
 80013a8:	725a      	strb	r2, [r3, #9]
    
    /* decode glyph */
    for(;;)
    {
      a = u8g2_font_decode_get_unsigned_bits(decode, u8g2->font_info.bits_per_0);
 80013aa:	687b      	ldr	r3, [r7, #4]
 80013ac:	f893 3076 	ldrb.w	r3, [r3, #118]	@ 0x76
 80013b0:	4619      	mov	r1, r3
 80013b2:	6978      	ldr	r0, [r7, #20]
 80013b4:	f7ff fd81 	bl	8000eba <u8g2_font_decode_get_unsigned_bits>
 80013b8:	4603      	mov	r3, r0
 80013ba:	73fb      	strb	r3, [r7, #15]
      b = u8g2_font_decode_get_unsigned_bits(decode, u8g2->font_info.bits_per_1);
 80013bc:	687b      	ldr	r3, [r7, #4]
 80013be:	f893 3077 	ldrb.w	r3, [r3, #119]	@ 0x77
 80013c2:	4619      	mov	r1, r3
 80013c4:	6978      	ldr	r0, [r7, #20]
 80013c6:	f7ff fd78 	bl	8000eba <u8g2_font_decode_get_unsigned_bits>
 80013ca:	4603      	mov	r3, r0
 80013cc:	73bb      	strb	r3, [r7, #14]
      do
      {
	u8g2_font_decode_len(u8g2, a, 0);
 80013ce:	7bfb      	ldrb	r3, [r7, #15]
 80013d0:	2200      	movs	r2, #0
 80013d2:	4619      	mov	r1, r3
 80013d4:	6878      	ldr	r0, [r7, #4]
 80013d6:	f7ff fe54 	bl	8001082 <u8g2_font_decode_len>
	u8g2_font_decode_len(u8g2, b, 1);
 80013da:	7bbb      	ldrb	r3, [r7, #14]
 80013dc:	2201      	movs	r2, #1
 80013de:	4619      	mov	r1, r3
 80013e0:	6878      	ldr	r0, [r7, #4]
 80013e2:	f7ff fe4e 	bl	8001082 <u8g2_font_decode_len>
      } while( u8g2_font_decode_get_unsigned_bits(decode, 1) != 0 );
 80013e6:	2101      	movs	r1, #1
 80013e8:	6978      	ldr	r0, [r7, #20]
 80013ea:	f7ff fd66 	bl	8000eba <u8g2_font_decode_get_unsigned_bits>
 80013ee:	4603      	mov	r3, r0
 80013f0:	2b00      	cmp	r3, #0
 80013f2:	d1ec      	bne.n	80013ce <u8g2_font_decode_glyph+0x1ce>

      if ( decode->y >= h )
 80013f4:	697b      	ldr	r3, [r7, #20]
 80013f6:	f993 3009 	ldrsb.w	r3, [r3, #9]
 80013fa:	f997 2013 	ldrsb.w	r2, [r7, #19]
 80013fe:	429a      	cmp	r2, r3
 8001400:	dd00      	ble.n	8001404 <u8g2_font_decode_glyph+0x204>
      a = u8g2_font_decode_get_unsigned_bits(decode, u8g2->font_info.bits_per_0);
 8001402:	e7d2      	b.n	80013aa <u8g2_font_decode_glyph+0x1aa>
	break;
 8001404:	bf00      	nop
    }
    
    /* restore the u8g2 draw color, because this is modified by the decode algo */
    u8g2->draw_color = decode->fg_color;
 8001406:	697b      	ldr	r3, [r7, #20]
 8001408:	7b9a      	ldrb	r2, [r3, #14]
 800140a:	687b      	ldr	r3, [r7, #4]
 800140c:	f883 2092 	strb.w	r2, [r3, #146]	@ 0x92
  }
  return d;
 8001410:	f997 3010 	ldrsb.w	r3, [r7, #16]
}
 8001414:	4618      	mov	r0, r3
 8001416:	3720      	adds	r7, #32
 8001418:	46bd      	mov	sp, r7
 800141a:	bd80      	pop	{r7, pc}

0800141c <u8g2_font_get_glyph_data>:
    encoding: Encoding (ASCII or Unicode) of the glyph
  Return:
    Address of the glyph data or NULL, if the encoding is not avialable in the font.
*/
const uint8_t *u8g2_font_get_glyph_data(u8g2_t *u8g2, uint16_t encoding)
{
 800141c:	b580      	push	{r7, lr}
 800141e:	b086      	sub	sp, #24
 8001420:	af00      	add	r7, sp, #0
 8001422:	6078      	str	r0, [r7, #4]
 8001424:	460b      	mov	r3, r1
 8001426:	807b      	strh	r3, [r7, #2]
  const uint8_t *font = u8g2->font;
 8001428:	687b      	ldr	r3, [r7, #4]
 800142a:	6d9b      	ldr	r3, [r3, #88]	@ 0x58
 800142c:	617b      	str	r3, [r7, #20]
  font += U8G2_FONT_DATA_STRUCT_SIZE;
 800142e:	697b      	ldr	r3, [r7, #20]
 8001430:	3317      	adds	r3, #23
 8001432:	617b      	str	r3, [r7, #20]

  
  if ( encoding <= 255 )
 8001434:	887b      	ldrh	r3, [r7, #2]
 8001436:	2bff      	cmp	r3, #255	@ 0xff
 8001438:	d82a      	bhi.n	8001490 <u8g2_font_get_glyph_data+0x74>
  {
    if ( encoding >= 'a' )
 800143a:	887b      	ldrh	r3, [r7, #2]
 800143c:	2b60      	cmp	r3, #96	@ 0x60
 800143e:	d907      	bls.n	8001450 <u8g2_font_get_glyph_data+0x34>
    {
      font += u8g2->font_info.start_pos_lower_a;
 8001440:	687b      	ldr	r3, [r7, #4]
 8001442:	f8b3 3088 	ldrh.w	r3, [r3, #136]	@ 0x88
 8001446:	461a      	mov	r2, r3
 8001448:	697b      	ldr	r3, [r7, #20]
 800144a:	4413      	add	r3, r2
 800144c:	617b      	str	r3, [r7, #20]
 800144e:	e009      	b.n	8001464 <u8g2_font_get_glyph_data+0x48>
    }
    else if ( encoding >= 'A' )
 8001450:	887b      	ldrh	r3, [r7, #2]
 8001452:	2b40      	cmp	r3, #64	@ 0x40
 8001454:	d906      	bls.n	8001464 <u8g2_font_get_glyph_data+0x48>
    {
      font += u8g2->font_info.start_pos_upper_A;
 8001456:	687b      	ldr	r3, [r7, #4]
 8001458:	f8b3 3086 	ldrh.w	r3, [r3, #134]	@ 0x86
 800145c:	461a      	mov	r2, r3
 800145e:	697b      	ldr	r3, [r7, #20]
 8001460:	4413      	add	r3, r2
 8001462:	617b      	str	r3, [r7, #20]
    }
    
    for(;;)
    {
      if ( u8x8_pgm_read( font + 1 ) == 0 )
 8001464:	697b      	ldr	r3, [r7, #20]
 8001466:	3301      	adds	r3, #1
 8001468:	781b      	ldrb	r3, [r3, #0]
 800146a:	2b00      	cmp	r3, #0
 800146c:	d04e      	beq.n	800150c <u8g2_font_get_glyph_data+0xf0>
	break;
      if ( u8x8_pgm_read( font ) == encoding )
 800146e:	697b      	ldr	r3, [r7, #20]
 8001470:	781b      	ldrb	r3, [r3, #0]
 8001472:	461a      	mov	r2, r3
 8001474:	887b      	ldrh	r3, [r7, #2]
 8001476:	4293      	cmp	r3, r2
 8001478:	d102      	bne.n	8001480 <u8g2_font_get_glyph_data+0x64>
      {
	return font+2;	/* skip encoding and glyph size */
 800147a:	697b      	ldr	r3, [r7, #20]
 800147c:	3302      	adds	r3, #2
 800147e:	e049      	b.n	8001514 <u8g2_font_get_glyph_data+0xf8>
      }
      font += u8x8_pgm_read( font + 1 );
 8001480:	697b      	ldr	r3, [r7, #20]
 8001482:	3301      	adds	r3, #1
 8001484:	781b      	ldrb	r3, [r3, #0]
 8001486:	461a      	mov	r2, r3
 8001488:	697b      	ldr	r3, [r7, #20]
 800148a:	4413      	add	r3, r2
 800148c:	617b      	str	r3, [r7, #20]
      if ( u8x8_pgm_read( font + 1 ) == 0 )
 800148e:	e7e9      	b.n	8001464 <u8g2_font_get_glyph_data+0x48>
//	font = u8g2->last_font_data;
//    }
//    else
//#endif 

    font += u8g2->font_info.start_pos_unicode;
 8001490:	687b      	ldr	r3, [r7, #4]
 8001492:	f8b3 308a 	ldrh.w	r3, [r3, #138]	@ 0x8a
 8001496:	461a      	mov	r2, r3
 8001498:	697b      	ldr	r3, [r7, #20]
 800149a:	4413      	add	r3, r2
 800149c:	617b      	str	r3, [r7, #20]
    unicode_lookup_table = font; 
 800149e:	697b      	ldr	r3, [r7, #20]
 80014a0:	613b      	str	r3, [r7, #16]
  
    /* issue 596: search for the glyph start in the unicode lookup table */
    do
    {
      font += u8g2_font_get_word(unicode_lookup_table, 0);
 80014a2:	2100      	movs	r1, #0
 80014a4:	6938      	ldr	r0, [r7, #16]
 80014a6:	f7ff fc3f 	bl	8000d28 <u8g2_font_get_word>
 80014aa:	4603      	mov	r3, r0
 80014ac:	461a      	mov	r2, r3
 80014ae:	697b      	ldr	r3, [r7, #20]
 80014b0:	4413      	add	r3, r2
 80014b2:	617b      	str	r3, [r7, #20]
      e = u8g2_font_get_word(unicode_lookup_table, 2);
 80014b4:	2102      	movs	r1, #2
 80014b6:	6938      	ldr	r0, [r7, #16]
 80014b8:	f7ff fc36 	bl	8000d28 <u8g2_font_get_word>
 80014bc:	4603      	mov	r3, r0
 80014be:	81fb      	strh	r3, [r7, #14]
      unicode_lookup_table+=4;
 80014c0:	693b      	ldr	r3, [r7, #16]
 80014c2:	3304      	adds	r3, #4
 80014c4:	613b      	str	r3, [r7, #16]
    } while( e < encoding );
 80014c6:	89fa      	ldrh	r2, [r7, #14]
 80014c8:	887b      	ldrh	r3, [r7, #2]
 80014ca:	429a      	cmp	r2, r3
 80014cc:	d3e9      	bcc.n	80014a2 <u8g2_font_get_glyph_data+0x86>
    
  
    for(;;)
    {
      e = u8x8_pgm_read( font );
 80014ce:	697b      	ldr	r3, [r7, #20]
 80014d0:	781b      	ldrb	r3, [r3, #0]
 80014d2:	81fb      	strh	r3, [r7, #14]
      e <<= 8;
 80014d4:	89fb      	ldrh	r3, [r7, #14]
 80014d6:	021b      	lsls	r3, r3, #8
 80014d8:	81fb      	strh	r3, [r7, #14]
      e |= u8x8_pgm_read( font + 1 );
 80014da:	697b      	ldr	r3, [r7, #20]
 80014dc:	3301      	adds	r3, #1
 80014de:	781b      	ldrb	r3, [r3, #0]
 80014e0:	461a      	mov	r2, r3
 80014e2:	89fb      	ldrh	r3, [r7, #14]
 80014e4:	4313      	orrs	r3, r2
 80014e6:	81fb      	strh	r3, [r7, #14]
//#ifdef  __unix__
//      if ( encoding < e )
//        break;
//#endif 

      if ( e == 0 )
 80014e8:	89fb      	ldrh	r3, [r7, #14]
 80014ea:	2b00      	cmp	r3, #0
 80014ec:	d010      	beq.n	8001510 <u8g2_font_get_glyph_data+0xf4>
	break;
  
      if ( e == encoding )
 80014ee:	89fa      	ldrh	r2, [r7, #14]
 80014f0:	887b      	ldrh	r3, [r7, #2]
 80014f2:	429a      	cmp	r2, r3
 80014f4:	d102      	bne.n	80014fc <u8g2_font_get_glyph_data+0xe0>
// removed, there is now the new index table
//#ifdef  __unix__
//	u8g2->last_font_data = font;
//	u8g2->last_unicode = encoding;
//#endif 
	return font+3;	/* skip encoding and glyph size */
 80014f6:	697b      	ldr	r3, [r7, #20]
 80014f8:	3303      	adds	r3, #3
 80014fa:	e00b      	b.n	8001514 <u8g2_font_get_glyph_data+0xf8>
      }
      font += u8x8_pgm_read( font + 2 );
 80014fc:	697b      	ldr	r3, [r7, #20]
 80014fe:	3302      	adds	r3, #2
 8001500:	781b      	ldrb	r3, [r3, #0]
 8001502:	461a      	mov	r2, r3
 8001504:	697b      	ldr	r3, [r7, #20]
 8001506:	4413      	add	r3, r2
 8001508:	617b      	str	r3, [r7, #20]
      e = u8x8_pgm_read( font );
 800150a:	e7e0      	b.n	80014ce <u8g2_font_get_glyph_data+0xb2>
	break;
 800150c:	bf00      	nop
 800150e:	e000      	b.n	8001512 <u8g2_font_get_glyph_data+0xf6>
	break;
 8001510:	bf00      	nop
    }  
  }
#endif
  
  return NULL;
 8001512:	2300      	movs	r3, #0
}
 8001514:	4618      	mov	r0, r3
 8001516:	3718      	adds	r7, #24
 8001518:	46bd      	mov	sp, r7
 800151a:	bd80      	pop	{r7, pc}

0800151c <u8g2_font_draw_glyph>:

static u8g2_uint_t u8g2_font_draw_glyph(u8g2_t *u8g2, u8g2_uint_t x, u8g2_uint_t y, uint16_t encoding)
{
 800151c:	b580      	push	{r7, lr}
 800151e:	b086      	sub	sp, #24
 8001520:	af00      	add	r7, sp, #0
 8001522:	60f8      	str	r0, [r7, #12]
 8001524:	4608      	mov	r0, r1
 8001526:	4611      	mov	r1, r2
 8001528:	461a      	mov	r2, r3
 800152a:	4603      	mov	r3, r0
 800152c:	817b      	strh	r3, [r7, #10]
 800152e:	460b      	mov	r3, r1
 8001530:	813b      	strh	r3, [r7, #8]
 8001532:	4613      	mov	r3, r2
 8001534:	80fb      	strh	r3, [r7, #6]
  u8g2_uint_t dx = 0;
 8001536:	2300      	movs	r3, #0
 8001538:	82fb      	strh	r3, [r7, #22]
  u8g2->font_decode.target_x = x;
 800153a:	68fb      	ldr	r3, [r7, #12]
 800153c:	897a      	ldrh	r2, [r7, #10]
 800153e:	f8a3 2064 	strh.w	r2, [r3, #100]	@ 0x64
  u8g2->font_decode.target_y = y;
 8001542:	68fb      	ldr	r3, [r7, #12]
 8001544:	893a      	ldrh	r2, [r7, #8]
 8001546:	f8a3 2066 	strh.w	r2, [r3, #102]	@ 0x66
  //u8g2->font_decode.is_transparent = is_transparent; this is already set
  //u8g2->font_decode.dir = dir;
  const uint8_t *glyph_data = u8g2_font_get_glyph_data(u8g2, encoding);
 800154a:	88fb      	ldrh	r3, [r7, #6]
 800154c:	4619      	mov	r1, r3
 800154e:	68f8      	ldr	r0, [r7, #12]
 8001550:	f7ff ff64 	bl	800141c <u8g2_font_get_glyph_data>
 8001554:	6138      	str	r0, [r7, #16]
  if ( glyph_data != NULL )
 8001556:	693b      	ldr	r3, [r7, #16]
 8001558:	2b00      	cmp	r3, #0
 800155a:	d005      	beq.n	8001568 <u8g2_font_draw_glyph+0x4c>
  {
    dx = u8g2_font_decode_glyph(u8g2, glyph_data);
 800155c:	6939      	ldr	r1, [r7, #16]
 800155e:	68f8      	ldr	r0, [r7, #12]
 8001560:	f7ff fe4e 	bl	8001200 <u8g2_font_decode_glyph>
 8001564:	4603      	mov	r3, r0
 8001566:	82fb      	strh	r3, [r7, #22]
  }
  return dx;
 8001568:	8afb      	ldrh	r3, [r7, #22]
}
 800156a:	4618      	mov	r0, r3
 800156c:	3718      	adds	r7, #24
 800156e:	46bd      	mov	sp, r7
 8001570:	bd80      	pop	{r7, pc}
	...

08001574 <u8g2_DrawGlyph>:
{
  u8g2->font_decode.is_transparent = is_transparent;		// new font procedures
}

u8g2_uint_t u8g2_DrawGlyph(u8g2_t *u8g2, u8g2_uint_t x, u8g2_uint_t y, uint16_t encoding)
{
 8001574:	b580      	push	{r7, lr}
 8001576:	b084      	sub	sp, #16
 8001578:	af00      	add	r7, sp, #0
 800157a:	60f8      	str	r0, [r7, #12]
 800157c:	4608      	mov	r0, r1
 800157e:	4611      	mov	r1, r2
 8001580:	461a      	mov	r2, r3
 8001582:	4603      	mov	r3, r0
 8001584:	817b      	strh	r3, [r7, #10]
 8001586:	460b      	mov	r3, r1
 8001588:	813b      	strh	r3, [r7, #8]
 800158a:	4613      	mov	r3, r2
 800158c:	80fb      	strh	r3, [r7, #6]
#ifdef U8G2_WITH_FONT_ROTATION
  switch(u8g2->font_decode.dir)
 800158e:	68fb      	ldr	r3, [r7, #12]
 8001590:	f893 3070 	ldrb.w	r3, [r3, #112]	@ 0x70
 8001594:	2b03      	cmp	r3, #3
 8001596:	d833      	bhi.n	8001600 <u8g2_DrawGlyph+0x8c>
 8001598:	a201      	add	r2, pc, #4	@ (adr r2, 80015a0 <u8g2_DrawGlyph+0x2c>)
 800159a:	f852 f023 	ldr.w	pc, [r2, r3, lsl #2]
 800159e:	bf00      	nop
 80015a0:	080015b1 	.word	0x080015b1
 80015a4:	080015c5 	.word	0x080015c5
 80015a8:	080015d9 	.word	0x080015d9
 80015ac:	080015ed 	.word	0x080015ed
  {
    case 0:
      y += u8g2->font_calc_vref(u8g2);
 80015b0:	68fb      	ldr	r3, [r7, #12]
 80015b2:	6ddb      	ldr	r3, [r3, #92]	@ 0x5c
 80015b4:	68f8      	ldr	r0, [r7, #12]
 80015b6:	4798      	blx	r3
 80015b8:	4603      	mov	r3, r0
 80015ba:	461a      	mov	r2, r3
 80015bc:	893b      	ldrh	r3, [r7, #8]
 80015be:	4413      	add	r3, r2
 80015c0:	813b      	strh	r3, [r7, #8]
      break;
 80015c2:	e01d      	b.n	8001600 <u8g2_DrawGlyph+0x8c>
    case 1:
      x -= u8g2->font_calc_vref(u8g2);
 80015c4:	68fb      	ldr	r3, [r7, #12]
 80015c6:	6ddb      	ldr	r3, [r3, #92]	@ 0x5c
 80015c8:	68f8      	ldr	r0, [r7, #12]
 80015ca:	4798      	blx	r3
 80015cc:	4603      	mov	r3, r0
 80015ce:	461a      	mov	r2, r3
 80015d0:	897b      	ldrh	r3, [r7, #10]
 80015d2:	1a9b      	subs	r3, r3, r2
 80015d4:	817b      	strh	r3, [r7, #10]
      break;
 80015d6:	e013      	b.n	8001600 <u8g2_DrawGlyph+0x8c>
    case 2:
      y -= u8g2->font_calc_vref(u8g2);
 80015d8:	68fb      	ldr	r3, [r7, #12]
 80015da:	6ddb      	ldr	r3, [r3, #92]	@ 0x5c
 80015dc:	68f8      	ldr	r0, [r7, #12]
 80015de:	4798      	blx	r3
 80015e0:	4603      	mov	r3, r0
 80015e2:	461a      	mov	r2, r3
 80015e4:	893b      	ldrh	r3, [r7, #8]
 80015e6:	1a9b      	subs	r3, r3, r2
 80015e8:	813b      	strh	r3, [r7, #8]
      break;
 80015ea:	e009      	b.n	8001600 <u8g2_DrawGlyph+0x8c>
    case 3:
      x += u8g2->font_calc_vref(u8g2);
 80015ec:	68fb      	ldr	r3, [r7, #12]
 80015ee:	6ddb      	ldr	r3, [r3, #92]	@ 0x5c
 80015f0:	68f8      	ldr	r0, [r7, #12]
 80015f2:	4798      	blx	r3
 80015f4:	4603      	mov	r3, r0
 80015f6:	461a      	mov	r2, r3
 80015f8:	897b      	ldrh	r3, [r7, #10]
 80015fa:	4413      	add	r3, r2
 80015fc:	817b      	strh	r3, [r7, #10]
      break;
 80015fe:	bf00      	nop
  }
#else
  y += u8g2->font_calc_vref(u8g2);
#endif
  return u8g2_font_draw_glyph(u8g2, x, y, encoding);
 8001600:	88fb      	ldrh	r3, [r7, #6]
 8001602:	893a      	ldrh	r2, [r7, #8]
 8001604:	8979      	ldrh	r1, [r7, #10]
 8001606:	68f8      	ldr	r0, [r7, #12]
 8001608:	f7ff ff88 	bl	800151c <u8g2_font_draw_glyph>
 800160c:	4603      	mov	r3, r0
}
 800160e:	4618      	mov	r0, r3
 8001610:	3710      	adds	r7, #16
 8001612:	46bd      	mov	sp, r7
 8001614:	bd80      	pop	{r7, pc}
 8001616:	bf00      	nop

08001618 <u8g2_draw_string>:
  return u8g2_font_2x_draw_glyph(u8g2, x, y, encoding);
}

static u8g2_uint_t u8g2_draw_string(u8g2_t *u8g2, u8g2_uint_t x, u8g2_uint_t y, const char *str) U8G2_NOINLINE;
static u8g2_uint_t u8g2_draw_string(u8g2_t *u8g2, u8g2_uint_t x, u8g2_uint_t y, const char *str)
{
 8001618:	b580      	push	{r7, lr}
 800161a:	b086      	sub	sp, #24
 800161c:	af00      	add	r7, sp, #0
 800161e:	60f8      	str	r0, [r7, #12]
 8001620:	607b      	str	r3, [r7, #4]
 8001622:	460b      	mov	r3, r1
 8001624:	817b      	strh	r3, [r7, #10]
 8001626:	4613      	mov	r3, r2
 8001628:	813b      	strh	r3, [r7, #8]
  uint16_t e;
  u8g2_uint_t delta, sum;
  u8x8_utf8_init(u8g2_GetU8x8(u8g2));
 800162a:	68f8      	ldr	r0, [r7, #12]
 800162c:	f000 fc69 	bl	8001f02 <u8x8_utf8_init>
  sum = 0;
 8001630:	2300      	movs	r3, #0
 8001632:	82fb      	strh	r3, [r7, #22]
  for(;;)
  {
    e = u8g2->u8x8.next_cb(u8g2_GetU8x8(u8g2), (uint8_t)*str);
 8001634:	68fb      	ldr	r3, [r7, #12]
 8001636:	685b      	ldr	r3, [r3, #4]
 8001638:	687a      	ldr	r2, [r7, #4]
 800163a:	7812      	ldrb	r2, [r2, #0]
 800163c:	4611      	mov	r1, r2
 800163e:	68f8      	ldr	r0, [r7, #12]
 8001640:	4798      	blx	r3
 8001642:	4603      	mov	r3, r0
 8001644:	82bb      	strh	r3, [r7, #20]
    if ( e == 0x0ffff )
 8001646:	8abb      	ldrh	r3, [r7, #20]
 8001648:	f64f 72ff 	movw	r2, #65535	@ 0xffff
 800164c:	4293      	cmp	r3, r2
 800164e:	d038      	beq.n	80016c2 <u8g2_draw_string+0xaa>
      break;
    str++;
 8001650:	687b      	ldr	r3, [r7, #4]
 8001652:	3301      	adds	r3, #1
 8001654:	607b      	str	r3, [r7, #4]
    if ( e != 0x0fffe )
 8001656:	8abb      	ldrh	r3, [r7, #20]
 8001658:	f64f 72fe 	movw	r2, #65534	@ 0xfffe
 800165c:	4293      	cmp	r3, r2
 800165e:	d0e9      	beq.n	8001634 <u8g2_draw_string+0x1c>
    {
      delta = u8g2_DrawGlyph(u8g2, x, y, e);
 8001660:	8abb      	ldrh	r3, [r7, #20]
 8001662:	893a      	ldrh	r2, [r7, #8]
 8001664:	8979      	ldrh	r1, [r7, #10]
 8001666:	68f8      	ldr	r0, [r7, #12]
 8001668:	f7ff ff84 	bl	8001574 <u8g2_DrawGlyph>
 800166c:	4603      	mov	r3, r0
 800166e:	827b      	strh	r3, [r7, #18]
    
#ifdef U8G2_WITH_FONT_ROTATION
      switch(u8g2->font_decode.dir)
 8001670:	68fb      	ldr	r3, [r7, #12]
 8001672:	f893 3070 	ldrb.w	r3, [r3, #112]	@ 0x70
 8001676:	2b03      	cmp	r3, #3
 8001678:	d81e      	bhi.n	80016b8 <u8g2_draw_string+0xa0>
 800167a:	a201      	add	r2, pc, #4	@ (adr r2, 8001680 <u8g2_draw_string+0x68>)
 800167c:	f852 f023 	ldr.w	pc, [r2, r3, lsl #2]
 8001680:	08001691 	.word	0x08001691
 8001684:	0800169b 	.word	0x0800169b
 8001688:	080016a5 	.word	0x080016a5
 800168c:	080016af 	.word	0x080016af
      {
	case 0:
	  x += delta;
 8001690:	897a      	ldrh	r2, [r7, #10]
 8001692:	8a7b      	ldrh	r3, [r7, #18]
 8001694:	4413      	add	r3, r2
 8001696:	817b      	strh	r3, [r7, #10]
	  break;
 8001698:	e00e      	b.n	80016b8 <u8g2_draw_string+0xa0>
	case 1:
	  y += delta;
 800169a:	893a      	ldrh	r2, [r7, #8]
 800169c:	8a7b      	ldrh	r3, [r7, #18]
 800169e:	4413      	add	r3, r2
 80016a0:	813b      	strh	r3, [r7, #8]
	  break;
 80016a2:	e009      	b.n	80016b8 <u8g2_draw_string+0xa0>
	case 2:
	  x -= delta;
 80016a4:	897a      	ldrh	r2, [r7, #10]
 80016a6:	8a7b      	ldrh	r3, [r7, #18]
 80016a8:	1ad3      	subs	r3, r2, r3
 80016aa:	817b      	strh	r3, [r7, #10]
	  break;
 80016ac:	e004      	b.n	80016b8 <u8g2_draw_string+0xa0>
	case 3:
	  y -= delta;
 80016ae:	893a      	ldrh	r2, [r7, #8]
 80016b0:	8a7b      	ldrh	r3, [r7, #18]
 80016b2:	1ad3      	subs	r3, r2, r3
 80016b4:	813b      	strh	r3, [r7, #8]
	  break;
 80016b6:	bf00      	nop

#else
      x += delta;
#endif

      sum += delta;    
 80016b8:	8afa      	ldrh	r2, [r7, #22]
 80016ba:	8a7b      	ldrh	r3, [r7, #18]
 80016bc:	4413      	add	r3, r2
 80016be:	82fb      	strh	r3, [r7, #22]
    e = u8g2->u8x8.next_cb(u8g2_GetU8x8(u8g2), (uint8_t)*str);
 80016c0:	e7b8      	b.n	8001634 <u8g2_draw_string+0x1c>
      break;
 80016c2:	bf00      	nop
    }
  }
  return sum;
 80016c4:	8afb      	ldrh	r3, [r7, #22]
}
 80016c6:	4618      	mov	r0, r3
 80016c8:	3718      	adds	r7, #24
 80016ca:	46bd      	mov	sp, r7
 80016cc:	bd80      	pop	{r7, pc}
 80016ce:	bf00      	nop

080016d0 <u8g2_DrawStr>:
  }
  return sum;
}

u8g2_uint_t u8g2_DrawStr(u8g2_t *u8g2, u8g2_uint_t x, u8g2_uint_t y, const char *str)
{
 80016d0:	b580      	push	{r7, lr}
 80016d2:	b084      	sub	sp, #16
 80016d4:	af00      	add	r7, sp, #0
 80016d6:	60f8      	str	r0, [r7, #12]
 80016d8:	607b      	str	r3, [r7, #4]
 80016da:	460b      	mov	r3, r1
 80016dc:	817b      	strh	r3, [r7, #10]
 80016de:	4613      	mov	r3, r2
 80016e0:	813b      	strh	r3, [r7, #8]
  u8g2->u8x8.next_cb = u8x8_ascii_next;
 80016e2:	68fb      	ldr	r3, [r7, #12]
 80016e4:	4a06      	ldr	r2, [pc, #24]	@ (8001700 <u8g2_DrawStr+0x30>)
 80016e6:	605a      	str	r2, [r3, #4]
  return u8g2_draw_string(u8g2, x, y, str);
 80016e8:	893a      	ldrh	r2, [r7, #8]
 80016ea:	8979      	ldrh	r1, [r7, #10]
 80016ec:	687b      	ldr	r3, [r7, #4]
 80016ee:	68f8      	ldr	r0, [r7, #12]
 80016f0:	f7ff ff92 	bl	8001618 <u8g2_draw_string>
 80016f4:	4603      	mov	r3, r0
}
 80016f6:	4618      	mov	r0, r3
 80016f8:	3710      	adds	r7, #16
 80016fa:	46bd      	mov	sp, r7
 80016fc:	bd80      	pop	{r7, pc}
 80016fe:	bf00      	nop
 8001700:	08001f1f 	.word	0x08001f1f

08001704 <u8g2_UpdateRefHeight>:
/*===============================================*/

/* set ascent/descent for reference point calculation */

void u8g2_UpdateRefHeight(u8g2_t *u8g2)
{
 8001704:	b480      	push	{r7}
 8001706:	b083      	sub	sp, #12
 8001708:	af00      	add	r7, sp, #0
 800170a:	6078      	str	r0, [r7, #4]
  if ( u8g2->font == NULL )
 800170c:	687b      	ldr	r3, [r7, #4]
 800170e:	6d9b      	ldr	r3, [r3, #88]	@ 0x58
 8001710:	2b00      	cmp	r3, #0
 8001712:	d05d      	beq.n	80017d0 <u8g2_UpdateRefHeight+0xcc>
    return;
  u8g2->font_ref_ascent = u8g2->font_info.ascent_A;
 8001714:	687b      	ldr	r3, [r7, #4]
 8001716:	f993 2081 	ldrsb.w	r2, [r3, #129]	@ 0x81
 800171a:	687b      	ldr	r3, [r7, #4]
 800171c:	f883 208e 	strb.w	r2, [r3, #142]	@ 0x8e
  u8g2->font_ref_descent = u8g2->font_info.descent_g;
 8001720:	687b      	ldr	r3, [r7, #4]
 8001722:	f993 2082 	ldrsb.w	r2, [r3, #130]	@ 0x82
 8001726:	687b      	ldr	r3, [r7, #4]
 8001728:	f883 208f 	strb.w	r2, [r3, #143]	@ 0x8f
  if ( u8g2->font_height_mode == U8G2_FONT_HEIGHT_MODE_TEXT )
 800172c:	687b      	ldr	r3, [r7, #4]
 800172e:	f893 308d 	ldrb.w	r3, [r3, #141]	@ 0x8d
 8001732:	2b00      	cmp	r3, #0
 8001734:	d04d      	beq.n	80017d2 <u8g2_UpdateRefHeight+0xce>
  {
  }
  else if ( u8g2->font_height_mode == U8G2_FONT_HEIGHT_MODE_XTEXT )
 8001736:	687b      	ldr	r3, [r7, #4]
 8001738:	f893 308d 	ldrb.w	r3, [r3, #141]	@ 0x8d
 800173c:	2b01      	cmp	r3, #1
 800173e:	d11c      	bne.n	800177a <u8g2_UpdateRefHeight+0x76>
  {
    if ( u8g2->font_ref_ascent < u8g2->font_info.ascent_para )
 8001740:	687b      	ldr	r3, [r7, #4]
 8001742:	f993 208e 	ldrsb.w	r2, [r3, #142]	@ 0x8e
 8001746:	687b      	ldr	r3, [r7, #4]
 8001748:	f993 3083 	ldrsb.w	r3, [r3, #131]	@ 0x83
 800174c:	429a      	cmp	r2, r3
 800174e:	da05      	bge.n	800175c <u8g2_UpdateRefHeight+0x58>
      u8g2->font_ref_ascent = u8g2->font_info.ascent_para;
 8001750:	687b      	ldr	r3, [r7, #4]
 8001752:	f993 2083 	ldrsb.w	r2, [r3, #131]	@ 0x83
 8001756:	687b      	ldr	r3, [r7, #4]
 8001758:	f883 208e 	strb.w	r2, [r3, #142]	@ 0x8e
    if ( u8g2->font_ref_descent > u8g2->font_info.descent_para )
 800175c:	687b      	ldr	r3, [r7, #4]
 800175e:	f993 208f 	ldrsb.w	r2, [r3, #143]	@ 0x8f
 8001762:	687b      	ldr	r3, [r7, #4]
 8001764:	f993 3084 	ldrsb.w	r3, [r3, #132]	@ 0x84
 8001768:	429a      	cmp	r2, r3
 800176a:	dd32      	ble.n	80017d2 <u8g2_UpdateRefHeight+0xce>
      u8g2->font_ref_descent = u8g2->font_info.descent_para;
 800176c:	687b      	ldr	r3, [r7, #4]
 800176e:	f993 2084 	ldrsb.w	r2, [r3, #132]	@ 0x84
 8001772:	687b      	ldr	r3, [r7, #4]
 8001774:	f883 208f 	strb.w	r2, [r3, #143]	@ 0x8f
 8001778:	e02b      	b.n	80017d2 <u8g2_UpdateRefHeight+0xce>
  }
  else
  {
    if ( u8g2->font_ref_ascent < u8g2->font_info.max_char_height+u8g2->font_info.y_offset )
 800177a:	687b      	ldr	r3, [r7, #4]
 800177c:	f993 308e 	ldrsb.w	r3, [r3, #142]	@ 0x8e
 8001780:	461a      	mov	r2, r3
 8001782:	687b      	ldr	r3, [r7, #4]
 8001784:	f993 307e 	ldrsb.w	r3, [r3, #126]	@ 0x7e
 8001788:	4619      	mov	r1, r3
 800178a:	687b      	ldr	r3, [r7, #4]
 800178c:	f993 3080 	ldrsb.w	r3, [r3, #128]	@ 0x80
 8001790:	440b      	add	r3, r1
 8001792:	429a      	cmp	r2, r3
 8001794:	da0d      	bge.n	80017b2 <u8g2_UpdateRefHeight+0xae>
      u8g2->font_ref_ascent = u8g2->font_info.max_char_height+u8g2->font_info.y_offset;
 8001796:	687b      	ldr	r3, [r7, #4]
 8001798:	f993 307e 	ldrsb.w	r3, [r3, #126]	@ 0x7e
 800179c:	b2da      	uxtb	r2, r3
 800179e:	687b      	ldr	r3, [r7, #4]
 80017a0:	f993 3080 	ldrsb.w	r3, [r3, #128]	@ 0x80
 80017a4:	b2db      	uxtb	r3, r3
 80017a6:	4413      	add	r3, r2
 80017a8:	b2db      	uxtb	r3, r3
 80017aa:	b25a      	sxtb	r2, r3
 80017ac:	687b      	ldr	r3, [r7, #4]
 80017ae:	f883 208e 	strb.w	r2, [r3, #142]	@ 0x8e
    if ( u8g2->font_ref_descent > u8g2->font_info.y_offset )
 80017b2:	687b      	ldr	r3, [r7, #4]
 80017b4:	f993 208f 	ldrsb.w	r2, [r3, #143]	@ 0x8f
 80017b8:	687b      	ldr	r3, [r7, #4]
 80017ba:	f993 3080 	ldrsb.w	r3, [r3, #128]	@ 0x80
 80017be:	429a      	cmp	r2, r3
 80017c0:	dd07      	ble.n	80017d2 <u8g2_UpdateRefHeight+0xce>
      u8g2->font_ref_descent = u8g2->font_info.y_offset;
 80017c2:	687b      	ldr	r3, [r7, #4]
 80017c4:	f993 2080 	ldrsb.w	r2, [r3, #128]	@ 0x80
 80017c8:	687b      	ldr	r3, [r7, #4]
 80017ca:	f883 208f 	strb.w	r2, [r3, #143]	@ 0x8f
 80017ce:	e000      	b.n	80017d2 <u8g2_UpdateRefHeight+0xce>
    return;
 80017d0:	bf00      	nop
  }  
}
 80017d2:	370c      	adds	r7, #12
 80017d4:	46bd      	mov	sp, r7
 80017d6:	f85d 7b04 	ldr.w	r7, [sp], #4
 80017da:	4770      	bx	lr

080017dc <u8g2_font_calc_vref_font>:

/*===============================================*/
/* callback procedures to correct the y position */

u8g2_uint_t u8g2_font_calc_vref_font(U8X8_UNUSED u8g2_t *u8g2)
{
 80017dc:	b480      	push	{r7}
 80017de:	b083      	sub	sp, #12
 80017e0:	af00      	add	r7, sp, #0
 80017e2:	6078      	str	r0, [r7, #4]
  return 0;
 80017e4:	2300      	movs	r3, #0
}
 80017e6:	4618      	mov	r0, r3
 80017e8:	370c      	adds	r7, #12
 80017ea:	46bd      	mov	sp, r7
 80017ec:	f85d 7b04 	ldr.w	r7, [sp], #4
 80017f0:	4770      	bx	lr
	...

080017f4 <u8g2_SetFontPosBaseline>:

void u8g2_SetFontPosBaseline(u8g2_t *u8g2)
{
 80017f4:	b480      	push	{r7}
 80017f6:	b083      	sub	sp, #12
 80017f8:	af00      	add	r7, sp, #0
 80017fa:	6078      	str	r0, [r7, #4]
  u8g2->font_calc_vref = u8g2_font_calc_vref_font;
 80017fc:	687b      	ldr	r3, [r7, #4]
 80017fe:	4a04      	ldr	r2, [pc, #16]	@ (8001810 <u8g2_SetFontPosBaseline+0x1c>)
 8001800:	65da      	str	r2, [r3, #92]	@ 0x5c
}
 8001802:	bf00      	nop
 8001804:	370c      	adds	r7, #12
 8001806:	46bd      	mov	sp, r7
 8001808:	f85d 7b04 	ldr.w	r7, [sp], #4
 800180c:	4770      	bx	lr
 800180e:	bf00      	nop
 8001810:	080017dd 	.word	0x080017dd

08001814 <u8g2_SetFont>:
}

/*===============================================*/

void u8g2_SetFont(u8g2_t *u8g2, const uint8_t  *font)
{
 8001814:	b580      	push	{r7, lr}
 8001816:	b082      	sub	sp, #8
 8001818:	af00      	add	r7, sp, #0
 800181a:	6078      	str	r0, [r7, #4]
 800181c:	6039      	str	r1, [r7, #0]
  if ( u8g2->font != font )
 800181e:	687b      	ldr	r3, [r7, #4]
 8001820:	6d9b      	ldr	r3, [r3, #88]	@ 0x58
 8001822:	683a      	ldr	r2, [r7, #0]
 8001824:	429a      	cmp	r2, r3
 8001826:	d00b      	beq.n	8001840 <u8g2_SetFont+0x2c>
  {
//#ifdef  __unix__
//	u8g2->last_font_data = NULL;
//	u8g2->last_unicode = 0x0ffff;
//#endif 
    u8g2->font = font;
 8001828:	687b      	ldr	r3, [r7, #4]
 800182a:	683a      	ldr	r2, [r7, #0]
 800182c:	659a      	str	r2, [r3, #88]	@ 0x58
    u8g2_read_font_info(&(u8g2->font_info), font);
 800182e:	687b      	ldr	r3, [r7, #4]
 8001830:	3374      	adds	r3, #116	@ 0x74
 8001832:	6839      	ldr	r1, [r7, #0]
 8001834:	4618      	mov	r0, r3
 8001836:	f7ff fa97 	bl	8000d68 <u8g2_read_font_info>
    u8g2_UpdateRefHeight(u8g2);
 800183a:	6878      	ldr	r0, [r7, #4]
 800183c:	f7ff ff62 	bl	8001704 <u8g2_UpdateRefHeight>
    /* u8g2_SetFontPosBaseline(u8g2); */ /* removed with issue 195 */
  }
}
 8001840:	bf00      	nop
 8001842:	3708      	adds	r7, #8
 8001844:	46bd      	mov	sp, r7
 8001846:	bd80      	pop	{r7, pc}

08001848 <u8g2_clip_intersection2>:
  will return 0 if there is no intersection and if a > b

*/

static uint8_t u8g2_clip_intersection2(u8g2_uint_t *ap, u8g2_uint_t *len, u8g2_uint_t c, u8g2_uint_t d)
{
 8001848:	b480      	push	{r7}
 800184a:	b087      	sub	sp, #28
 800184c:	af00      	add	r7, sp, #0
 800184e:	60f8      	str	r0, [r7, #12]
 8001850:	60b9      	str	r1, [r7, #8]
 8001852:	4611      	mov	r1, r2
 8001854:	461a      	mov	r2, r3
 8001856:	460b      	mov	r3, r1
 8001858:	80fb      	strh	r3, [r7, #6]
 800185a:	4613      	mov	r3, r2
 800185c:	80bb      	strh	r3, [r7, #4]
  u8g2_uint_t a = *ap;
 800185e:	68fb      	ldr	r3, [r7, #12]
 8001860:	881b      	ldrh	r3, [r3, #0]
 8001862:	82fb      	strh	r3, [r7, #22]
  u8g2_uint_t b;
  b  = a;
 8001864:	8afb      	ldrh	r3, [r7, #22]
 8001866:	82bb      	strh	r3, [r7, #20]
  b += *len;
 8001868:	68bb      	ldr	r3, [r7, #8]
 800186a:	881a      	ldrh	r2, [r3, #0]
 800186c:	8abb      	ldrh	r3, [r7, #20]
 800186e:	4413      	add	r3, r2
 8001870:	82bb      	strh	r3, [r7, #20]
  /* be removed completly (be aware about memory curruption for wrong */
  /* arguments) or return 0 for a>b (will lead to skipped lines for wrong */
  /* arguments) */  
  
  /* removing the following if clause completly may lead to memory corruption of a>b */
  if ( a > b )
 8001872:	8afa      	ldrh	r2, [r7, #22]
 8001874:	8abb      	ldrh	r3, [r7, #20]
 8001876:	429a      	cmp	r2, r3
 8001878:	d90b      	bls.n	8001892 <u8g2_clip_intersection2+0x4a>
  {    
    /* replacing this if with a simple "return 0;" will not handle the case with negative a */    
    if ( a < d )
 800187a:	8afa      	ldrh	r2, [r7, #22]
 800187c:	88bb      	ldrh	r3, [r7, #4]
 800187e:	429a      	cmp	r2, r3
 8001880:	d205      	bcs.n	800188e <u8g2_clip_intersection2+0x46>
    {
      b = d;
 8001882:	88bb      	ldrh	r3, [r7, #4]
 8001884:	82bb      	strh	r3, [r7, #20]
      b--;
 8001886:	8abb      	ldrh	r3, [r7, #20]
 8001888:	3b01      	subs	r3, #1
 800188a:	82bb      	strh	r3, [r7, #20]
 800188c:	e001      	b.n	8001892 <u8g2_clip_intersection2+0x4a>
    }
    else
    {
      a = c;
 800188e:	88fb      	ldrh	r3, [r7, #6]
 8001890:	82fb      	strh	r3, [r7, #22]
    }
  }
  
  /* from now on, the asumption a <= b is ok */
  
  if ( a >= d )
 8001892:	8afa      	ldrh	r2, [r7, #22]
 8001894:	88bb      	ldrh	r3, [r7, #4]
 8001896:	429a      	cmp	r2, r3
 8001898:	d301      	bcc.n	800189e <u8g2_clip_intersection2+0x56>
    return 0;
 800189a:	2300      	movs	r3, #0
 800189c:	e01c      	b.n	80018d8 <u8g2_clip_intersection2+0x90>
  if ( b <= c )
 800189e:	8aba      	ldrh	r2, [r7, #20]
 80018a0:	88fb      	ldrh	r3, [r7, #6]
 80018a2:	429a      	cmp	r2, r3
 80018a4:	d801      	bhi.n	80018aa <u8g2_clip_intersection2+0x62>
    return 0;
 80018a6:	2300      	movs	r3, #0
 80018a8:	e016      	b.n	80018d8 <u8g2_clip_intersection2+0x90>
  if ( a < c )		
 80018aa:	8afa      	ldrh	r2, [r7, #22]
 80018ac:	88fb      	ldrh	r3, [r7, #6]
 80018ae:	429a      	cmp	r2, r3
 80018b0:	d201      	bcs.n	80018b6 <u8g2_clip_intersection2+0x6e>
    a = c;
 80018b2:	88fb      	ldrh	r3, [r7, #6]
 80018b4:	82fb      	strh	r3, [r7, #22]
  if ( b > d )
 80018b6:	8aba      	ldrh	r2, [r7, #20]
 80018b8:	88bb      	ldrh	r3, [r7, #4]
 80018ba:	429a      	cmp	r2, r3
 80018bc:	d901      	bls.n	80018c2 <u8g2_clip_intersection2+0x7a>
    b = d;
 80018be:	88bb      	ldrh	r3, [r7, #4]
 80018c0:	82bb      	strh	r3, [r7, #20]
  
  *ap = a;
 80018c2:	68fb      	ldr	r3, [r7, #12]
 80018c4:	8afa      	ldrh	r2, [r7, #22]
 80018c6:	801a      	strh	r2, [r3, #0]
  b -= a;
 80018c8:	8aba      	ldrh	r2, [r7, #20]
 80018ca:	8afb      	ldrh	r3, [r7, #22]
 80018cc:	1ad3      	subs	r3, r2, r3
 80018ce:	82bb      	strh	r3, [r7, #20]
  *len = b;
 80018d0:	68bb      	ldr	r3, [r7, #8]
 80018d2:	8aba      	ldrh	r2, [r7, #20]
 80018d4:	801a      	strh	r2, [r3, #0]
  return 1;
 80018d6:	2301      	movs	r3, #1
}
 80018d8:	4618      	mov	r0, r3
 80018da:	371c      	adds	r7, #28
 80018dc:	46bd      	mov	sp, r7
 80018de:	f85d 7b04 	ldr.w	r7, [sp], #4
 80018e2:	4770      	bx	lr

080018e4 <u8g2_draw_hv_line_2dir>:
  This function first adjusts the y position to the local buffer. Then it
  will clip the line and call u8g2_draw_low_level_hv_line()

*/
void u8g2_draw_hv_line_2dir(u8g2_t *u8g2, u8g2_uint_t x, u8g2_uint_t y, u8g2_uint_t len, uint8_t dir)
{
 80018e4:	b590      	push	{r4, r7, lr}
 80018e6:	b087      	sub	sp, #28
 80018e8:	af02      	add	r7, sp, #8
 80018ea:	60f8      	str	r0, [r7, #12]
 80018ec:	4608      	mov	r0, r1
 80018ee:	4611      	mov	r1, r2
 80018f0:	461a      	mov	r2, r3
 80018f2:	4603      	mov	r3, r0
 80018f4:	817b      	strh	r3, [r7, #10]
 80018f6:	460b      	mov	r3, r1
 80018f8:	813b      	strh	r3, [r7, #8]
 80018fa:	4613      	mov	r3, r2
 80018fc:	80fb      	strh	r3, [r7, #6]

  /* clipping happens before the display rotation */

  /* transform to pixel buffer coordinates */
  y -= u8g2->pixel_curr_row;
 80018fe:	68fb      	ldr	r3, [r7, #12]
 8001900:	8fdb      	ldrh	r3, [r3, #62]	@ 0x3e
 8001902:	893a      	ldrh	r2, [r7, #8]
 8001904:	1ad3      	subs	r3, r2, r3
 8001906:	813b      	strh	r3, [r7, #8]
  
  u8g2->ll_hvline(u8g2, x, y, len, dir);
 8001908:	68fb      	ldr	r3, [r7, #12]
 800190a:	6adc      	ldr	r4, [r3, #44]	@ 0x2c
 800190c:	88f8      	ldrh	r0, [r7, #6]
 800190e:	893a      	ldrh	r2, [r7, #8]
 8001910:	8979      	ldrh	r1, [r7, #10]
 8001912:	f897 3020 	ldrb.w	r3, [r7, #32]
 8001916:	9300      	str	r3, [sp, #0]
 8001918:	4603      	mov	r3, r0
 800191a:	68f8      	ldr	r0, [r7, #12]
 800191c:	47a0      	blx	r4
}
 800191e:	bf00      	nop
 8001920:	3714      	adds	r7, #20
 8001922:	46bd      	mov	sp, r7
 8001924:	bd90      	pop	{r4, r7, pc}

08001926 <u8g2_DrawHVLine>:
  This function should be called by the user.
  
  "dir" may have 4 directions: 0 (left to right), 1, 2, 3 (down up)
*/
void u8g2_DrawHVLine(u8g2_t *u8g2, u8g2_uint_t x, u8g2_uint_t y, u8g2_uint_t len, uint8_t dir)
{
 8001926:	b590      	push	{r4, r7, lr}
 8001928:	b087      	sub	sp, #28
 800192a:	af02      	add	r7, sp, #8
 800192c:	60f8      	str	r0, [r7, #12]
 800192e:	4608      	mov	r0, r1
 8001930:	4611      	mov	r1, r2
 8001932:	461a      	mov	r2, r3
 8001934:	4603      	mov	r3, r0
 8001936:	817b      	strh	r3, [r7, #10]
 8001938:	460b      	mov	r3, r1
 800193a:	813b      	strh	r3, [r7, #8]
 800193c:	4613      	mov	r3, r2
 800193e:	80fb      	strh	r3, [r7, #6]
  /* Make a call to the callback function (e.g. u8g2_draw_l90_r0). */
  /* The callback may rotate the hv line */
  /* after rotation this will call u8g2_draw_hv_line_4dir() */
  
#ifdef U8G2_WITH_CLIP_WINDOW_SUPPORT
  if ( u8g2->is_page_clip_window_intersection != 0 )
 8001940:	68fb      	ldr	r3, [r7, #12]
 8001942:	f893 308c 	ldrb.w	r3, [r3, #140]	@ 0x8c
 8001946:	2b00      	cmp	r3, #0
 8001948:	d075      	beq.n	8001a36 <u8g2_DrawHVLine+0x110>
#endif /* U8G2_WITH_CLIP_WINDOW_SUPPORT */
    if ( len != 0 )
 800194a:	88fb      	ldrh	r3, [r7, #6]
 800194c:	2b00      	cmp	r3, #0
 800194e:	d072      	beq.n	8001a36 <u8g2_DrawHVLine+0x110>
    {
    
      /* convert to two directions */    
      if ( len > 1 )
 8001950:	88fb      	ldrh	r3, [r7, #6]
 8001952:	2b01      	cmp	r3, #1
 8001954:	d91a      	bls.n	800198c <u8g2_DrawHVLine+0x66>
      {
	if ( dir == 2 )
 8001956:	f897 3020 	ldrb.w	r3, [r7, #32]
 800195a:	2b02      	cmp	r3, #2
 800195c:	d109      	bne.n	8001972 <u8g2_DrawHVLine+0x4c>
	{
	  x -= len;
 800195e:	897a      	ldrh	r2, [r7, #10]
 8001960:	88fb      	ldrh	r3, [r7, #6]
 8001962:	1ad3      	subs	r3, r2, r3
 8001964:	b29b      	uxth	r3, r3
 8001966:	817b      	strh	r3, [r7, #10]
	  x++;
 8001968:	897b      	ldrh	r3, [r7, #10]
 800196a:	3301      	adds	r3, #1
 800196c:	b29b      	uxth	r3, r3
 800196e:	817b      	strh	r3, [r7, #10]
 8001970:	e00c      	b.n	800198c <u8g2_DrawHVLine+0x66>
	}
	else if ( dir == 3 )
 8001972:	f897 3020 	ldrb.w	r3, [r7, #32]
 8001976:	2b03      	cmp	r3, #3
 8001978:	d108      	bne.n	800198c <u8g2_DrawHVLine+0x66>
	{
	  y -= len;
 800197a:	893a      	ldrh	r2, [r7, #8]
 800197c:	88fb      	ldrh	r3, [r7, #6]
 800197e:	1ad3      	subs	r3, r2, r3
 8001980:	b29b      	uxth	r3, r3
 8001982:	813b      	strh	r3, [r7, #8]
	  y++;
 8001984:	893b      	ldrh	r3, [r7, #8]
 8001986:	3301      	adds	r3, #1
 8001988:	b29b      	uxth	r3, r3
 800198a:	813b      	strh	r3, [r7, #8]
	}
      }
      dir &= 1;  
 800198c:	f897 3020 	ldrb.w	r3, [r7, #32]
 8001990:	f003 0301 	and.w	r3, r3, #1
 8001994:	f887 3020 	strb.w	r3, [r7, #32]
      
      /* clip against the user window */
      if ( dir == 0 )
 8001998:	f897 3020 	ldrb.w	r3, [r7, #32]
 800199c:	2b00      	cmp	r3, #0
 800199e:	d11a      	bne.n	80019d6 <u8g2_DrawHVLine+0xb0>
      {
	if ( y < u8g2->user_y0 )
 80019a0:	68fb      	ldr	r3, [r7, #12]
 80019a2:	f8b3 204c 	ldrh.w	r2, [r3, #76]	@ 0x4c
 80019a6:	893b      	ldrh	r3, [r7, #8]
 80019a8:	429a      	cmp	r2, r3
 80019aa:	d83b      	bhi.n	8001a24 <u8g2_DrawHVLine+0xfe>
	  return;
	if ( y >= u8g2->user_y1 )
 80019ac:	68fb      	ldr	r3, [r7, #12]
 80019ae:	f8b3 204e 	ldrh.w	r2, [r3, #78]	@ 0x4e
 80019b2:	893b      	ldrh	r3, [r7, #8]
 80019b4:	429a      	cmp	r2, r3
 80019b6:	d937      	bls.n	8001a28 <u8g2_DrawHVLine+0x102>
	  return;
	if ( u8g2_clip_intersection2(&x, &len, u8g2->user_x0, u8g2->user_x1) == 0 )
 80019b8:	68fb      	ldr	r3, [r7, #12]
 80019ba:	f8b3 2048 	ldrh.w	r2, [r3, #72]	@ 0x48
 80019be:	68fb      	ldr	r3, [r7, #12]
 80019c0:	f8b3 304a 	ldrh.w	r3, [r3, #74]	@ 0x4a
 80019c4:	1db9      	adds	r1, r7, #6
 80019c6:	f107 000a 	add.w	r0, r7, #10
 80019ca:	f7ff ff3d 	bl	8001848 <u8g2_clip_intersection2>
 80019ce:	4603      	mov	r3, r0
 80019d0:	2b00      	cmp	r3, #0
 80019d2:	d11a      	bne.n	8001a0a <u8g2_DrawHVLine+0xe4>
	  return;
 80019d4:	e02f      	b.n	8001a36 <u8g2_DrawHVLine+0x110>
      }
      else
      {
	if ( x < u8g2->user_x0 )
 80019d6:	68fb      	ldr	r3, [r7, #12]
 80019d8:	f8b3 2048 	ldrh.w	r2, [r3, #72]	@ 0x48
 80019dc:	897b      	ldrh	r3, [r7, #10]
 80019de:	429a      	cmp	r2, r3
 80019e0:	d824      	bhi.n	8001a2c <u8g2_DrawHVLine+0x106>
	  return;
	if ( x >= u8g2->user_x1 )
 80019e2:	68fb      	ldr	r3, [r7, #12]
 80019e4:	f8b3 204a 	ldrh.w	r2, [r3, #74]	@ 0x4a
 80019e8:	897b      	ldrh	r3, [r7, #10]
 80019ea:	429a      	cmp	r2, r3
 80019ec:	d920      	bls.n	8001a30 <u8g2_DrawHVLine+0x10a>
	  return;
	if ( u8g2_clip_intersection2(&y, &len, u8g2->user_y0, u8g2->user_y1) == 0 )
 80019ee:	68fb      	ldr	r3, [r7, #12]
 80019f0:	f8b3 204c 	ldrh.w	r2, [r3, #76]	@ 0x4c
 80019f4:	68fb      	ldr	r3, [r7, #12]
 80019f6:	f8b3 304e 	ldrh.w	r3, [r3, #78]	@ 0x4e
 80019fa:	1db9      	adds	r1, r7, #6
 80019fc:	f107 0008 	add.w	r0, r7, #8
 8001a00:	f7ff ff22 	bl	8001848 <u8g2_clip_intersection2>
 8001a04:	4603      	mov	r3, r0
 8001a06:	2b00      	cmp	r3, #0
 8001a08:	d014      	beq.n	8001a34 <u8g2_DrawHVLine+0x10e>
	  return;
      }
      
      
      u8g2->cb->draw_l90(u8g2, x, y, len, dir);
 8001a0a:	68fb      	ldr	r3, [r7, #12]
 8001a0c:	6b1b      	ldr	r3, [r3, #48]	@ 0x30
 8001a0e:	689c      	ldr	r4, [r3, #8]
 8001a10:	8979      	ldrh	r1, [r7, #10]
 8001a12:	893a      	ldrh	r2, [r7, #8]
 8001a14:	88f8      	ldrh	r0, [r7, #6]
 8001a16:	f897 3020 	ldrb.w	r3, [r7, #32]
 8001a1a:	9300      	str	r3, [sp, #0]
 8001a1c:	4603      	mov	r3, r0
 8001a1e:	68f8      	ldr	r0, [r7, #12]
 8001a20:	47a0      	blx	r4
 8001a22:	e008      	b.n	8001a36 <u8g2_DrawHVLine+0x110>
	  return;
 8001a24:	bf00      	nop
 8001a26:	e006      	b.n	8001a36 <u8g2_DrawHVLine+0x110>
	  return;
 8001a28:	bf00      	nop
 8001a2a:	e004      	b.n	8001a36 <u8g2_DrawHVLine+0x110>
	  return;
 8001a2c:	bf00      	nop
 8001a2e:	e002      	b.n	8001a36 <u8g2_DrawHVLine+0x110>
	  return;
 8001a30:	bf00      	nop
 8001a32:	e000      	b.n	8001a36 <u8g2_DrawHVLine+0x110>
	  return;
 8001a34:	bf00      	nop
    }
}
 8001a36:	3714      	adds	r7, #20
 8001a38:	46bd      	mov	sp, r7
 8001a3a:	bd90      	pop	{r4, r7, pc}

08001a3c <u8g2_is_intersection_decision_tree>:
  version with asymetric boundaries.
  a1 and v1 are excluded
  v0 == v1 is not support end return 1
*/
uint8_t u8g2_is_intersection_decision_tree(u8g2_uint_t a0, u8g2_uint_t a1, u8g2_uint_t v0, u8g2_uint_t v1)
{
 8001a3c:	b490      	push	{r4, r7}
 8001a3e:	b082      	sub	sp, #8
 8001a40:	af00      	add	r7, sp, #0
 8001a42:	4604      	mov	r4, r0
 8001a44:	4608      	mov	r0, r1
 8001a46:	4611      	mov	r1, r2
 8001a48:	461a      	mov	r2, r3
 8001a4a:	4623      	mov	r3, r4
 8001a4c:	80fb      	strh	r3, [r7, #6]
 8001a4e:	4603      	mov	r3, r0
 8001a50:	80bb      	strh	r3, [r7, #4]
 8001a52:	460b      	mov	r3, r1
 8001a54:	807b      	strh	r3, [r7, #2]
 8001a56:	4613      	mov	r3, r2
 8001a58:	803b      	strh	r3, [r7, #0]
  if ( v0 < a1 )		// v0 <= a1
 8001a5a:	887a      	ldrh	r2, [r7, #2]
 8001a5c:	88bb      	ldrh	r3, [r7, #4]
 8001a5e:	429a      	cmp	r2, r3
 8001a60:	d20d      	bcs.n	8001a7e <u8g2_is_intersection_decision_tree+0x42>
  {
    if ( v1 > a0 )	// v1 >= a0
 8001a62:	883a      	ldrh	r2, [r7, #0]
 8001a64:	88fb      	ldrh	r3, [r7, #6]
 8001a66:	429a      	cmp	r2, r3
 8001a68:	d901      	bls.n	8001a6e <u8g2_is_intersection_decision_tree+0x32>
    {
      return 1;
 8001a6a:	2301      	movs	r3, #1
 8001a6c:	e014      	b.n	8001a98 <u8g2_is_intersection_decision_tree+0x5c>
    }
    else
    {
      if ( v0 > v1 )	// v0 > v1
 8001a6e:	887a      	ldrh	r2, [r7, #2]
 8001a70:	883b      	ldrh	r3, [r7, #0]
 8001a72:	429a      	cmp	r2, r3
 8001a74:	d901      	bls.n	8001a7a <u8g2_is_intersection_decision_tree+0x3e>
      {
	return 1;
 8001a76:	2301      	movs	r3, #1
 8001a78:	e00e      	b.n	8001a98 <u8g2_is_intersection_decision_tree+0x5c>
      }
      else
      {
	return 0;
 8001a7a:	2300      	movs	r3, #0
 8001a7c:	e00c      	b.n	8001a98 <u8g2_is_intersection_decision_tree+0x5c>
      }
    }
  }
  else
  {
    if ( v1 > a0 )	// v1 >= a0
 8001a7e:	883a      	ldrh	r2, [r7, #0]
 8001a80:	88fb      	ldrh	r3, [r7, #6]
 8001a82:	429a      	cmp	r2, r3
 8001a84:	d907      	bls.n	8001a96 <u8g2_is_intersection_decision_tree+0x5a>
    {
      if ( v0 > v1 )	// v0 > v1
 8001a86:	887a      	ldrh	r2, [r7, #2]
 8001a88:	883b      	ldrh	r3, [r7, #0]
 8001a8a:	429a      	cmp	r2, r3
 8001a8c:	d901      	bls.n	8001a92 <u8g2_is_intersection_decision_tree+0x56>
      {
	return 1;
 8001a8e:	2301      	movs	r3, #1
 8001a90:	e002      	b.n	8001a98 <u8g2_is_intersection_decision_tree+0x5c>
      }
      else
      {
	return 0;
 8001a92:	2300      	movs	r3, #0
 8001a94:	e000      	b.n	8001a98 <u8g2_is_intersection_decision_tree+0x5c>
      }
    }
    else
    {
      return 0;
 8001a96:	2300      	movs	r3, #0
    }
  }
}
 8001a98:	4618      	mov	r0, r3
 8001a9a:	3708      	adds	r7, #8
 8001a9c:	46bd      	mov	sp, r7
 8001a9e:	bc90      	pop	{r4, r7}
 8001aa0:	4770      	bx	lr

08001aa2 <u8g2_IsIntersection>:



/* upper limits are not included (asymetric boundaries) */
uint8_t u8g2_IsIntersection(u8g2_t *u8g2, u8g2_uint_t x0, u8g2_uint_t y0, u8g2_uint_t x1, u8g2_uint_t y1)
{
 8001aa2:	b580      	push	{r7, lr}
 8001aa4:	b084      	sub	sp, #16
 8001aa6:	af00      	add	r7, sp, #0
 8001aa8:	60f8      	str	r0, [r7, #12]
 8001aaa:	4608      	mov	r0, r1
 8001aac:	4611      	mov	r1, r2
 8001aae:	461a      	mov	r2, r3
 8001ab0:	4603      	mov	r3, r0
 8001ab2:	817b      	strh	r3, [r7, #10]
 8001ab4:	460b      	mov	r3, r1
 8001ab6:	813b      	strh	r3, [r7, #8]
 8001ab8:	4613      	mov	r3, r2
 8001aba:	80fb      	strh	r3, [r7, #6]
  if ( u8g2_is_intersection_decision_tree(u8g2->user_y0, u8g2->user_y1, y0, y1) == 0 )
 8001abc:	68fb      	ldr	r3, [r7, #12]
 8001abe:	f8b3 004c 	ldrh.w	r0, [r3, #76]	@ 0x4c
 8001ac2:	68fb      	ldr	r3, [r7, #12]
 8001ac4:	f8b3 104e 	ldrh.w	r1, [r3, #78]	@ 0x4e
 8001ac8:	8b3b      	ldrh	r3, [r7, #24]
 8001aca:	893a      	ldrh	r2, [r7, #8]
 8001acc:	f7ff ffb6 	bl	8001a3c <u8g2_is_intersection_decision_tree>
 8001ad0:	4603      	mov	r3, r0
 8001ad2:	2b00      	cmp	r3, #0
 8001ad4:	d101      	bne.n	8001ada <u8g2_IsIntersection+0x38>
    return 0; 
 8001ad6:	2300      	movs	r3, #0
 8001ad8:	e00a      	b.n	8001af0 <u8g2_IsIntersection+0x4e>
  
  return u8g2_is_intersection_decision_tree(u8g2->user_x0, u8g2->user_x1, x0, x1);
 8001ada:	68fb      	ldr	r3, [r7, #12]
 8001adc:	f8b3 0048 	ldrh.w	r0, [r3, #72]	@ 0x48
 8001ae0:	68fb      	ldr	r3, [r7, #12]
 8001ae2:	f8b3 104a 	ldrh.w	r1, [r3, #74]	@ 0x4a
 8001ae6:	88fb      	ldrh	r3, [r7, #6]
 8001ae8:	897a      	ldrh	r2, [r7, #10]
 8001aea:	f7ff ffa7 	bl	8001a3c <u8g2_is_intersection_decision_tree>
 8001aee:	4603      	mov	r3, r0
}
 8001af0:	4618      	mov	r0, r3
 8001af2:	3710      	adds	r7, #16
 8001af4:	46bd      	mov	sp, r7
 8001af6:	bd80      	pop	{r7, pc}

08001af8 <u8g2_ll_hvline_vertical_top_lsb>:
		1: vertical line (top to bottom)
  asumption: 
    all clipping done
*/
void u8g2_ll_hvline_vertical_top_lsb(u8g2_t *u8g2, u8g2_uint_t x, u8g2_uint_t y, u8g2_uint_t len, uint8_t dir)
{
 8001af8:	b480      	push	{r7}
 8001afa:	b089      	sub	sp, #36	@ 0x24
 8001afc:	af00      	add	r7, sp, #0
 8001afe:	60f8      	str	r0, [r7, #12]
 8001b00:	4608      	mov	r0, r1
 8001b02:	4611      	mov	r1, r2
 8001b04:	461a      	mov	r2, r3
 8001b06:	4603      	mov	r3, r0
 8001b08:	817b      	strh	r3, [r7, #10]
 8001b0a:	460b      	mov	r3, r1
 8001b0c:	813b      	strh	r3, [r7, #8]
 8001b0e:	4613      	mov	r3, r2
 8001b10:	80fb      	strh	r3, [r7, #6]
  //assert(x < u8g2_GetU8x8(u8g2)->display_info->tile_width*8);
  //assert(y >= u8g2->buf_y0);
  //assert(y < u8g2_GetU8x8(u8g2)->display_info->tile_height*8);
  
  /* bytes are vertical, lsb on top (y=0), msb at bottom (y=7) */
  bit_pos = y;		/* overflow truncate is ok here... */
 8001b12:	893b      	ldrh	r3, [r7, #8]
 8001b14:	76fb      	strb	r3, [r7, #27]
  bit_pos &= 7; 	/* ... because only the lowest 3 bits are needed */
 8001b16:	7efb      	ldrb	r3, [r7, #27]
 8001b18:	f003 0307 	and.w	r3, r3, #7
 8001b1c:	76fb      	strb	r3, [r7, #27]
  mask = 1;
 8001b1e:	2301      	movs	r3, #1
 8001b20:	763b      	strb	r3, [r7, #24]
  mask <<= bit_pos;
 8001b22:	7e3a      	ldrb	r2, [r7, #24]
 8001b24:	7efb      	ldrb	r3, [r7, #27]
 8001b26:	fa02 f303 	lsl.w	r3, r2, r3
 8001b2a:	763b      	strb	r3, [r7, #24]

  or_mask = 0;
 8001b2c:	2300      	movs	r3, #0
 8001b2e:	76bb      	strb	r3, [r7, #26]
  xor_mask = 0;
 8001b30:	2300      	movs	r3, #0
 8001b32:	767b      	strb	r3, [r7, #25]
  if ( u8g2->draw_color <= 1 )
 8001b34:	68fb      	ldr	r3, [r7, #12]
 8001b36:	f893 3092 	ldrb.w	r3, [r3, #146]	@ 0x92
 8001b3a:	2b01      	cmp	r3, #1
 8001b3c:	d801      	bhi.n	8001b42 <u8g2_ll_hvline_vertical_top_lsb+0x4a>
    or_mask  = mask;
 8001b3e:	7e3b      	ldrb	r3, [r7, #24]
 8001b40:	76bb      	strb	r3, [r7, #26]
  if ( u8g2->draw_color != 1 )
 8001b42:	68fb      	ldr	r3, [r7, #12]
 8001b44:	f893 3092 	ldrb.w	r3, [r3, #146]	@ 0x92
 8001b48:	2b01      	cmp	r3, #1
 8001b4a:	d001      	beq.n	8001b50 <u8g2_ll_hvline_vertical_top_lsb+0x58>
    xor_mask = mask;
 8001b4c:	7e3b      	ldrb	r3, [r7, #24]
 8001b4e:	767b      	strb	r3, [r7, #25]


  offset = y;		/* y might be 8 or 16 bit, but we need 16 bit, so use a 16 bit variable */
 8001b50:	893b      	ldrh	r3, [r7, #8]
 8001b52:	82fb      	strh	r3, [r7, #22]
  offset &= ~7;
 8001b54:	8afb      	ldrh	r3, [r7, #22]
 8001b56:	f023 0307 	bic.w	r3, r3, #7
 8001b5a:	82fb      	strh	r3, [r7, #22]
  offset *= u8g2_GetU8x8(u8g2)->display_info->tile_width;
 8001b5c:	68fb      	ldr	r3, [r7, #12]
 8001b5e:	681b      	ldr	r3, [r3, #0]
 8001b60:	7c1b      	ldrb	r3, [r3, #16]
 8001b62:	461a      	mov	r2, r3
 8001b64:	8afb      	ldrh	r3, [r7, #22]
 8001b66:	fb13 f302 	smulbb	r3, r3, r2
 8001b6a:	82fb      	strh	r3, [r7, #22]
  ptr = u8g2->tile_buf_ptr;
 8001b6c:	68fb      	ldr	r3, [r7, #12]
 8001b6e:	6b5b      	ldr	r3, [r3, #52]	@ 0x34
 8001b70:	61fb      	str	r3, [r7, #28]
  ptr += offset;
 8001b72:	8afb      	ldrh	r3, [r7, #22]
 8001b74:	69fa      	ldr	r2, [r7, #28]
 8001b76:	4413      	add	r3, r2
 8001b78:	61fb      	str	r3, [r7, #28]
  ptr += x;
 8001b7a:	897b      	ldrh	r3, [r7, #10]
 8001b7c:	69fa      	ldr	r2, [r7, #28]
 8001b7e:	4413      	add	r3, r2
 8001b80:	61fb      	str	r3, [r7, #28]
  
  if ( dir == 0 )
 8001b82:	f897 3028 	ldrb.w	r3, [r7, #40]	@ 0x28
 8001b86:	2b00      	cmp	r3, #0
 8001b88:	d117      	bne.n	8001bba <u8g2_ll_hvline_vertical_top_lsb+0xc2>
      do
      {
#ifdef __unix
	assert(ptr < max_ptr);
#endif
	*ptr |= or_mask;
 8001b8a:	69fb      	ldr	r3, [r7, #28]
 8001b8c:	781a      	ldrb	r2, [r3, #0]
 8001b8e:	7ebb      	ldrb	r3, [r7, #26]
 8001b90:	4313      	orrs	r3, r2
 8001b92:	b2da      	uxtb	r2, r3
 8001b94:	69fb      	ldr	r3, [r7, #28]
 8001b96:	701a      	strb	r2, [r3, #0]
	*ptr ^= xor_mask;
 8001b98:	69fb      	ldr	r3, [r7, #28]
 8001b9a:	781a      	ldrb	r2, [r3, #0]
 8001b9c:	7e7b      	ldrb	r3, [r7, #25]
 8001b9e:	4053      	eors	r3, r2
 8001ba0:	b2da      	uxtb	r2, r3
 8001ba2:	69fb      	ldr	r3, [r7, #28]
 8001ba4:	701a      	strb	r2, [r3, #0]
	ptr++;
 8001ba6:	69fb      	ldr	r3, [r7, #28]
 8001ba8:	3301      	adds	r3, #1
 8001baa:	61fb      	str	r3, [r7, #28]
	len--;
 8001bac:	88fb      	ldrh	r3, [r7, #6]
 8001bae:	3b01      	subs	r3, #1
 8001bb0:	80fb      	strh	r3, [r7, #6]
      } while( len != 0 );
 8001bb2:	88fb      	ldrh	r3, [r7, #6]
 8001bb4:	2b00      	cmp	r3, #0
 8001bb6:	d1e8      	bne.n	8001b8a <u8g2_ll_hvline_vertical_top_lsb+0x92>
	or_mask <<= 1;
	xor_mask <<= 1;
      }
    } while( len != 0 );
  }
}
 8001bb8:	e038      	b.n	8001c2c <u8g2_ll_hvline_vertical_top_lsb+0x134>
      *ptr |= or_mask;
 8001bba:	69fb      	ldr	r3, [r7, #28]
 8001bbc:	781a      	ldrb	r2, [r3, #0]
 8001bbe:	7ebb      	ldrb	r3, [r7, #26]
 8001bc0:	4313      	orrs	r3, r2
 8001bc2:	b2da      	uxtb	r2, r3
 8001bc4:	69fb      	ldr	r3, [r7, #28]
 8001bc6:	701a      	strb	r2, [r3, #0]
      *ptr ^= xor_mask;
 8001bc8:	69fb      	ldr	r3, [r7, #28]
 8001bca:	781a      	ldrb	r2, [r3, #0]
 8001bcc:	7e7b      	ldrb	r3, [r7, #25]
 8001bce:	4053      	eors	r3, r2
 8001bd0:	b2da      	uxtb	r2, r3
 8001bd2:	69fb      	ldr	r3, [r7, #28]
 8001bd4:	701a      	strb	r2, [r3, #0]
      bit_pos++;
 8001bd6:	7efb      	ldrb	r3, [r7, #27]
 8001bd8:	3301      	adds	r3, #1
 8001bda:	76fb      	strb	r3, [r7, #27]
      bit_pos &= 7;
 8001bdc:	7efb      	ldrb	r3, [r7, #27]
 8001bde:	f003 0307 	and.w	r3, r3, #7
 8001be2:	76fb      	strb	r3, [r7, #27]
      len--;
 8001be4:	88fb      	ldrh	r3, [r7, #6]
 8001be6:	3b01      	subs	r3, #1
 8001be8:	80fb      	strh	r3, [r7, #6]
      if ( bit_pos == 0 )
 8001bea:	7efb      	ldrb	r3, [r7, #27]
 8001bec:	2b00      	cmp	r3, #0
 8001bee:	d114      	bne.n	8001c1a <u8g2_ll_hvline_vertical_top_lsb+0x122>
	ptr+=u8g2->pixel_buf_width;	/* 6 Jan 17: Changed u8g2->width to u8g2->pixel_buf_width, issue #148 */
 8001bf0:	68fb      	ldr	r3, [r7, #12]
 8001bf2:	8f5b      	ldrh	r3, [r3, #58]	@ 0x3a
 8001bf4:	461a      	mov	r2, r3
 8001bf6:	69fb      	ldr	r3, [r7, #28]
 8001bf8:	4413      	add	r3, r2
 8001bfa:	61fb      	str	r3, [r7, #28]
	if ( u8g2->draw_color <= 1 )
 8001bfc:	68fb      	ldr	r3, [r7, #12]
 8001bfe:	f893 3092 	ldrb.w	r3, [r3, #146]	@ 0x92
 8001c02:	2b01      	cmp	r3, #1
 8001c04:	d801      	bhi.n	8001c0a <u8g2_ll_hvline_vertical_top_lsb+0x112>
	  or_mask  = 1;
 8001c06:	2301      	movs	r3, #1
 8001c08:	76bb      	strb	r3, [r7, #26]
	if ( u8g2->draw_color != 1 )
 8001c0a:	68fb      	ldr	r3, [r7, #12]
 8001c0c:	f893 3092 	ldrb.w	r3, [r3, #146]	@ 0x92
 8001c10:	2b01      	cmp	r3, #1
 8001c12:	d008      	beq.n	8001c26 <u8g2_ll_hvline_vertical_top_lsb+0x12e>
	  xor_mask = 1;
 8001c14:	2301      	movs	r3, #1
 8001c16:	767b      	strb	r3, [r7, #25]
 8001c18:	e005      	b.n	8001c26 <u8g2_ll_hvline_vertical_top_lsb+0x12e>
	or_mask <<= 1;
 8001c1a:	7ebb      	ldrb	r3, [r7, #26]
 8001c1c:	005b      	lsls	r3, r3, #1
 8001c1e:	76bb      	strb	r3, [r7, #26]
	xor_mask <<= 1;
 8001c20:	7e7b      	ldrb	r3, [r7, #25]
 8001c22:	005b      	lsls	r3, r3, #1
 8001c24:	767b      	strb	r3, [r7, #25]
    } while( len != 0 );
 8001c26:	88fb      	ldrh	r3, [r7, #6]
 8001c28:	2b00      	cmp	r3, #0
 8001c2a:	d1c6      	bne.n	8001bba <u8g2_ll_hvline_vertical_top_lsb+0xc2>
}
 8001c2c:	bf00      	nop
 8001c2e:	3724      	adds	r7, #36	@ 0x24
 8001c30:	46bd      	mov	sp, r7
 8001c32:	f85d 7b04 	ldr.w	r7, [sp], #4
 8001c36:	4770      	bx	lr

08001c38 <u8g2_SetMaxClipWindow>:


#ifdef U8G2_WITH_CLIP_WINDOW_SUPPORT

void u8g2_SetMaxClipWindow(u8g2_t *u8g2)
{
 8001c38:	b580      	push	{r7, lr}
 8001c3a:	b082      	sub	sp, #8
 8001c3c:	af00      	add	r7, sp, #0
 8001c3e:	6078      	str	r0, [r7, #4]
  u8g2->clip_x0 = 0;
 8001c40:	687b      	ldr	r3, [r7, #4]
 8001c42:	2200      	movs	r2, #0
 8001c44:	f8a3 2050 	strh.w	r2, [r3, #80]	@ 0x50
  u8g2->clip_y0 = 0;
 8001c48:	687b      	ldr	r3, [r7, #4]
 8001c4a:	2200      	movs	r2, #0
 8001c4c:	f8a3 2054 	strh.w	r2, [r3, #84]	@ 0x54
  u8g2->clip_x1 = (u8g2_uint_t)~(u8g2_uint_t)0;
 8001c50:	687b      	ldr	r3, [r7, #4]
 8001c52:	f64f 72ff 	movw	r2, #65535	@ 0xffff
 8001c56:	f8a3 2052 	strh.w	r2, [r3, #82]	@ 0x52
  u8g2->clip_y1 = (u8g2_uint_t)~(u8g2_uint_t)0;
 8001c5a:	687b      	ldr	r3, [r7, #4]
 8001c5c:	f64f 72ff 	movw	r2, #65535	@ 0xffff
 8001c60:	f8a3 2056 	strh.w	r2, [r3, #86]	@ 0x56
  
  u8g2->cb->update_page_win(u8g2);
 8001c64:	687b      	ldr	r3, [r7, #4]
 8001c66:	6b1b      	ldr	r3, [r3, #48]	@ 0x30
 8001c68:	685b      	ldr	r3, [r3, #4]
 8001c6a:	6878      	ldr	r0, [r7, #4]
 8001c6c:	4798      	blx	r3
}
 8001c6e:	bf00      	nop
 8001c70:	3708      	adds	r7, #8
 8001c72:	46bd      	mov	sp, r7
 8001c74:	bd80      	pop	{r7, pc}

08001c76 <u8g2_SetupBuffer>:
/*
  This procedure is called after setting up the display (u8x8 structure).
  --> This is the central init procedure for u8g2 object
*/
void u8g2_SetupBuffer(u8g2_t *u8g2, uint8_t *buf, uint8_t tile_buf_height, u8g2_draw_ll_hvline_cb ll_hvline_cb, const u8g2_cb_t *u8g2_cb)
{
 8001c76:	b580      	push	{r7, lr}
 8001c78:	b084      	sub	sp, #16
 8001c7a:	af00      	add	r7, sp, #0
 8001c7c:	60f8      	str	r0, [r7, #12]
 8001c7e:	60b9      	str	r1, [r7, #8]
 8001c80:	603b      	str	r3, [r7, #0]
 8001c82:	4613      	mov	r3, r2
 8001c84:	71fb      	strb	r3, [r7, #7]
  u8g2->font = NULL;
 8001c86:	68fb      	ldr	r3, [r7, #12]
 8001c88:	2200      	movs	r2, #0
 8001c8a:	659a      	str	r2, [r3, #88]	@ 0x58
  //u8g2->kerning = NULL;
  //u8g2->get_kerning_cb = u8g2_GetNullKerning;
  
  //u8g2->ll_hvline = u8g2_ll_hvline_vertical_top_lsb;
  u8g2->ll_hvline = ll_hvline_cb;
 8001c8c:	68fb      	ldr	r3, [r7, #12]
 8001c8e:	683a      	ldr	r2, [r7, #0]
 8001c90:	62da      	str	r2, [r3, #44]	@ 0x2c
  
  u8g2->tile_buf_ptr = buf;
 8001c92:	68fb      	ldr	r3, [r7, #12]
 8001c94:	68ba      	ldr	r2, [r7, #8]
 8001c96:	635a      	str	r2, [r3, #52]	@ 0x34
  u8g2->tile_buf_height = tile_buf_height;
 8001c98:	68fb      	ldr	r3, [r7, #12]
 8001c9a:	79fa      	ldrb	r2, [r7, #7]
 8001c9c:	f883 2038 	strb.w	r2, [r3, #56]	@ 0x38
  
  u8g2->tile_curr_row = 0;
 8001ca0:	68fb      	ldr	r3, [r7, #12]
 8001ca2:	2200      	movs	r2, #0
 8001ca4:	f883 2039 	strb.w	r2, [r3, #57]	@ 0x39
  
  u8g2->font_decode.is_transparent = 0; /* issue 443 */
 8001ca8:	68fb      	ldr	r3, [r7, #12]
 8001caa:	2200      	movs	r2, #0
 8001cac:	f883 206d 	strb.w	r2, [r3, #109]	@ 0x6d
  u8g2->bitmap_transparency = 0;
 8001cb0:	68fb      	ldr	r3, [r7, #12]
 8001cb2:	2200      	movs	r2, #0
 8001cb4:	f883 2091 	strb.w	r2, [r3, #145]	@ 0x91
  
  u8g2->font_height_mode = 0; /* issue 2046 */
 8001cb8:	68fb      	ldr	r3, [r7, #12]
 8001cba:	2200      	movs	r2, #0
 8001cbc:	f883 208d 	strb.w	r2, [r3, #141]	@ 0x8d
  u8g2->draw_color = 1;
 8001cc0:	68fb      	ldr	r3, [r7, #12]
 8001cc2:	2201      	movs	r2, #1
 8001cc4:	f883 2092 	strb.w	r2, [r3, #146]	@ 0x92
  u8g2->is_auto_page_clear = 1;
 8001cc8:	68fb      	ldr	r3, [r7, #12]
 8001cca:	2201      	movs	r2, #1
 8001ccc:	f883 2093 	strb.w	r2, [r3, #147]	@ 0x93
  
  u8g2->cb = u8g2_cb;
 8001cd0:	68fb      	ldr	r3, [r7, #12]
 8001cd2:	69ba      	ldr	r2, [r7, #24]
 8001cd4:	631a      	str	r2, [r3, #48]	@ 0x30
  u8g2->cb->update_dimension(u8g2);
 8001cd6:	68fb      	ldr	r3, [r7, #12]
 8001cd8:	6b1b      	ldr	r3, [r3, #48]	@ 0x30
 8001cda:	681b      	ldr	r3, [r3, #0]
 8001cdc:	68f8      	ldr	r0, [r7, #12]
 8001cde:	4798      	blx	r3
#ifdef U8G2_WITH_CLIP_WINDOW_SUPPORT
  u8g2_SetMaxClipWindow(u8g2);		/* assign a clip window and call the update() procedure */
 8001ce0:	68f8      	ldr	r0, [r7, #12]
 8001ce2:	f7ff ffa9 	bl	8001c38 <u8g2_SetMaxClipWindow>
#else
  u8g2->cb->update_page_win(u8g2);
#endif

  u8g2_SetFontPosBaseline(u8g2);  /* issue 195 */
 8001ce6:	68f8      	ldr	r0, [r7, #12]
 8001ce8:	f7ff fd84 	bl	80017f4 <u8g2_SetFontPosBaseline>
  
#ifdef U8G2_WITH_FONT_ROTATION  
  u8g2->font_decode.dir = 0;
 8001cec:	68fb      	ldr	r3, [r7, #12]
 8001cee:	2200      	movs	r2, #0
 8001cf0:	f883 2070 	strb.w	r2, [r3, #112]	@ 0x70
#endif
}
 8001cf4:	bf00      	nop
 8001cf6:	3710      	adds	r7, #16
 8001cf8:	46bd      	mov	sp, r7
 8001cfa:	bd80      	pop	{r7, pc}

08001cfc <u8g2_update_dimension_common>:
    u8g2_uint_t buf_y0;
    u8g2_uint_t buf_y1; 	
*/

static void u8g2_update_dimension_common(u8g2_t *u8g2)
{
 8001cfc:	b480      	push	{r7}
 8001cfe:	b085      	sub	sp, #20
 8001d00:	af00      	add	r7, sp, #0
 8001d02:	6078      	str	r0, [r7, #4]
  const u8x8_display_info_t *display_info = u8g2_GetU8x8(u8g2)->display_info;
 8001d04:	687b      	ldr	r3, [r7, #4]
 8001d06:	681b      	ldr	r3, [r3, #0]
 8001d08:	60bb      	str	r3, [r7, #8]
  u8g2_uint_t t;
  
  t = u8g2->tile_buf_height;
 8001d0a:	687b      	ldr	r3, [r7, #4]
 8001d0c:	f893 3038 	ldrb.w	r3, [r3, #56]	@ 0x38
 8001d10:	81fb      	strh	r3, [r7, #14]
  t *= 8;
 8001d12:	89fb      	ldrh	r3, [r7, #14]
 8001d14:	00db      	lsls	r3, r3, #3
 8001d16:	81fb      	strh	r3, [r7, #14]
  u8g2->pixel_buf_height = t;
 8001d18:	687b      	ldr	r3, [r7, #4]
 8001d1a:	89fa      	ldrh	r2, [r7, #14]
 8001d1c:	879a      	strh	r2, [r3, #60]	@ 0x3c
  
  t = display_info->tile_width;
 8001d1e:	68bb      	ldr	r3, [r7, #8]
 8001d20:	7c1b      	ldrb	r3, [r3, #16]
 8001d22:	81fb      	strh	r3, [r7, #14]
#ifndef U8G2_16BIT
  if ( t >= 32 )
    t = 31;
#endif
  t *= 8;
 8001d24:	89fb      	ldrh	r3, [r7, #14]
 8001d26:	00db      	lsls	r3, r3, #3
 8001d28:	81fb      	strh	r3, [r7, #14]
  u8g2->pixel_buf_width = t;
 8001d2a:	687b      	ldr	r3, [r7, #4]
 8001d2c:	89fa      	ldrh	r2, [r7, #14]
 8001d2e:	875a      	strh	r2, [r3, #58]	@ 0x3a
  
  t = u8g2->tile_curr_row;
 8001d30:	687b      	ldr	r3, [r7, #4]
 8001d32:	f893 3039 	ldrb.w	r3, [r3, #57]	@ 0x39
 8001d36:	81fb      	strh	r3, [r7, #14]
  t *= 8;
 8001d38:	89fb      	ldrh	r3, [r7, #14]
 8001d3a:	00db      	lsls	r3, r3, #3
 8001d3c:	81fb      	strh	r3, [r7, #14]
  u8g2->pixel_curr_row = t;
 8001d3e:	687b      	ldr	r3, [r7, #4]
 8001d40:	89fa      	ldrh	r2, [r7, #14]
 8001d42:	87da      	strh	r2, [r3, #62]	@ 0x3e
  
  t = u8g2->tile_buf_height;
 8001d44:	687b      	ldr	r3, [r7, #4]
 8001d46:	f893 3038 	ldrb.w	r3, [r3, #56]	@ 0x38
 8001d4a:	81fb      	strh	r3, [r7, #14]
  /* handle the case, where the buffer is larger than the (remaining) part of the display */
  if ( t + u8g2->tile_curr_row > display_info->tile_height )
 8001d4c:	89fb      	ldrh	r3, [r7, #14]
 8001d4e:	687a      	ldr	r2, [r7, #4]
 8001d50:	f892 2039 	ldrb.w	r2, [r2, #57]	@ 0x39
 8001d54:	4413      	add	r3, r2
 8001d56:	68ba      	ldr	r2, [r7, #8]
 8001d58:	7c52      	ldrb	r2, [r2, #17]
 8001d5a:	4293      	cmp	r3, r2
 8001d5c:	dd07      	ble.n	8001d6e <u8g2_update_dimension_common+0x72>
    t = display_info->tile_height - u8g2->tile_curr_row;
 8001d5e:	68bb      	ldr	r3, [r7, #8]
 8001d60:	7c5b      	ldrb	r3, [r3, #17]
 8001d62:	461a      	mov	r2, r3
 8001d64:	687b      	ldr	r3, [r7, #4]
 8001d66:	f893 3039 	ldrb.w	r3, [r3, #57]	@ 0x39
 8001d6a:	1ad3      	subs	r3, r2, r3
 8001d6c:	81fb      	strh	r3, [r7, #14]
  t *= 8;
 8001d6e:	89fb      	ldrh	r3, [r7, #14]
 8001d70:	00db      	lsls	r3, r3, #3
 8001d72:	81fb      	strh	r3, [r7, #14]
  
  u8g2->buf_y0 = u8g2->pixel_curr_row;   
 8001d74:	687b      	ldr	r3, [r7, #4]
 8001d76:	8fda      	ldrh	r2, [r3, #62]	@ 0x3e
 8001d78:	687b      	ldr	r3, [r7, #4]
 8001d7a:	f8a3 2040 	strh.w	r2, [r3, #64]	@ 0x40
  u8g2->buf_y1 = u8g2->buf_y0;
 8001d7e:	687b      	ldr	r3, [r7, #4]
 8001d80:	f8b3 2040 	ldrh.w	r2, [r3, #64]	@ 0x40
 8001d84:	687b      	ldr	r3, [r7, #4]
 8001d86:	f8a3 2042 	strh.w	r2, [r3, #66]	@ 0x42
  u8g2->buf_y1 += t;
 8001d8a:	687b      	ldr	r3, [r7, #4]
 8001d8c:	f8b3 2042 	ldrh.w	r2, [r3, #66]	@ 0x42
 8001d90:	89fb      	ldrh	r3, [r7, #14]
 8001d92:	4413      	add	r3, r2
 8001d94:	b29a      	uxth	r2, r3
 8001d96:	687b      	ldr	r3, [r7, #4]
 8001d98:	f8a3 2042 	strh.w	r2, [r3, #66]	@ 0x42

  
#ifdef U8G2_16BIT
  u8g2->width = display_info->pixel_width;
 8001d9c:	68bb      	ldr	r3, [r7, #8]
 8001d9e:	8a9a      	ldrh	r2, [r3, #20]
 8001da0:	687b      	ldr	r3, [r7, #4]
 8001da2:	f8a3 2044 	strh.w	r2, [r3, #68]	@ 0x44
  u8g2->height = display_info->pixel_height;
 8001da6:	68bb      	ldr	r3, [r7, #8]
 8001da8:	8ada      	ldrh	r2, [r3, #22]
 8001daa:	687b      	ldr	r3, [r7, #4]
 8001dac:	f8a3 2046 	strh.w	r2, [r3, #70]	@ 0x46
  if ( display_info->pixel_width <= 240 )
    u8g2->width = display_info->pixel_width;
  u8g2->height = display_info->pixel_height;
#endif

}
 8001db0:	bf00      	nop
 8001db2:	3714      	adds	r7, #20
 8001db4:	46bd      	mov	sp, r7
 8001db6:	f85d 7b04 	ldr.w	r7, [sp], #4
 8001dba:	4770      	bx	lr

08001dbc <u8g2_apply_clip_window>:
/*==========================================================*/
/* apply clip window */

#ifdef U8G2_WITH_CLIP_WINDOW_SUPPORT
static void u8g2_apply_clip_window(u8g2_t *u8g2)
{
 8001dbc:	b580      	push	{r7, lr}
 8001dbe:	b084      	sub	sp, #16
 8001dc0:	af02      	add	r7, sp, #8
 8001dc2:	6078      	str	r0, [r7, #4]
  /* check aganst the current user_??? window */
  if ( u8g2_IsIntersection(u8g2, u8g2->clip_x0, u8g2->clip_y0, u8g2->clip_x1, u8g2->clip_y1) == 0 ) 
 8001dc4:	687b      	ldr	r3, [r7, #4]
 8001dc6:	f8b3 1050 	ldrh.w	r1, [r3, #80]	@ 0x50
 8001dca:	687b      	ldr	r3, [r7, #4]
 8001dcc:	f8b3 2054 	ldrh.w	r2, [r3, #84]	@ 0x54
 8001dd0:	687b      	ldr	r3, [r7, #4]
 8001dd2:	f8b3 0052 	ldrh.w	r0, [r3, #82]	@ 0x52
 8001dd6:	687b      	ldr	r3, [r7, #4]
 8001dd8:	f8b3 3056 	ldrh.w	r3, [r3, #86]	@ 0x56
 8001ddc:	9300      	str	r3, [sp, #0]
 8001dde:	4603      	mov	r3, r0
 8001de0:	6878      	ldr	r0, [r7, #4]
 8001de2:	f7ff fe5e 	bl	8001aa2 <u8g2_IsIntersection>
 8001de6:	4603      	mov	r3, r0
 8001de8:	2b00      	cmp	r3, #0
 8001dea:	d104      	bne.n	8001df6 <u8g2_apply_clip_window+0x3a>
  {
    u8g2->is_page_clip_window_intersection = 0;
 8001dec:	687b      	ldr	r3, [r7, #4]
 8001dee:	2200      	movs	r2, #0
 8001df0:	f883 208c 	strb.w	r2, [r3, #140]	@ 0x8c
    if ( u8g2->user_y0 < u8g2->clip_y0 )
      u8g2->user_y0 = u8g2->clip_y0;
    if ( u8g2->user_y1 > u8g2->clip_y1 )
      u8g2->user_y1 = u8g2->clip_y1;
  }
}
 8001df4:	e03b      	b.n	8001e6e <u8g2_apply_clip_window+0xb2>
    u8g2->is_page_clip_window_intersection = 1;
 8001df6:	687b      	ldr	r3, [r7, #4]
 8001df8:	2201      	movs	r2, #1
 8001dfa:	f883 208c 	strb.w	r2, [r3, #140]	@ 0x8c
    if ( u8g2->user_x0 < u8g2->clip_x0 )
 8001dfe:	687b      	ldr	r3, [r7, #4]
 8001e00:	f8b3 2048 	ldrh.w	r2, [r3, #72]	@ 0x48
 8001e04:	687b      	ldr	r3, [r7, #4]
 8001e06:	f8b3 3050 	ldrh.w	r3, [r3, #80]	@ 0x50
 8001e0a:	429a      	cmp	r2, r3
 8001e0c:	d205      	bcs.n	8001e1a <u8g2_apply_clip_window+0x5e>
      u8g2->user_x0 = u8g2->clip_x0;
 8001e0e:	687b      	ldr	r3, [r7, #4]
 8001e10:	f8b3 2050 	ldrh.w	r2, [r3, #80]	@ 0x50
 8001e14:	687b      	ldr	r3, [r7, #4]
 8001e16:	f8a3 2048 	strh.w	r2, [r3, #72]	@ 0x48
    if ( u8g2->user_x1 > u8g2->clip_x1 )
 8001e1a:	687b      	ldr	r3, [r7, #4]
 8001e1c:	f8b3 204a 	ldrh.w	r2, [r3, #74]	@ 0x4a
 8001e20:	687b      	ldr	r3, [r7, #4]
 8001e22:	f8b3 3052 	ldrh.w	r3, [r3, #82]	@ 0x52
 8001e26:	429a      	cmp	r2, r3
 8001e28:	d905      	bls.n	8001e36 <u8g2_apply_clip_window+0x7a>
      u8g2->user_x1 = u8g2->clip_x1;
 8001e2a:	687b      	ldr	r3, [r7, #4]
 8001e2c:	f8b3 2052 	ldrh.w	r2, [r3, #82]	@ 0x52
 8001e30:	687b      	ldr	r3, [r7, #4]
 8001e32:	f8a3 204a 	strh.w	r2, [r3, #74]	@ 0x4a
    if ( u8g2->user_y0 < u8g2->clip_y0 )
 8001e36:	687b      	ldr	r3, [r7, #4]
 8001e38:	f8b3 204c 	ldrh.w	r2, [r3, #76]	@ 0x4c
 8001e3c:	687b      	ldr	r3, [r7, #4]
 8001e3e:	f8b3 3054 	ldrh.w	r3, [r3, #84]	@ 0x54
 8001e42:	429a      	cmp	r2, r3
 8001e44:	d205      	bcs.n	8001e52 <u8g2_apply_clip_window+0x96>
      u8g2->user_y0 = u8g2->clip_y0;
 8001e46:	687b      	ldr	r3, [r7, #4]
 8001e48:	f8b3 2054 	ldrh.w	r2, [r3, #84]	@ 0x54
 8001e4c:	687b      	ldr	r3, [r7, #4]
 8001e4e:	f8a3 204c 	strh.w	r2, [r3, #76]	@ 0x4c
    if ( u8g2->user_y1 > u8g2->clip_y1 )
 8001e52:	687b      	ldr	r3, [r7, #4]
 8001e54:	f8b3 204e 	ldrh.w	r2, [r3, #78]	@ 0x4e
 8001e58:	687b      	ldr	r3, [r7, #4]
 8001e5a:	f8b3 3056 	ldrh.w	r3, [r3, #86]	@ 0x56
 8001e5e:	429a      	cmp	r2, r3
 8001e60:	d905      	bls.n	8001e6e <u8g2_apply_clip_window+0xb2>
      u8g2->user_y1 = u8g2->clip_y1;
 8001e62:	687b      	ldr	r3, [r7, #4]
 8001e64:	f8b3 2056 	ldrh.w	r2, [r3, #86]	@ 0x56
 8001e68:	687b      	ldr	r3, [r7, #4]
 8001e6a:	f8a3 204e 	strh.w	r2, [r3, #78]	@ 0x4e
}
 8001e6e:	bf00      	nop
 8001e70:	3708      	adds	r7, #8
 8001e72:	46bd      	mov	sp, r7
 8001e74:	bd80      	pop	{r7, pc}

08001e76 <u8g2_update_dimension_r0>:

/*==========================================================*/


void u8g2_update_dimension_r0(u8g2_t *u8g2)
{
 8001e76:	b580      	push	{r7, lr}
 8001e78:	b082      	sub	sp, #8
 8001e7a:	af00      	add	r7, sp, #0
 8001e7c:	6078      	str	r0, [r7, #4]
  u8g2_update_dimension_common(u8g2);  
 8001e7e:	6878      	ldr	r0, [r7, #4]
 8001e80:	f7ff ff3c 	bl	8001cfc <u8g2_update_dimension_common>
}
 8001e84:	bf00      	nop
 8001e86:	3708      	adds	r7, #8
 8001e88:	46bd      	mov	sp, r7
 8001e8a:	bd80      	pop	{r7, pc}

08001e8c <u8g2_update_page_win_r0>:

void u8g2_update_page_win_r0(u8g2_t *u8g2)
{
 8001e8c:	b580      	push	{r7, lr}
 8001e8e:	b082      	sub	sp, #8
 8001e90:	af00      	add	r7, sp, #0
 8001e92:	6078      	str	r0, [r7, #4]
  u8g2->user_x0 = 0;
 8001e94:	687b      	ldr	r3, [r7, #4]
 8001e96:	2200      	movs	r2, #0
 8001e98:	f8a3 2048 	strh.w	r2, [r3, #72]	@ 0x48
  u8g2->user_x1 = u8g2->width;			/* pixel_buf_width replaced with width */
 8001e9c:	687b      	ldr	r3, [r7, #4]
 8001e9e:	f8b3 2044 	ldrh.w	r2, [r3, #68]	@ 0x44
 8001ea2:	687b      	ldr	r3, [r7, #4]
 8001ea4:	f8a3 204a 	strh.w	r2, [r3, #74]	@ 0x4a
  
  u8g2->user_y0 = u8g2->buf_y0;
 8001ea8:	687b      	ldr	r3, [r7, #4]
 8001eaa:	f8b3 2040 	ldrh.w	r2, [r3, #64]	@ 0x40
 8001eae:	687b      	ldr	r3, [r7, #4]
 8001eb0:	f8a3 204c 	strh.w	r2, [r3, #76]	@ 0x4c
  u8g2->user_y1 = u8g2->buf_y1;
 8001eb4:	687b      	ldr	r3, [r7, #4]
 8001eb6:	f8b3 2042 	ldrh.w	r2, [r3, #66]	@ 0x42
 8001eba:	687b      	ldr	r3, [r7, #4]
 8001ebc:	f8a3 204e 	strh.w	r2, [r3, #78]	@ 0x4e
  
#ifdef U8G2_WITH_CLIP_WINDOW_SUPPORT
  u8g2_apply_clip_window(u8g2);
 8001ec0:	6878      	ldr	r0, [r7, #4]
 8001ec2:	f7ff ff7b 	bl	8001dbc <u8g2_apply_clip_window>
#endif /* U8G2_WITH_CLIP_WINDOW_SUPPORT */
}
 8001ec6:	bf00      	nop
 8001ec8:	3708      	adds	r7, #8
 8001eca:	46bd      	mov	sp, r7
 8001ecc:	bd80      	pop	{r7, pc}

08001ece <u8g2_draw_l90_r0>:
/*============================================*/
extern void u8g2_draw_hv_line_2dir(u8g2_t *u8g2, u8g2_uint_t x, u8g2_uint_t y, u8g2_uint_t len, uint8_t dir);


void u8g2_draw_l90_r0(u8g2_t *u8g2, u8g2_uint_t x, u8g2_uint_t y, u8g2_uint_t len, uint8_t dir)
{
 8001ece:	b580      	push	{r7, lr}
 8001ed0:	b086      	sub	sp, #24
 8001ed2:	af02      	add	r7, sp, #8
 8001ed4:	60f8      	str	r0, [r7, #12]
 8001ed6:	4608      	mov	r0, r1
 8001ed8:	4611      	mov	r1, r2
 8001eda:	461a      	mov	r2, r3
 8001edc:	4603      	mov	r3, r0
 8001ede:	817b      	strh	r3, [r7, #10]
 8001ee0:	460b      	mov	r3, r1
 8001ee2:	813b      	strh	r3, [r7, #8]
 8001ee4:	4613      	mov	r3, r2
 8001ee6:	80fb      	strh	r3, [r7, #6]
#ifdef __unix
  assert( dir <= 1 );
#endif
  u8g2_draw_hv_line_2dir(u8g2, x, y, len, dir);
 8001ee8:	88f8      	ldrh	r0, [r7, #6]
 8001eea:	893a      	ldrh	r2, [r7, #8]
 8001eec:	8979      	ldrh	r1, [r7, #10]
 8001eee:	7e3b      	ldrb	r3, [r7, #24]
 8001ef0:	9300      	str	r3, [sp, #0]
 8001ef2:	4603      	mov	r3, r0
 8001ef4:	68f8      	ldr	r0, [r7, #12]
 8001ef6:	f7ff fcf5 	bl	80018e4 <u8g2_draw_hv_line_2dir>
}
 8001efa:	bf00      	nop
 8001efc:	3710      	adds	r7, #16
 8001efe:	46bd      	mov	sp, r7
 8001f00:	bd80      	pop	{r7, pc}

08001f02 <u8x8_utf8_init>:

*/

/* reset the internal state machine */
void u8x8_utf8_init(u8x8_t *u8x8)
{
 8001f02:	b480      	push	{r7}
 8001f04:	b083      	sub	sp, #12
 8001f06:	af00      	add	r7, sp, #0
 8001f08:	6078      	str	r0, [r7, #4]
  u8x8->utf8_state = 0;	/* also reset during u8x8_SetupDefaults() */
 8001f0a:	687b      	ldr	r3, [r7, #4]
 8001f0c:	2200      	movs	r2, #0
 8001f0e:	f883 2026 	strb.w	r2, [r3, #38]	@ 0x26
}
 8001f12:	bf00      	nop
 8001f14:	370c      	adds	r7, #12
 8001f16:	46bd      	mov	sp, r7
 8001f18:	f85d 7b04 	ldr.w	r7, [sp], #4
 8001f1c:	4770      	bx	lr

08001f1e <u8x8_ascii_next>:

uint16_t u8x8_ascii_next(U8X8_UNUSED u8x8_t *u8x8, uint8_t b)
{
 8001f1e:	b480      	push	{r7}
 8001f20:	b083      	sub	sp, #12
 8001f22:	af00      	add	r7, sp, #0
 8001f24:	6078      	str	r0, [r7, #4]
 8001f26:	460b      	mov	r3, r1
 8001f28:	70fb      	strb	r3, [r7, #3]
  if ( b == 0 || b == '\n' ) /* '\n' terminates the string to support the string list procedures */
 8001f2a:	78fb      	ldrb	r3, [r7, #3]
 8001f2c:	2b00      	cmp	r3, #0
 8001f2e:	d002      	beq.n	8001f36 <u8x8_ascii_next+0x18>
 8001f30:	78fb      	ldrb	r3, [r7, #3]
 8001f32:	2b0a      	cmp	r3, #10
 8001f34:	d102      	bne.n	8001f3c <u8x8_ascii_next+0x1e>
    return 0x0ffff;	/* end of string detected*/
 8001f36:	f64f 73ff 	movw	r3, #65535	@ 0xffff
 8001f3a:	e001      	b.n	8001f40 <u8x8_ascii_next+0x22>
  return b;
 8001f3c:	78fb      	ldrb	r3, [r7, #3]
 8001f3e:	b29b      	uxth	r3, r3
}
 8001f40:	4618      	mov	r0, r3
 8001f42:	370c      	adds	r7, #12
 8001f44:	46bd      	mov	sp, r7
 8001f46:	f85d 7b04 	ldr.w	r7, [sp], #4
 8001f4a:	4770      	bx	lr

08001f4c <u8x8_byte_SetDC>:
*/

#include "u8x8.h"

uint8_t u8x8_byte_SetDC(u8x8_t *u8x8, uint8_t dc)
{
 8001f4c:	b590      	push	{r4, r7, lr}
 8001f4e:	b083      	sub	sp, #12
 8001f50:	af00      	add	r7, sp, #0
 8001f52:	6078      	str	r0, [r7, #4]
 8001f54:	460b      	mov	r3, r1
 8001f56:	70fb      	strb	r3, [r7, #3]
  return u8x8->byte_cb(u8x8, U8X8_MSG_BYTE_SET_DC, dc, NULL);
 8001f58:	687b      	ldr	r3, [r7, #4]
 8001f5a:	691c      	ldr	r4, [r3, #16]
 8001f5c:	78fa      	ldrb	r2, [r7, #3]
 8001f5e:	2300      	movs	r3, #0
 8001f60:	2120      	movs	r1, #32
 8001f62:	6878      	ldr	r0, [r7, #4]
 8001f64:	47a0      	blx	r4
 8001f66:	4603      	mov	r3, r0
}
 8001f68:	4618      	mov	r0, r3
 8001f6a:	370c      	adds	r7, #12
 8001f6c:	46bd      	mov	sp, r7
 8001f6e:	bd90      	pop	{r4, r7, pc}

08001f70 <u8x8_byte_SendBytes>:

uint8_t u8x8_byte_SendBytes(u8x8_t *u8x8, uint8_t cnt, uint8_t *data)
{
 8001f70:	b590      	push	{r4, r7, lr}
 8001f72:	b085      	sub	sp, #20
 8001f74:	af00      	add	r7, sp, #0
 8001f76:	60f8      	str	r0, [r7, #12]
 8001f78:	460b      	mov	r3, r1
 8001f7a:	607a      	str	r2, [r7, #4]
 8001f7c:	72fb      	strb	r3, [r7, #11]
  return u8x8->byte_cb(u8x8, U8X8_MSG_BYTE_SEND, cnt, (void *)data);
 8001f7e:	68fb      	ldr	r3, [r7, #12]
 8001f80:	691c      	ldr	r4, [r3, #16]
 8001f82:	7afa      	ldrb	r2, [r7, #11]
 8001f84:	687b      	ldr	r3, [r7, #4]
 8001f86:	2117      	movs	r1, #23
 8001f88:	68f8      	ldr	r0, [r7, #12]
 8001f8a:	47a0      	blx	r4
 8001f8c:	4603      	mov	r3, r0
}
 8001f8e:	4618      	mov	r0, r3
 8001f90:	3714      	adds	r7, #20
 8001f92:	46bd      	mov	sp, r7
 8001f94:	bd90      	pop	{r4, r7, pc}

08001f96 <u8x8_byte_SendByte>:

uint8_t u8x8_byte_SendByte(u8x8_t *u8x8, uint8_t byte)
{
 8001f96:	b580      	push	{r7, lr}
 8001f98:	b082      	sub	sp, #8
 8001f9a:	af00      	add	r7, sp, #0
 8001f9c:	6078      	str	r0, [r7, #4]
 8001f9e:	460b      	mov	r3, r1
 8001fa0:	70fb      	strb	r3, [r7, #3]
  return u8x8_byte_SendBytes(u8x8, 1, &byte);
 8001fa2:	1cfb      	adds	r3, r7, #3
 8001fa4:	461a      	mov	r2, r3
 8001fa6:	2101      	movs	r1, #1
 8001fa8:	6878      	ldr	r0, [r7, #4]
 8001faa:	f7ff ffe1 	bl	8001f70 <u8x8_byte_SendBytes>
 8001fae:	4603      	mov	r3, r0
}
 8001fb0:	4618      	mov	r0, r3
 8001fb2:	3708      	adds	r7, #8
 8001fb4:	46bd      	mov	sp, r7
 8001fb6:	bd80      	pop	{r7, pc}

08001fb8 <u8x8_cad_SendCmd>:
*/

#include "u8x8.h"

uint8_t u8x8_cad_SendCmd(u8x8_t *u8x8, uint8_t cmd)
{
 8001fb8:	b590      	push	{r4, r7, lr}
 8001fba:	b083      	sub	sp, #12
 8001fbc:	af00      	add	r7, sp, #0
 8001fbe:	6078      	str	r0, [r7, #4]
 8001fc0:	460b      	mov	r3, r1
 8001fc2:	70fb      	strb	r3, [r7, #3]
  return u8x8->cad_cb(u8x8, U8X8_MSG_CAD_SEND_CMD, cmd, NULL);
 8001fc4:	687b      	ldr	r3, [r7, #4]
 8001fc6:	68dc      	ldr	r4, [r3, #12]
 8001fc8:	78fa      	ldrb	r2, [r7, #3]
 8001fca:	2300      	movs	r3, #0
 8001fcc:	2115      	movs	r1, #21
 8001fce:	6878      	ldr	r0, [r7, #4]
 8001fd0:	47a0      	blx	r4
 8001fd2:	4603      	mov	r3, r0
}
 8001fd4:	4618      	mov	r0, r3
 8001fd6:	370c      	adds	r7, #12
 8001fd8:	46bd      	mov	sp, r7
 8001fda:	bd90      	pop	{r4, r7, pc}

08001fdc <u8x8_cad_SendArg>:

uint8_t u8x8_cad_SendArg(u8x8_t *u8x8, uint8_t arg)
{
 8001fdc:	b590      	push	{r4, r7, lr}
 8001fde:	b083      	sub	sp, #12
 8001fe0:	af00      	add	r7, sp, #0
 8001fe2:	6078      	str	r0, [r7, #4]
 8001fe4:	460b      	mov	r3, r1
 8001fe6:	70fb      	strb	r3, [r7, #3]
  return u8x8->cad_cb(u8x8, U8X8_MSG_CAD_SEND_ARG, arg, NULL);
 8001fe8:	687b      	ldr	r3, [r7, #4]
 8001fea:	68dc      	ldr	r4, [r3, #12]
 8001fec:	78fa      	ldrb	r2, [r7, #3]
 8001fee:	2300      	movs	r3, #0
 8001ff0:	2116      	movs	r1, #22
 8001ff2:	6878      	ldr	r0, [r7, #4]
 8001ff4:	47a0      	blx	r4
 8001ff6:	4603      	mov	r3, r0
}
 8001ff8:	4618      	mov	r0, r3
 8001ffa:	370c      	adds	r7, #12
 8001ffc:	46bd      	mov	sp, r7
 8001ffe:	bd90      	pop	{r4, r7, pc}

08002000 <u8x8_cad_SendData>:
  }
  return 1;
}

uint8_t u8x8_cad_SendData(u8x8_t *u8x8, uint8_t cnt, uint8_t *data)
{
 8002000:	b590      	push	{r4, r7, lr}
 8002002:	b085      	sub	sp, #20
 8002004:	af00      	add	r7, sp, #0
 8002006:	60f8      	str	r0, [r7, #12]
 8002008:	460b      	mov	r3, r1
 800200a:	607a      	str	r2, [r7, #4]
 800200c:	72fb      	strb	r3, [r7, #11]
  return u8x8->cad_cb(u8x8, U8X8_MSG_CAD_SEND_DATA, cnt, data);
 800200e:	68fb      	ldr	r3, [r7, #12]
 8002010:	68dc      	ldr	r4, [r3, #12]
 8002012:	7afa      	ldrb	r2, [r7, #11]
 8002014:	687b      	ldr	r3, [r7, #4]
 8002016:	2117      	movs	r1, #23
 8002018:	68f8      	ldr	r0, [r7, #12]
 800201a:	47a0      	blx	r4
 800201c:	4603      	mov	r3, r0
}
 800201e:	4618      	mov	r0, r3
 8002020:	3714      	adds	r7, #20
 8002022:	46bd      	mov	sp, r7
 8002024:	bd90      	pop	{r4, r7, pc}

08002026 <u8x8_cad_StartTransfer>:

uint8_t u8x8_cad_StartTransfer(u8x8_t *u8x8)
{
 8002026:	b590      	push	{r4, r7, lr}
 8002028:	b083      	sub	sp, #12
 800202a:	af00      	add	r7, sp, #0
 800202c:	6078      	str	r0, [r7, #4]
  return u8x8->cad_cb(u8x8, U8X8_MSG_CAD_START_TRANSFER, 0, NULL);
 800202e:	687b      	ldr	r3, [r7, #4]
 8002030:	68dc      	ldr	r4, [r3, #12]
 8002032:	2300      	movs	r3, #0
 8002034:	2200      	movs	r2, #0
 8002036:	2118      	movs	r1, #24
 8002038:	6878      	ldr	r0, [r7, #4]
 800203a:	47a0      	blx	r4
 800203c:	4603      	mov	r3, r0
}
 800203e:	4618      	mov	r0, r3
 8002040:	370c      	adds	r7, #12
 8002042:	46bd      	mov	sp, r7
 8002044:	bd90      	pop	{r4, r7, pc}

08002046 <u8x8_cad_EndTransfer>:

uint8_t u8x8_cad_EndTransfer(u8x8_t *u8x8)
{
 8002046:	b590      	push	{r4, r7, lr}
 8002048:	b083      	sub	sp, #12
 800204a:	af00      	add	r7, sp, #0
 800204c:	6078      	str	r0, [r7, #4]
  return u8x8->cad_cb(u8x8, U8X8_MSG_CAD_END_TRANSFER, 0, NULL);
 800204e:	687b      	ldr	r3, [r7, #4]
 8002050:	68dc      	ldr	r4, [r3, #12]
 8002052:	2300      	movs	r3, #0
 8002054:	2200      	movs	r2, #0
 8002056:	2119      	movs	r1, #25
 8002058:	6878      	ldr	r0, [r7, #4]
 800205a:	47a0      	blx	r4
 800205c:	4603      	mov	r3, r0
}
 800205e:	4618      	mov	r0, r3
 8002060:	370c      	adds	r7, #12
 8002062:	46bd      	mov	sp, r7
 8002064:	bd90      	pop	{r4, r7, pc}

08002066 <u8x8_cad_SendSequence>:
  254 milli	delay by milliseconds
  255		end of sequence
*/

void u8x8_cad_SendSequence(u8x8_t *u8x8, uint8_t const *data)
{
 8002066:	b590      	push	{r4, r7, lr}
 8002068:	b085      	sub	sp, #20
 800206a:	af00      	add	r7, sp, #0
 800206c:	6078      	str	r0, [r7, #4]
 800206e:	6039      	str	r1, [r7, #0]
  uint8_t cmd;
  uint8_t v;

  for(;;)
  {
    cmd = *data;
 8002070:	683b      	ldr	r3, [r7, #0]
 8002072:	781b      	ldrb	r3, [r3, #0]
 8002074:	73fb      	strb	r3, [r7, #15]
    data++;
 8002076:	683b      	ldr	r3, [r7, #0]
 8002078:	3301      	adds	r3, #1
 800207a:	603b      	str	r3, [r7, #0]
    switch( cmd )
 800207c:	7bfb      	ldrb	r3, [r7, #15]
 800207e:	2bfe      	cmp	r3, #254	@ 0xfe
 8002080:	d031      	beq.n	80020e6 <u8x8_cad_SendSequence+0x80>
 8002082:	2bfe      	cmp	r3, #254	@ 0xfe
 8002084:	dc3d      	bgt.n	8002102 <u8x8_cad_SendSequence+0x9c>
 8002086:	2b19      	cmp	r3, #25
 8002088:	dc3b      	bgt.n	8002102 <u8x8_cad_SendSequence+0x9c>
 800208a:	2b18      	cmp	r3, #24
 800208c:	da23      	bge.n	80020d6 <u8x8_cad_SendSequence+0x70>
 800208e:	2b16      	cmp	r3, #22
 8002090:	dc02      	bgt.n	8002098 <u8x8_cad_SendSequence+0x32>
 8002092:	2b15      	cmp	r3, #21
 8002094:	da03      	bge.n	800209e <u8x8_cad_SendSequence+0x38>
	  v = *data;
	  u8x8_gpio_Delay(u8x8, U8X8_MSG_DELAY_MILLI, v);	    
	  data++;
	  break;
      default:
	return;
 8002096:	e034      	b.n	8002102 <u8x8_cad_SendSequence+0x9c>
    switch( cmd )
 8002098:	2b17      	cmp	r3, #23
 800209a:	d00e      	beq.n	80020ba <u8x8_cad_SendSequence+0x54>
	return;
 800209c:	e031      	b.n	8002102 <u8x8_cad_SendSequence+0x9c>
	  v = *data;
 800209e:	683b      	ldr	r3, [r7, #0]
 80020a0:	781b      	ldrb	r3, [r3, #0]
 80020a2:	73bb      	strb	r3, [r7, #14]
	  u8x8->cad_cb(u8x8, cmd, v, NULL);
 80020a4:	687b      	ldr	r3, [r7, #4]
 80020a6:	68dc      	ldr	r4, [r3, #12]
 80020a8:	7bba      	ldrb	r2, [r7, #14]
 80020aa:	7bf9      	ldrb	r1, [r7, #15]
 80020ac:	2300      	movs	r3, #0
 80020ae:	6878      	ldr	r0, [r7, #4]
 80020b0:	47a0      	blx	r4
	  data++;
 80020b2:	683b      	ldr	r3, [r7, #0]
 80020b4:	3301      	adds	r3, #1
 80020b6:	603b      	str	r3, [r7, #0]
	  break;
 80020b8:	e022      	b.n	8002100 <u8x8_cad_SendSequence+0x9a>
	  v = *data;
 80020ba:	683b      	ldr	r3, [r7, #0]
 80020bc:	781b      	ldrb	r3, [r3, #0]
 80020be:	73bb      	strb	r3, [r7, #14]
	  u8x8_cad_SendData(u8x8, 1, &v);
 80020c0:	f107 030e 	add.w	r3, r7, #14
 80020c4:	461a      	mov	r2, r3
 80020c6:	2101      	movs	r1, #1
 80020c8:	6878      	ldr	r0, [r7, #4]
 80020ca:	f7ff ff99 	bl	8002000 <u8x8_cad_SendData>
	  data++;
 80020ce:	683b      	ldr	r3, [r7, #0]
 80020d0:	3301      	adds	r3, #1
 80020d2:	603b      	str	r3, [r7, #0]
	  break;
 80020d4:	e014      	b.n	8002100 <u8x8_cad_SendSequence+0x9a>
	  u8x8->cad_cb(u8x8, cmd, 0, NULL);
 80020d6:	687b      	ldr	r3, [r7, #4]
 80020d8:	68dc      	ldr	r4, [r3, #12]
 80020da:	7bf9      	ldrb	r1, [r7, #15]
 80020dc:	2300      	movs	r3, #0
 80020de:	2200      	movs	r2, #0
 80020e0:	6878      	ldr	r0, [r7, #4]
 80020e2:	47a0      	blx	r4
	  break;
 80020e4:	e00c      	b.n	8002100 <u8x8_cad_SendSequence+0x9a>
	  v = *data;
 80020e6:	683b      	ldr	r3, [r7, #0]
 80020e8:	781b      	ldrb	r3, [r3, #0]
 80020ea:	73bb      	strb	r3, [r7, #14]
	  u8x8_gpio_Delay(u8x8, U8X8_MSG_DELAY_MILLI, v);	    
 80020ec:	7bbb      	ldrb	r3, [r7, #14]
 80020ee:	461a      	mov	r2, r3
 80020f0:	2129      	movs	r1, #41	@ 0x29
 80020f2:	6878      	ldr	r0, [r7, #4]
 80020f4:	f000 f9d9 	bl	80024aa <u8x8_gpio_call>
	  data++;
 80020f8:	683b      	ldr	r3, [r7, #0]
 80020fa:	3301      	adds	r3, #1
 80020fc:	603b      	str	r3, [r7, #0]
	  break;
 80020fe:	bf00      	nop
    cmd = *data;
 8002100:	e7b6      	b.n	8002070 <u8x8_cad_SendSequence+0xa>
	return;
 8002102:	bf00      	nop
    }
  }
}
 8002104:	3714      	adds	r7, #20
 8002106:	46bd      	mov	sp, r7
 8002108:	bd90      	pop	{r4, r7, pc}
	...

0800210c <u8x8_cad_001>:
  convert to bytes by using 
    dc = 0 for commands and args and
    dc = 1 for data
*/
uint8_t u8x8_cad_001(u8x8_t *u8x8, uint8_t msg, uint8_t arg_int, void *arg_ptr)
{
 800210c:	b590      	push	{r4, r7, lr}
 800210e:	b085      	sub	sp, #20
 8002110:	af00      	add	r7, sp, #0
 8002112:	60f8      	str	r0, [r7, #12]
 8002114:	607b      	str	r3, [r7, #4]
 8002116:	460b      	mov	r3, r1
 8002118:	72fb      	strb	r3, [r7, #11]
 800211a:	4613      	mov	r3, r2
 800211c:	72bb      	strb	r3, [r7, #10]
  switch(msg)
 800211e:	7afb      	ldrb	r3, [r7, #11]
 8002120:	3b14      	subs	r3, #20
 8002122:	2b05      	cmp	r3, #5
 8002124:	d82f      	bhi.n	8002186 <u8x8_cad_001+0x7a>
 8002126:	a201      	add	r2, pc, #4	@ (adr r2, 800212c <u8x8_cad_001+0x20>)
 8002128:	f852 f023 	ldr.w	pc, [r2, r3, lsl #2]
 800212c:	08002175 	.word	0x08002175
 8002130:	08002145 	.word	0x08002145
 8002134:	08002159 	.word	0x08002159
 8002138:	0800216d 	.word	0x0800216d
 800213c:	08002175 	.word	0x08002175
 8002140:	08002175 	.word	0x08002175
  {
    case U8X8_MSG_CAD_SEND_CMD:
      u8x8_byte_SetDC(u8x8, 0);
 8002144:	2100      	movs	r1, #0
 8002146:	68f8      	ldr	r0, [r7, #12]
 8002148:	f7ff ff00 	bl	8001f4c <u8x8_byte_SetDC>
      u8x8_byte_SendByte(u8x8, arg_int);
 800214c:	7abb      	ldrb	r3, [r7, #10]
 800214e:	4619      	mov	r1, r3
 8002150:	68f8      	ldr	r0, [r7, #12]
 8002152:	f7ff ff20 	bl	8001f96 <u8x8_byte_SendByte>
      break;
 8002156:	e018      	b.n	800218a <u8x8_cad_001+0x7e>
    case U8X8_MSG_CAD_SEND_ARG:
      u8x8_byte_SetDC(u8x8, 0);
 8002158:	2100      	movs	r1, #0
 800215a:	68f8      	ldr	r0, [r7, #12]
 800215c:	f7ff fef6 	bl	8001f4c <u8x8_byte_SetDC>
      u8x8_byte_SendByte(u8x8, arg_int);
 8002160:	7abb      	ldrb	r3, [r7, #10]
 8002162:	4619      	mov	r1, r3
 8002164:	68f8      	ldr	r0, [r7, #12]
 8002166:	f7ff ff16 	bl	8001f96 <u8x8_byte_SendByte>
      break;
 800216a:	e00e      	b.n	800218a <u8x8_cad_001+0x7e>
    case U8X8_MSG_CAD_SEND_DATA:
      u8x8_byte_SetDC(u8x8, 1);
 800216c:	2101      	movs	r1, #1
 800216e:	68f8      	ldr	r0, [r7, #12]
 8002170:	f7ff feec 	bl	8001f4c <u8x8_byte_SetDC>
      //break;
      /* fall through */
    case U8X8_MSG_CAD_INIT:
    case U8X8_MSG_CAD_START_TRANSFER:
    case U8X8_MSG_CAD_END_TRANSFER:
      return u8x8->byte_cb(u8x8, msg, arg_int, arg_ptr);
 8002174:	68fb      	ldr	r3, [r7, #12]
 8002176:	691c      	ldr	r4, [r3, #16]
 8002178:	7aba      	ldrb	r2, [r7, #10]
 800217a:	7af9      	ldrb	r1, [r7, #11]
 800217c:	687b      	ldr	r3, [r7, #4]
 800217e:	68f8      	ldr	r0, [r7, #12]
 8002180:	47a0      	blx	r4
 8002182:	4603      	mov	r3, r0
 8002184:	e002      	b.n	800218c <u8x8_cad_001+0x80>
    default:
      return 0;
 8002186:	2300      	movs	r3, #0
 8002188:	e000      	b.n	800218c <u8x8_cad_001+0x80>
  }
  return 1;
 800218a:	2301      	movs	r3, #1
}
 800218c:	4618      	mov	r0, r3
 800218e:	3714      	adds	r7, #20
 8002190:	46bd      	mov	sp, r7
 8002192:	bd90      	pop	{r4, r7, pc}

08002194 <u8x8_d_ssd1306_sh1106_generic>:
  U8X8_END_TRANSFER(),             	/* disable chip */
  U8X8_END()             			/* end of sequence */
};

static uint8_t u8x8_d_ssd1306_sh1106_generic(u8x8_t *u8x8, uint8_t msg, uint8_t arg_int, void *arg_ptr)
{
 8002194:	b580      	push	{r7, lr}
 8002196:	b086      	sub	sp, #24
 8002198:	af00      	add	r7, sp, #0
 800219a:	60f8      	str	r0, [r7, #12]
 800219c:	607b      	str	r3, [r7, #4]
 800219e:	460b      	mov	r3, r1
 80021a0:	72fb      	strb	r3, [r7, #11]
 80021a2:	4613      	mov	r3, r2
 80021a4:	72bb      	strb	r3, [r7, #10]
  uint8_t x, c;
  uint8_t *ptr;
  switch(msg)
 80021a6:	7afb      	ldrb	r3, [r7, #11]
 80021a8:	3b0b      	subs	r3, #11
 80021aa:	2b04      	cmp	r3, #4
 80021ac:	f200 808a 	bhi.w	80022c4 <u8x8_d_ssd1306_sh1106_generic+0x130>
 80021b0:	a201      	add	r2, pc, #4	@ (adr r2, 80021b8 <u8x8_d_ssd1306_sh1106_generic+0x24>)
 80021b2:	f852 f023 	ldr.w	pc, [r2, r3, lsl #2]
 80021b6:	bf00      	nop
 80021b8:	080021cd 	.word	0x080021cd
 80021bc:	080022c5 	.word	0x080022c5
 80021c0:	080021e7 	.word	0x080021e7
 80021c4:	08002219 	.word	0x08002219
 80021c8:	08002239 	.word	0x08002239
      u8x8_d_helper_display_init(u8x8);
      u8x8_cad_SendSequence(u8x8, u8x8_d_ssd1306_128x64_noname_init_seq);    
      break;
    */
    case U8X8_MSG_DISPLAY_SET_POWER_SAVE:
      if ( arg_int == 0 )
 80021cc:	7abb      	ldrb	r3, [r7, #10]
 80021ce:	2b00      	cmp	r3, #0
 80021d0:	d104      	bne.n	80021dc <u8x8_d_ssd1306_sh1106_generic+0x48>
	u8x8_cad_SendSequence(u8x8, u8x8_d_ssd1306_128x64_noname_powersave0_seq);
 80021d2:	4940      	ldr	r1, [pc, #256]	@ (80022d4 <u8x8_d_ssd1306_sh1106_generic+0x140>)
 80021d4:	68f8      	ldr	r0, [r7, #12]
 80021d6:	f7ff ff46 	bl	8002066 <u8x8_cad_SendSequence>
      else
	u8x8_cad_SendSequence(u8x8, u8x8_d_ssd1306_128x64_noname_powersave1_seq);
      break;
 80021da:	e075      	b.n	80022c8 <u8x8_d_ssd1306_sh1106_generic+0x134>
	u8x8_cad_SendSequence(u8x8, u8x8_d_ssd1306_128x64_noname_powersave1_seq);
 80021dc:	493e      	ldr	r1, [pc, #248]	@ (80022d8 <u8x8_d_ssd1306_sh1106_generic+0x144>)
 80021de:	68f8      	ldr	r0, [r7, #12]
 80021e0:	f7ff ff41 	bl	8002066 <u8x8_cad_SendSequence>
      break;
 80021e4:	e070      	b.n	80022c8 <u8x8_d_ssd1306_sh1106_generic+0x134>
    case U8X8_MSG_DISPLAY_SET_FLIP_MODE:
      if ( arg_int == 0 )
 80021e6:	7abb      	ldrb	r3, [r7, #10]
 80021e8:	2b00      	cmp	r3, #0
 80021ea:	d10a      	bne.n	8002202 <u8x8_d_ssd1306_sh1106_generic+0x6e>
      {
	u8x8_cad_SendSequence(u8x8, u8x8_d_ssd1306_128x64_noname_flip0_seq);
 80021ec:	493b      	ldr	r1, [pc, #236]	@ (80022dc <u8x8_d_ssd1306_sh1106_generic+0x148>)
 80021ee:	68f8      	ldr	r0, [r7, #12]
 80021f0:	f7ff ff39 	bl	8002066 <u8x8_cad_SendSequence>
	u8x8->x_offset = u8x8->display_info->default_x_offset;
 80021f4:	68fb      	ldr	r3, [r7, #12]
 80021f6:	681b      	ldr	r3, [r3, #0]
 80021f8:	7c9a      	ldrb	r2, [r3, #18]
 80021fa:	68fb      	ldr	r3, [r7, #12]
 80021fc:	f883 2022 	strb.w	r2, [r3, #34]	@ 0x22
      else
      {
	u8x8_cad_SendSequence(u8x8, u8x8_d_ssd1306_128x64_noname_flip1_seq);
	u8x8->x_offset = u8x8->display_info->flipmode_x_offset;
      }
      break;
 8002200:	e062      	b.n	80022c8 <u8x8_d_ssd1306_sh1106_generic+0x134>
	u8x8_cad_SendSequence(u8x8, u8x8_d_ssd1306_128x64_noname_flip1_seq);
 8002202:	4937      	ldr	r1, [pc, #220]	@ (80022e0 <u8x8_d_ssd1306_sh1106_generic+0x14c>)
 8002204:	68f8      	ldr	r0, [r7, #12]
 8002206:	f7ff ff2e 	bl	8002066 <u8x8_cad_SendSequence>
	u8x8->x_offset = u8x8->display_info->flipmode_x_offset;
 800220a:	68fb      	ldr	r3, [r7, #12]
 800220c:	681b      	ldr	r3, [r3, #0]
 800220e:	7cda      	ldrb	r2, [r3, #19]
 8002210:	68fb      	ldr	r3, [r7, #12]
 8002212:	f883 2022 	strb.w	r2, [r3, #34]	@ 0x22
      break;
 8002216:	e057      	b.n	80022c8 <u8x8_d_ssd1306_sh1106_generic+0x134>
#ifdef U8X8_WITH_SET_CONTRAST
    case U8X8_MSG_DISPLAY_SET_CONTRAST:
      u8x8_cad_StartTransfer(u8x8);
 8002218:	68f8      	ldr	r0, [r7, #12]
 800221a:	f7ff ff04 	bl	8002026 <u8x8_cad_StartTransfer>
      u8x8_cad_SendCmd(u8x8, 0x081 );
 800221e:	2181      	movs	r1, #129	@ 0x81
 8002220:	68f8      	ldr	r0, [r7, #12]
 8002222:	f7ff fec9 	bl	8001fb8 <u8x8_cad_SendCmd>
      u8x8_cad_SendArg(u8x8, arg_int );	/* ssd1306 has range from 0 to 255 */
 8002226:	7abb      	ldrb	r3, [r7, #10]
 8002228:	4619      	mov	r1, r3
 800222a:	68f8      	ldr	r0, [r7, #12]
 800222c:	f7ff fed6 	bl	8001fdc <u8x8_cad_SendArg>
      u8x8_cad_EndTransfer(u8x8);
 8002230:	68f8      	ldr	r0, [r7, #12]
 8002232:	f7ff ff08 	bl	8002046 <u8x8_cad_EndTransfer>
      break;
 8002236:	e047      	b.n	80022c8 <u8x8_d_ssd1306_sh1106_generic+0x134>
#endif
    case U8X8_MSG_DISPLAY_DRAW_TILE:
      u8x8_cad_StartTransfer(u8x8);
 8002238:	68f8      	ldr	r0, [r7, #12]
 800223a:	f7ff fef4 	bl	8002026 <u8x8_cad_StartTransfer>
      x = ((u8x8_tile_t *)arg_ptr)->x_pos;    
 800223e:	687b      	ldr	r3, [r7, #4]
 8002240:	795b      	ldrb	r3, [r3, #5]
 8002242:	75fb      	strb	r3, [r7, #23]
      x *= 8;
 8002244:	7dfb      	ldrb	r3, [r7, #23]
 8002246:	00db      	lsls	r3, r3, #3
 8002248:	75fb      	strb	r3, [r7, #23]
      x += u8x8->x_offset;
 800224a:	68fb      	ldr	r3, [r7, #12]
 800224c:	f893 2022 	ldrb.w	r2, [r3, #34]	@ 0x22
 8002250:	7dfb      	ldrb	r3, [r7, #23]
 8002252:	4413      	add	r3, r2
 8002254:	75fb      	strb	r3, [r7, #23]
    
      u8x8_cad_SendCmd(u8x8, 0x040 );	/* set line offset to 0 */
 8002256:	2140      	movs	r1, #64	@ 0x40
 8002258:	68f8      	ldr	r0, [r7, #12]
 800225a:	f7ff fead 	bl	8001fb8 <u8x8_cad_SendCmd>
    
      u8x8_cad_SendCmd(u8x8, 0x010 | (x>>4) );
 800225e:	7dfb      	ldrb	r3, [r7, #23]
 8002260:	091b      	lsrs	r3, r3, #4
 8002262:	b2db      	uxtb	r3, r3
 8002264:	f043 0310 	orr.w	r3, r3, #16
 8002268:	b2db      	uxtb	r3, r3
 800226a:	4619      	mov	r1, r3
 800226c:	68f8      	ldr	r0, [r7, #12]
 800226e:	f7ff fea3 	bl	8001fb8 <u8x8_cad_SendCmd>
      u8x8_cad_SendArg(u8x8, 0x000 | ((x&15)));					/* probably wrong, should be SendCmd */
 8002272:	7dfb      	ldrb	r3, [r7, #23]
 8002274:	f003 030f 	and.w	r3, r3, #15
 8002278:	b2db      	uxtb	r3, r3
 800227a:	4619      	mov	r1, r3
 800227c:	68f8      	ldr	r0, [r7, #12]
 800227e:	f7ff fead 	bl	8001fdc <u8x8_cad_SendArg>
      u8x8_cad_SendArg(u8x8, 0x0b0 | (((u8x8_tile_t *)arg_ptr)->y_pos));	/* probably wrong, should be SendCmd */
 8002282:	687b      	ldr	r3, [r7, #4]
 8002284:	799b      	ldrb	r3, [r3, #6]
 8002286:	f063 034f 	orn	r3, r3, #79	@ 0x4f
 800228a:	b2db      	uxtb	r3, r3
 800228c:	4619      	mov	r1, r3
 800228e:	68f8      	ldr	r0, [r7, #12]
 8002290:	f7ff fea4 	bl	8001fdc <u8x8_cad_SendArg>

    
      do
      {
	c = ((u8x8_tile_t *)arg_ptr)->cnt;
 8002294:	687b      	ldr	r3, [r7, #4]
 8002296:	791b      	ldrb	r3, [r3, #4]
 8002298:	75bb      	strb	r3, [r7, #22]
	ptr = ((u8x8_tile_t *)arg_ptr)->tile_ptr;
 800229a:	687b      	ldr	r3, [r7, #4]
 800229c:	681b      	ldr	r3, [r3, #0]
 800229e:	613b      	str	r3, [r7, #16]
	u8x8_cad_SendData(u8x8, c*8, ptr); 	/* note: SendData can not handle more than 255 bytes */
 80022a0:	7dbb      	ldrb	r3, [r7, #22]
 80022a2:	00db      	lsls	r3, r3, #3
 80022a4:	b2db      	uxtb	r3, r3
 80022a6:	693a      	ldr	r2, [r7, #16]
 80022a8:	4619      	mov	r1, r3
 80022aa:	68f8      	ldr	r0, [r7, #12]
 80022ac:	f7ff fea8 	bl	8002000 <u8x8_cad_SendData>
	  u8x8_cad_SendData(u8x8, 8, ptr);
	  ptr += 8;
	  c--;
	} while( c > 0 );
	*/
	arg_int--;
 80022b0:	7abb      	ldrb	r3, [r7, #10]
 80022b2:	3b01      	subs	r3, #1
 80022b4:	72bb      	strb	r3, [r7, #10]
      } while( arg_int > 0 );
 80022b6:	7abb      	ldrb	r3, [r7, #10]
 80022b8:	2b00      	cmp	r3, #0
 80022ba:	d1eb      	bne.n	8002294 <u8x8_d_ssd1306_sh1106_generic+0x100>
      
      u8x8_cad_EndTransfer(u8x8);
 80022bc:	68f8      	ldr	r0, [r7, #12]
 80022be:	f7ff fec2 	bl	8002046 <u8x8_cad_EndTransfer>
      break;
 80022c2:	e001      	b.n	80022c8 <u8x8_d_ssd1306_sh1106_generic+0x134>
    default:
      return 0;
 80022c4:	2300      	movs	r3, #0
 80022c6:	e000      	b.n	80022ca <u8x8_d_ssd1306_sh1106_generic+0x136>
  }
  return 1;
 80022c8:	2301      	movs	r3, #1
}
 80022ca:	4618      	mov	r0, r3
 80022cc:	3718      	adds	r7, #24
 80022ce:	46bd      	mov	sp, r7
 80022d0:	bd80      	pop	{r7, pc}
 80022d2:	bf00      	nop
 80022d4:	080050b0 	.word	0x080050b0
 80022d8:	080050b8 	.word	0x080050b8
 80022dc:	080050c0 	.word	0x080050c0
 80022e0:	080050c8 	.word	0x080050c8

080022e4 <u8x8_d_sh1106_128x64_noname>:
  /* pixel_width = */ 128,
  /* pixel_height = */ 64
};

uint8_t u8x8_d_sh1106_128x64_noname(u8x8_t *u8x8, uint8_t msg, uint8_t arg_int, void *arg_ptr)
{
 80022e4:	b580      	push	{r7, lr}
 80022e6:	b084      	sub	sp, #16
 80022e8:	af00      	add	r7, sp, #0
 80022ea:	60f8      	str	r0, [r7, #12]
 80022ec:	607b      	str	r3, [r7, #4]
 80022ee:	460b      	mov	r3, r1
 80022f0:	72fb      	strb	r3, [r7, #11]
 80022f2:	4613      	mov	r3, r2
 80022f4:	72bb      	strb	r3, [r7, #10]
  if ( u8x8_d_ssd1306_sh1106_generic(u8x8, msg, arg_int, arg_ptr) != 0 )
 80022f6:	7aba      	ldrb	r2, [r7, #10]
 80022f8:	7af9      	ldrb	r1, [r7, #11]
 80022fa:	687b      	ldr	r3, [r7, #4]
 80022fc:	68f8      	ldr	r0, [r7, #12]
 80022fe:	f7ff ff49 	bl	8002194 <u8x8_d_ssd1306_sh1106_generic>
 8002302:	4603      	mov	r3, r0
 8002304:	2b00      	cmp	r3, #0
 8002306:	d001      	beq.n	800230c <u8x8_d_sh1106_128x64_noname+0x28>
    return 1;
 8002308:	2301      	movs	r3, #1
 800230a:	e014      	b.n	8002336 <u8x8_d_sh1106_128x64_noname+0x52>
  
  switch(msg)
 800230c:	7afb      	ldrb	r3, [r7, #11]
 800230e:	2b09      	cmp	r3, #9
 8002310:	d009      	beq.n	8002326 <u8x8_d_sh1106_128x64_noname+0x42>
 8002312:	2b0a      	cmp	r3, #10
 8002314:	d10c      	bne.n	8002330 <u8x8_d_sh1106_128x64_noname+0x4c>
  {
    case U8X8_MSG_DISPLAY_INIT:
      u8x8_d_helper_display_init(u8x8);
 8002316:	68f8      	ldr	r0, [r7, #12]
 8002318:	f000 f82a 	bl	8002370 <u8x8_d_helper_display_init>
      /* maybe use a better init sequence */
      /* https://www.mikrocontroller.net/topic/431371 */
      /* the new sequence is added in the winstar constructor (see below), this is kept untouched */
      u8x8_cad_SendSequence(u8x8, u8x8_d_ssd1306_128x64_noname_init_seq);    
 800231c:	4908      	ldr	r1, [pc, #32]	@ (8002340 <u8x8_d_sh1106_128x64_noname+0x5c>)
 800231e:	68f8      	ldr	r0, [r7, #12]
 8002320:	f7ff fea1 	bl	8002066 <u8x8_cad_SendSequence>
      break;
 8002324:	e006      	b.n	8002334 <u8x8_d_sh1106_128x64_noname+0x50>
    case U8X8_MSG_DISPLAY_SETUP_MEMORY:
      u8x8_d_helper_display_setup_memory(u8x8, &u8x8_sh1106_128x64_noname_display_info);
 8002326:	4907      	ldr	r1, [pc, #28]	@ (8002344 <u8x8_d_sh1106_128x64_noname+0x60>)
 8002328:	68f8      	ldr	r0, [r7, #12]
 800232a:	f000 f80d 	bl	8002348 <u8x8_d_helper_display_setup_memory>
      break;
 800232e:	e001      	b.n	8002334 <u8x8_d_sh1106_128x64_noname+0x50>
    default:
      return 0;
 8002330:	2300      	movs	r3, #0
 8002332:	e000      	b.n	8002336 <u8x8_d_sh1106_128x64_noname+0x52>
  }
  return 1;
 8002334:	2301      	movs	r3, #1
    
}
 8002336:	4618      	mov	r0, r3
 8002338:	3710      	adds	r7, #16
 800233a:	46bd      	mov	sp, r7
 800233c:	bd80      	pop	{r7, pc}
 800233e:	bf00      	nop
 8002340:	08005078 	.word	0x08005078
 8002344:	080050d0 	.word	0x080050d0

08002348 <u8x8_d_helper_display_setup_memory>:
  this is a helper function for the U8X8_MSG_DISPLAY_SETUP_MEMORY function.
  It can be called within the display callback function to carry out the usual standard tasks.
  
*/
void u8x8_d_helper_display_setup_memory(u8x8_t *u8x8, const u8x8_display_info_t *display_info)
{
 8002348:	b480      	push	{r7}
 800234a:	b083      	sub	sp, #12
 800234c:	af00      	add	r7, sp, #0
 800234e:	6078      	str	r0, [r7, #4]
 8002350:	6039      	str	r1, [r7, #0]
      /* 1) set display info struct */
      u8x8->display_info = display_info;
 8002352:	687b      	ldr	r3, [r7, #4]
 8002354:	683a      	ldr	r2, [r7, #0]
 8002356:	601a      	str	r2, [r3, #0]
      u8x8->x_offset = u8x8->display_info->default_x_offset;
 8002358:	687b      	ldr	r3, [r7, #4]
 800235a:	681b      	ldr	r3, [r3, #0]
 800235c:	7c9a      	ldrb	r2, [r3, #18]
 800235e:	687b      	ldr	r3, [r7, #4]
 8002360:	f883 2022 	strb.w	r2, [r3, #34]	@ 0x22
}
 8002364:	bf00      	nop
 8002366:	370c      	adds	r7, #12
 8002368:	46bd      	mov	sp, r7
 800236a:	f85d 7b04 	ldr.w	r7, [sp], #4
 800236e:	4770      	bx	lr

08002370 <u8x8_d_helper_display_init>:
  this is a helper function for the U8X8_MSG_DISPLAY_INIT function.
  It can be called within the display callback function to carry out the usual standard tasks.
  
*/
void u8x8_d_helper_display_init(u8x8_t *u8x8)
{
 8002370:	b590      	push	{r4, r7, lr}
 8002372:	b083      	sub	sp, #12
 8002374:	af00      	add	r7, sp, #0
 8002376:	6078      	str	r0, [r7, #4]
      /* 2) apply port directions to the GPIO lines and apply default values for the IO lines*/
      u8x8_gpio_Init(u8x8);             /* macro, which calls gpio_and_delay_cb with U8X8_MSG_GPIO_AND_DELAY_INIT */
 8002378:	687b      	ldr	r3, [r7, #4]
 800237a:	695c      	ldr	r4, [r3, #20]
 800237c:	2300      	movs	r3, #0
 800237e:	2200      	movs	r2, #0
 8002380:	2128      	movs	r1, #40	@ 0x28
 8002382:	6878      	ldr	r0, [r7, #4]
 8002384:	47a0      	blx	r4
      u8x8_cad_Init(u8x8);              /* this will also call U8X8_MSG_BYTE_INIT, byte init will NOT call GPIO_INIT */
 8002386:	687b      	ldr	r3, [r7, #4]
 8002388:	68dc      	ldr	r4, [r3, #12]
 800238a:	2300      	movs	r3, #0
 800238c:	2200      	movs	r2, #0
 800238e:	2114      	movs	r1, #20
 8002390:	6878      	ldr	r0, [r7, #4]
 8002392:	47a0      	blx	r4

      /* 3) do reset */
      u8x8_gpio_SetReset(u8x8, 1);
 8002394:	2201      	movs	r2, #1
 8002396:	214b      	movs	r1, #75	@ 0x4b
 8002398:	6878      	ldr	r0, [r7, #4]
 800239a:	f000 f886 	bl	80024aa <u8x8_gpio_call>
      u8x8_gpio_Delay(u8x8, U8X8_MSG_DELAY_MILLI, u8x8->display_info->reset_pulse_width_ms);
 800239e:	687b      	ldr	r3, [r7, #4]
 80023a0:	681b      	ldr	r3, [r3, #0]
 80023a2:	791b      	ldrb	r3, [r3, #4]
 80023a4:	461a      	mov	r2, r3
 80023a6:	2129      	movs	r1, #41	@ 0x29
 80023a8:	6878      	ldr	r0, [r7, #4]
 80023aa:	f000 f87e 	bl	80024aa <u8x8_gpio_call>
      u8x8_gpio_SetReset(u8x8, 0);
 80023ae:	2200      	movs	r2, #0
 80023b0:	214b      	movs	r1, #75	@ 0x4b
 80023b2:	6878      	ldr	r0, [r7, #4]
 80023b4:	f000 f879 	bl	80024aa <u8x8_gpio_call>
      u8x8_gpio_Delay(u8x8, U8X8_MSG_DELAY_MILLI, u8x8->display_info->reset_pulse_width_ms);
 80023b8:	687b      	ldr	r3, [r7, #4]
 80023ba:	681b      	ldr	r3, [r3, #0]
 80023bc:	791b      	ldrb	r3, [r3, #4]
 80023be:	461a      	mov	r2, r3
 80023c0:	2129      	movs	r1, #41	@ 0x29
 80023c2:	6878      	ldr	r0, [r7, #4]
 80023c4:	f000 f871 	bl	80024aa <u8x8_gpio_call>
      u8x8_gpio_SetReset(u8x8, 1);
 80023c8:	2201      	movs	r2, #1
 80023ca:	214b      	movs	r1, #75	@ 0x4b
 80023cc:	6878      	ldr	r0, [r7, #4]
 80023ce:	f000 f86c 	bl	80024aa <u8x8_gpio_call>
      u8x8_gpio_Delay(u8x8, U8X8_MSG_DELAY_MILLI, u8x8->display_info->post_reset_wait_ms);
 80023d2:	687b      	ldr	r3, [r7, #4]
 80023d4:	681b      	ldr	r3, [r3, #0]
 80023d6:	795b      	ldrb	r3, [r3, #5]
 80023d8:	461a      	mov	r2, r3
 80023da:	2129      	movs	r1, #41	@ 0x29
 80023dc:	6878      	ldr	r0, [r7, #4]
 80023de:	f000 f864 	bl	80024aa <u8x8_gpio_call>
}    
 80023e2:	bf00      	nop
 80023e4:	370c      	adds	r7, #12
 80023e6:	46bd      	mov	sp, r7
 80023e8:	bd90      	pop	{r4, r7, pc}

080023ea <u8x8_DrawTile>:

/*==========================================*/
/* official functions */

uint8_t u8x8_DrawTile(u8x8_t *u8x8, uint8_t x, uint8_t y, uint8_t cnt, uint8_t *tile_ptr)
{
 80023ea:	b590      	push	{r4, r7, lr}
 80023ec:	b085      	sub	sp, #20
 80023ee:	af00      	add	r7, sp, #0
 80023f0:	6078      	str	r0, [r7, #4]
 80023f2:	4608      	mov	r0, r1
 80023f4:	4611      	mov	r1, r2
 80023f6:	461a      	mov	r2, r3
 80023f8:	4603      	mov	r3, r0
 80023fa:	70fb      	strb	r3, [r7, #3]
 80023fc:	460b      	mov	r3, r1
 80023fe:	70bb      	strb	r3, [r7, #2]
 8002400:	4613      	mov	r3, r2
 8002402:	707b      	strb	r3, [r7, #1]
  u8x8_tile_t tile;
  tile.x_pos = x;
 8002404:	78fb      	ldrb	r3, [r7, #3]
 8002406:	737b      	strb	r3, [r7, #13]
  tile.y_pos = y;
 8002408:	78bb      	ldrb	r3, [r7, #2]
 800240a:	73bb      	strb	r3, [r7, #14]
  tile.cnt = cnt;
 800240c:	787b      	ldrb	r3, [r7, #1]
 800240e:	733b      	strb	r3, [r7, #12]
  tile.tile_ptr = tile_ptr;
 8002410:	6a3b      	ldr	r3, [r7, #32]
 8002412:	60bb      	str	r3, [r7, #8]
  return u8x8->display_cb(u8x8, U8X8_MSG_DISPLAY_DRAW_TILE, 1, (void *)&tile);
 8002414:	687b      	ldr	r3, [r7, #4]
 8002416:	689c      	ldr	r4, [r3, #8]
 8002418:	f107 0308 	add.w	r3, r7, #8
 800241c:	2201      	movs	r2, #1
 800241e:	210f      	movs	r1, #15
 8002420:	6878      	ldr	r0, [r7, #4]
 8002422:	47a0      	blx	r4
 8002424:	4603      	mov	r3, r0
}
 8002426:	4618      	mov	r0, r3
 8002428:	3714      	adds	r7, #20
 800242a:	46bd      	mov	sp, r7
 800242c:	bd90      	pop	{r4, r7, pc}

0800242e <u8x8_SetupMemory>:

/* should be implemented as macro */
void u8x8_SetupMemory(u8x8_t *u8x8)
{
 800242e:	b590      	push	{r4, r7, lr}
 8002430:	b083      	sub	sp, #12
 8002432:	af00      	add	r7, sp, #0
 8002434:	6078      	str	r0, [r7, #4]
  u8x8->display_cb(u8x8, U8X8_MSG_DISPLAY_SETUP_MEMORY, 0, NULL);  
 8002436:	687b      	ldr	r3, [r7, #4]
 8002438:	689c      	ldr	r4, [r3, #8]
 800243a:	2300      	movs	r3, #0
 800243c:	2200      	movs	r2, #0
 800243e:	2109      	movs	r1, #9
 8002440:	6878      	ldr	r0, [r7, #4]
 8002442:	47a0      	blx	r4
}
 8002444:	bf00      	nop
 8002446:	370c      	adds	r7, #12
 8002448:	46bd      	mov	sp, r7
 800244a:	bd90      	pop	{r4, r7, pc}

0800244c <u8x8_InitDisplay>:
  In some cases it is not required to init the display (for example if the display is already running, but the controller comes out of deep sleep mode).
  Then InitDisplay can be skipped, but u8x8_InitInterface()  (== u8x8_gpio_Init() and u8x8_cad_Init()) need to be executed.

*/
void u8x8_InitDisplay(u8x8_t *u8x8)
{
 800244c:	b590      	push	{r4, r7, lr}
 800244e:	b083      	sub	sp, #12
 8002450:	af00      	add	r7, sp, #0
 8002452:	6078      	str	r0, [r7, #4]
  u8x8->display_cb(u8x8, U8X8_MSG_DISPLAY_INIT, 0, NULL);       /* this will call u8x8_d_helper_display_init() and send the init seqence to the display */
 8002454:	687b      	ldr	r3, [r7, #4]
 8002456:	689c      	ldr	r4, [r3, #8]
 8002458:	2300      	movs	r3, #0
 800245a:	2200      	movs	r2, #0
 800245c:	210a      	movs	r1, #10
 800245e:	6878      	ldr	r0, [r7, #4]
 8002460:	47a0      	blx	r4
  /* u8x8->display_cb(u8x8, U8X8_MSG_DISPLAY_SET_FLIP_MODE, 0, NULL);  */ /* It would make sense to call flip mode 0 here after U8X8_MSG_DISPLAY_INIT */
}
 8002462:	bf00      	nop
 8002464:	370c      	adds	r7, #12
 8002466:	46bd      	mov	sp, r7
 8002468:	bd90      	pop	{r4, r7, pc}

0800246a <u8x8_SetPowerSave>:

void u8x8_SetPowerSave(u8x8_t *u8x8, uint8_t is_enable)
{
 800246a:	b590      	push	{r4, r7, lr}
 800246c:	b083      	sub	sp, #12
 800246e:	af00      	add	r7, sp, #0
 8002470:	6078      	str	r0, [r7, #4]
 8002472:	460b      	mov	r3, r1
 8002474:	70fb      	strb	r3, [r7, #3]
  u8x8->display_cb(u8x8, U8X8_MSG_DISPLAY_SET_POWER_SAVE, is_enable, NULL);  
 8002476:	687b      	ldr	r3, [r7, #4]
 8002478:	689c      	ldr	r4, [r3, #8]
 800247a:	78fa      	ldrb	r2, [r7, #3]
 800247c:	2300      	movs	r3, #0
 800247e:	210b      	movs	r1, #11
 8002480:	6878      	ldr	r0, [r7, #4]
 8002482:	47a0      	blx	r4
}
 8002484:	bf00      	nop
 8002486:	370c      	adds	r7, #12
 8002488:	46bd      	mov	sp, r7
 800248a:	bd90      	pop	{r4, r7, pc}

0800248c <u8x8_RefreshDisplay>:
{
  u8x8->display_cb(u8x8, U8X8_MSG_DISPLAY_SET_CONTRAST, value, NULL);  
}

void u8x8_RefreshDisplay(u8x8_t *u8x8)
{
 800248c:	b590      	push	{r4, r7, lr}
 800248e:	b083      	sub	sp, #12
 8002490:	af00      	add	r7, sp, #0
 8002492:	6078      	str	r0, [r7, #4]
  u8x8->display_cb(u8x8, U8X8_MSG_DISPLAY_REFRESH, 0, NULL);  
 8002494:	687b      	ldr	r3, [r7, #4]
 8002496:	689c      	ldr	r4, [r3, #8]
 8002498:	2300      	movs	r3, #0
 800249a:	2200      	movs	r2, #0
 800249c:	2110      	movs	r1, #16
 800249e:	6878      	ldr	r0, [r7, #4]
 80024a0:	47a0      	blx	r4
}
 80024a2:	bf00      	nop
 80024a4:	370c      	adds	r7, #12
 80024a6:	46bd      	mov	sp, r7
 80024a8:	bd90      	pop	{r4, r7, pc}

080024aa <u8x8_gpio_call>:

#include "u8x8.h"


void u8x8_gpio_call(u8x8_t *u8x8, uint8_t msg, uint8_t arg)
{
 80024aa:	b590      	push	{r4, r7, lr}
 80024ac:	b083      	sub	sp, #12
 80024ae:	af00      	add	r7, sp, #0
 80024b0:	6078      	str	r0, [r7, #4]
 80024b2:	460b      	mov	r3, r1
 80024b4:	70fb      	strb	r3, [r7, #3]
 80024b6:	4613      	mov	r3, r2
 80024b8:	70bb      	strb	r3, [r7, #2]
  u8x8->gpio_and_delay_cb(u8x8, msg, arg, NULL);
 80024ba:	687b      	ldr	r3, [r7, #4]
 80024bc:	695c      	ldr	r4, [r3, #20]
 80024be:	78ba      	ldrb	r2, [r7, #2]
 80024c0:	78f9      	ldrb	r1, [r7, #3]
 80024c2:	2300      	movs	r3, #0
 80024c4:	6878      	ldr	r0, [r7, #4]
 80024c6:	47a0      	blx	r4
}
 80024c8:	bf00      	nop
 80024ca:	370c      	adds	r7, #12
 80024cc:	46bd      	mov	sp, r7
 80024ce:	bd90      	pop	{r4, r7, pc}

080024d0 <u8x8_dummy_cb>:

#include "u8x8.h"

/* universal dummy callback, which will be default for all callbacks */
uint8_t u8x8_dummy_cb(U8X8_UNUSED u8x8_t *u8x8, U8X8_UNUSED uint8_t msg, U8X8_UNUSED uint8_t arg_int, U8X8_UNUSED void *arg_ptr)
{
 80024d0:	b480      	push	{r7}
 80024d2:	b085      	sub	sp, #20
 80024d4:	af00      	add	r7, sp, #0
 80024d6:	60f8      	str	r0, [r7, #12]
 80024d8:	607b      	str	r3, [r7, #4]
 80024da:	460b      	mov	r3, r1
 80024dc:	72fb      	strb	r3, [r7, #11]
 80024de:	4613      	mov	r3, r2
 80024e0:	72bb      	strb	r3, [r7, #10]
  /* the dummy callback will not handle any message and will fail for all messages */
  return 0;
 80024e2:	2300      	movs	r3, #0
}
 80024e4:	4618      	mov	r0, r3
 80024e6:	3714      	adds	r7, #20
 80024e8:	46bd      	mov	sp, r7
 80024ea:	f85d 7b04 	ldr.w	r7, [sp], #4
 80024ee:	4770      	bx	lr

080024f0 <u8x8_SetupDefaults>:
    Setup u8x8
  Args:
    u8x8	An empty u8x8 structure
*/
void u8x8_SetupDefaults(u8x8_t *u8x8)
{
 80024f0:	b480      	push	{r7}
 80024f2:	b083      	sub	sp, #12
 80024f4:	af00      	add	r7, sp, #0
 80024f6:	6078      	str	r0, [r7, #4]
    u8x8->display_info = NULL;
 80024f8:	687b      	ldr	r3, [r7, #4]
 80024fa:	2200      	movs	r2, #0
 80024fc:	601a      	str	r2, [r3, #0]
    u8x8->display_cb = u8x8_dummy_cb;
 80024fe:	687b      	ldr	r3, [r7, #4]
 8002500:	4a11      	ldr	r2, [pc, #68]	@ (8002548 <u8x8_SetupDefaults+0x58>)
 8002502:	609a      	str	r2, [r3, #8]
    u8x8->cad_cb = u8x8_dummy_cb;
 8002504:	687b      	ldr	r3, [r7, #4]
 8002506:	4a10      	ldr	r2, [pc, #64]	@ (8002548 <u8x8_SetupDefaults+0x58>)
 8002508:	60da      	str	r2, [r3, #12]
    u8x8->byte_cb = u8x8_dummy_cb;
 800250a:	687b      	ldr	r3, [r7, #4]
 800250c:	4a0e      	ldr	r2, [pc, #56]	@ (8002548 <u8x8_SetupDefaults+0x58>)
 800250e:	611a      	str	r2, [r3, #16]
    u8x8->gpio_and_delay_cb = u8x8_dummy_cb;
 8002510:	687b      	ldr	r3, [r7, #4]
 8002512:	4a0d      	ldr	r2, [pc, #52]	@ (8002548 <u8x8_SetupDefaults+0x58>)
 8002514:	615a      	str	r2, [r3, #20]
    u8x8->is_font_inverse_mode = 0;
 8002516:	687b      	ldr	r3, [r7, #4]
 8002518:	2200      	movs	r2, #0
 800251a:	f883 2023 	strb.w	r2, [r3, #35]	@ 0x23
    //u8x8->device_address = 0;
    u8x8->utf8_state = 0;		/* also reset by u8x8_utf8_init */
 800251e:	687b      	ldr	r3, [r7, #4]
 8002520:	2200      	movs	r2, #0
 8002522:	f883 2026 	strb.w	r2, [r3, #38]	@ 0x26
    u8x8->bus_clock = 0;		/* issue 769 */
 8002526:	687b      	ldr	r3, [r7, #4]
 8002528:	2200      	movs	r2, #0
 800252a:	619a      	str	r2, [r3, #24]
    u8x8->i2c_address = 255;
 800252c:	687b      	ldr	r3, [r7, #4]
 800252e:	22ff      	movs	r2, #255	@ 0xff
 8002530:	f883 2024 	strb.w	r2, [r3, #36]	@ 0x24
    u8x8->debounce_default_pin_state = 255;	/* assume all low active buttons */
 8002534:	687b      	ldr	r3, [r7, #4]
 8002536:	22ff      	movs	r2, #255	@ 0xff
 8002538:	f883 2028 	strb.w	r2, [r3, #40]	@ 0x28
    uint8_t i;
    for( i = 0; i < U8X8_PIN_CNT; i++ )
      u8x8->pins[i] = U8X8_PIN_NONE;
  }
#endif
}
 800253c:	bf00      	nop
 800253e:	370c      	adds	r7, #12
 8002540:	46bd      	mov	sp, r7
 8002542:	f85d 7b04 	ldr.w	r7, [sp], #4
 8002546:	4770      	bx	lr
 8002548:	080024d1 	.word	0x080024d1

0800254c <u8x8_Setup>:
    byte_cb			Display controller/communication specific callback funtion
    gpio_and_delay_cb	Environment specific callback function

*/
void u8x8_Setup(u8x8_t *u8x8, u8x8_msg_cb display_cb, u8x8_msg_cb cad_cb, u8x8_msg_cb byte_cb, u8x8_msg_cb gpio_and_delay_cb)
{
 800254c:	b580      	push	{r7, lr}
 800254e:	b084      	sub	sp, #16
 8002550:	af00      	add	r7, sp, #0
 8002552:	60f8      	str	r0, [r7, #12]
 8002554:	60b9      	str	r1, [r7, #8]
 8002556:	607a      	str	r2, [r7, #4]
 8002558:	603b      	str	r3, [r7, #0]
  /* setup defaults and reset pins to U8X8_PIN_NONE */
  u8x8_SetupDefaults(u8x8);
 800255a:	68f8      	ldr	r0, [r7, #12]
 800255c:	f7ff ffc8 	bl	80024f0 <u8x8_SetupDefaults>

  /* setup specific callbacks */
  u8x8->display_cb = display_cb;
 8002560:	68fb      	ldr	r3, [r7, #12]
 8002562:	68ba      	ldr	r2, [r7, #8]
 8002564:	609a      	str	r2, [r3, #8]
  u8x8->cad_cb = cad_cb;
 8002566:	68fb      	ldr	r3, [r7, #12]
 8002568:	687a      	ldr	r2, [r7, #4]
 800256a:	60da      	str	r2, [r3, #12]
  u8x8->byte_cb = byte_cb;
 800256c:	68fb      	ldr	r3, [r7, #12]
 800256e:	683a      	ldr	r2, [r7, #0]
 8002570:	611a      	str	r2, [r3, #16]
  u8x8->gpio_and_delay_cb = gpio_and_delay_cb;
 8002572:	68fb      	ldr	r3, [r7, #12]
 8002574:	69ba      	ldr	r2, [r7, #24]
 8002576:	615a      	str	r2, [r3, #20]

  /* setup display info */
  u8x8_SetupMemory(u8x8);
 8002578:	68f8      	ldr	r0, [r7, #12]
 800257a:	f7ff ff58 	bl	800242e <u8x8_SetupMemory>
}
 800257e:	bf00      	nop
 8002580:	3710      	adds	r7, #16
 8002582:	46bd      	mov	sp, r7
 8002584:	bd80      	pop	{r7, pc}

08002586 <HAL_Init>:
  *         each 1ms in the SysTick_Handler() interrupt handler.
  *
  * @retval HAL status
  */
HAL_StatusTypeDef HAL_Init(void)
{
 8002586:	b580      	push	{r7, lr}
 8002588:	b082      	sub	sp, #8
 800258a:	af00      	add	r7, sp, #0
  HAL_StatusTypeDef  status = HAL_OK;
 800258c:	2300      	movs	r3, #0
 800258e:	71fb      	strb	r3, [r7, #7]
#if (PREFETCH_ENABLE != 0U)
  __HAL_FLASH_PREFETCH_BUFFER_ENABLE();
#endif /* PREFETCH_ENABLE */

  /* Set Interrupt Group Priority */
  HAL_NVIC_SetPriorityGrouping(NVIC_PRIORITYGROUP_4);
 8002590:	2003      	movs	r0, #3
 8002592:	f000 f93d 	bl	8002810 <HAL_NVIC_SetPriorityGrouping>

  /* Use SysTick as time base source and configure 1ms tick (default clock after Reset is HSI) */
  if (HAL_InitTick(TICK_INT_PRIORITY) != HAL_OK)
 8002596:	200f      	movs	r0, #15
 8002598:	f000 f80e 	bl	80025b8 <HAL_InitTick>
 800259c:	4603      	mov	r3, r0
 800259e:	2b00      	cmp	r3, #0
 80025a0:	d002      	beq.n	80025a8 <HAL_Init+0x22>
  {
    status = HAL_ERROR;
 80025a2:	2301      	movs	r3, #1
 80025a4:	71fb      	strb	r3, [r7, #7]
 80025a6:	e001      	b.n	80025ac <HAL_Init+0x26>
  }
  else
  {
    /* Init the low level hardware */
    HAL_MspInit();
 80025a8:	f7fe f958 	bl	800085c <HAL_MspInit>
  }

  /* Return function status */
  return status;
 80025ac:	79fb      	ldrb	r3, [r7, #7]

}
 80025ae:	4618      	mov	r0, r3
 80025b0:	3708      	adds	r7, #8
 80025b2:	46bd      	mov	sp, r7
 80025b4:	bd80      	pop	{r7, pc}
	...

080025b8 <HAL_InitTick>:
  *       implementation  in user file.
  * @param TickPriority: Tick interrupt priority.
  * @retval HAL status
  */
__weak HAL_StatusTypeDef HAL_InitTick(uint32_t TickPriority)
{
 80025b8:	b580      	push	{r7, lr}
 80025ba:	b084      	sub	sp, #16
 80025bc:	af00      	add	r7, sp, #0
 80025be:	6078      	str	r0, [r7, #4]
  HAL_StatusTypeDef  status = HAL_OK;
 80025c0:	2300      	movs	r3, #0
 80025c2:	73fb      	strb	r3, [r7, #15]

  if (uwTickFreq != 0U)
 80025c4:	4b16      	ldr	r3, [pc, #88]	@ (8002620 <HAL_InitTick+0x68>)
 80025c6:	681b      	ldr	r3, [r3, #0]
 80025c8:	2b00      	cmp	r3, #0
 80025ca:	d022      	beq.n	8002612 <HAL_InitTick+0x5a>
  {
    /* Configure the SysTick to have interrupt in 1ms time basis*/
    if (HAL_SYSTICK_Config(SystemCoreClock / (1000U / uwTickFreq)) == 0U)
 80025cc:	4b15      	ldr	r3, [pc, #84]	@ (8002624 <HAL_InitTick+0x6c>)
 80025ce:	681a      	ldr	r2, [r3, #0]
 80025d0:	4b13      	ldr	r3, [pc, #76]	@ (8002620 <HAL_InitTick+0x68>)
 80025d2:	681b      	ldr	r3, [r3, #0]
 80025d4:	f44f 717a 	mov.w	r1, #1000	@ 0x3e8
 80025d8:	fbb1 f3f3 	udiv	r3, r1, r3
 80025dc:	fbb2 f3f3 	udiv	r3, r2, r3
 80025e0:	4618      	mov	r0, r3
 80025e2:	f000 f93a 	bl	800285a <HAL_SYSTICK_Config>
 80025e6:	4603      	mov	r3, r0
 80025e8:	2b00      	cmp	r3, #0
 80025ea:	d10f      	bne.n	800260c <HAL_InitTick+0x54>
    {
      /* Configure the SysTick IRQ priority */
      if (TickPriority < (1UL << __NVIC_PRIO_BITS))
 80025ec:	687b      	ldr	r3, [r7, #4]
 80025ee:	2b0f      	cmp	r3, #15
 80025f0:	d809      	bhi.n	8002606 <HAL_InitTick+0x4e>
      {
        HAL_NVIC_SetPriority(SysTick_IRQn, TickPriority, 0U);
 80025f2:	2200      	movs	r2, #0
 80025f4:	6879      	ldr	r1, [r7, #4]
 80025f6:	f04f 30ff 	mov.w	r0, #4294967295
 80025fa:	f000 f914 	bl	8002826 <HAL_NVIC_SetPriority>
        uwTickPrio = TickPriority;
 80025fe:	4a0a      	ldr	r2, [pc, #40]	@ (8002628 <HAL_InitTick+0x70>)
 8002600:	687b      	ldr	r3, [r7, #4]
 8002602:	6013      	str	r3, [r2, #0]
 8002604:	e007      	b.n	8002616 <HAL_InitTick+0x5e>
      }
      else
      {
        status = HAL_ERROR;
 8002606:	2301      	movs	r3, #1
 8002608:	73fb      	strb	r3, [r7, #15]
 800260a:	e004      	b.n	8002616 <HAL_InitTick+0x5e>
      }
    }
    else
    {
      status = HAL_ERROR;
 800260c:	2301      	movs	r3, #1
 800260e:	73fb      	strb	r3, [r7, #15]
 8002610:	e001      	b.n	8002616 <HAL_InitTick+0x5e>
    }
  }
  else
  {
    status = HAL_ERROR;
 8002612:	2301      	movs	r3, #1
 8002614:	73fb      	strb	r3, [r7, #15]
  }

  /* Return function status */
  return status;
 8002616:	7bfb      	ldrb	r3, [r7, #15]
}
 8002618:	4618      	mov	r0, r3
 800261a:	3710      	adds	r7, #16
 800261c:	46bd      	mov	sp, r7
 800261e:	bd80      	pop	{r7, pc}
 8002620:	20000008 	.word	0x20000008
 8002624:	20000000 	.word	0x20000000
 8002628:	20000004 	.word	0x20000004

0800262c <HAL_IncTick>:
  * @note This function is declared as __weak to be overwritten in case of other
  *      implementations in user file.
  * @retval None
  */
__weak void HAL_IncTick(void)
{
 800262c:	b480      	push	{r7}
 800262e:	af00      	add	r7, sp, #0
  uwTick += uwTickFreq;
 8002630:	4b05      	ldr	r3, [pc, #20]	@ (8002648 <HAL_IncTick+0x1c>)
 8002632:	681a      	ldr	r2, [r3, #0]
 8002634:	4b05      	ldr	r3, [pc, #20]	@ (800264c <HAL_IncTick+0x20>)
 8002636:	681b      	ldr	r3, [r3, #0]
 8002638:	4413      	add	r3, r2
 800263a:	4a03      	ldr	r2, [pc, #12]	@ (8002648 <HAL_IncTick+0x1c>)
 800263c:	6013      	str	r3, [r2, #0]
}
 800263e:	bf00      	nop
 8002640:	46bd      	mov	sp, r7
 8002642:	f85d 7b04 	ldr.w	r7, [sp], #4
 8002646:	4770      	bx	lr
 8002648:	20000578 	.word	0x20000578
 800264c:	20000008 	.word	0x20000008

08002650 <HAL_GetTick>:
  * @note This function is declared as __weak to be overwritten in case of other
  *       implementations in user file.
  * @retval tick value
  */
__weak uint32_t HAL_GetTick(void)
{
 8002650:	b480      	push	{r7}
 8002652:	af00      	add	r7, sp, #0
  return uwTick;
 8002654:	4b03      	ldr	r3, [pc, #12]	@ (8002664 <HAL_GetTick+0x14>)
 8002656:	681b      	ldr	r3, [r3, #0]
}
 8002658:	4618      	mov	r0, r3
 800265a:	46bd      	mov	sp, r7
 800265c:	f85d 7b04 	ldr.w	r7, [sp], #4
 8002660:	4770      	bx	lr
 8002662:	bf00      	nop
 8002664:	20000578 	.word	0x20000578

08002668 <HAL_Delay>:
  *       implementations in user file.
  * @param Delay specifies the delay time length, in milliseconds.
  * @retval None
  */
__weak void HAL_Delay(uint32_t Delay)
{
 8002668:	b580      	push	{r7, lr}
 800266a:	b084      	sub	sp, #16
 800266c:	af00      	add	r7, sp, #0
 800266e:	6078      	str	r0, [r7, #4]
  uint32_t tickstart = HAL_GetTick();
 8002670:	f7ff ffee 	bl	8002650 <HAL_GetTick>
 8002674:	60b8      	str	r0, [r7, #8]
  uint32_t wait = Delay;
 8002676:	687b      	ldr	r3, [r7, #4]
 8002678:	60fb      	str	r3, [r7, #12]

  /* Add a freq to guarantee minimum wait */
  if (wait < HAL_MAX_DELAY)
 800267a:	68fb      	ldr	r3, [r7, #12]
 800267c:	f1b3 3fff 	cmp.w	r3, #4294967295
 8002680:	d004      	beq.n	800268c <HAL_Delay+0x24>
  {
    wait += (uint32_t)(uwTickFreq);
 8002682:	4b09      	ldr	r3, [pc, #36]	@ (80026a8 <HAL_Delay+0x40>)
 8002684:	681b      	ldr	r3, [r3, #0]
 8002686:	68fa      	ldr	r2, [r7, #12]
 8002688:	4413      	add	r3, r2
 800268a:	60fb      	str	r3, [r7, #12]
  }

  while ((HAL_GetTick() - tickstart) < wait)
 800268c:	bf00      	nop
 800268e:	f7ff ffdf 	bl	8002650 <HAL_GetTick>
 8002692:	4602      	mov	r2, r0
 8002694:	68bb      	ldr	r3, [r7, #8]
 8002696:	1ad3      	subs	r3, r2, r3
 8002698:	68fa      	ldr	r2, [r7, #12]
 800269a:	429a      	cmp	r2, r3
 800269c:	d8f7      	bhi.n	800268e <HAL_Delay+0x26>
  {
  }
}
 800269e:	bf00      	nop
 80026a0:	bf00      	nop
 80026a2:	3710      	adds	r7, #16
 80026a4:	46bd      	mov	sp, r7
 80026a6:	bd80      	pop	{r7, pc}
 80026a8:	20000008 	.word	0x20000008

080026ac <__NVIC_SetPriorityGrouping>:
           In case of a conflict between priority grouping and available
           priority bits (__NVIC_PRIO_BITS), the smallest possible priority group is set.
  \param [in]      PriorityGroup  Priority grouping field.
 */
__STATIC_INLINE void __NVIC_SetPriorityGrouping(uint32_t PriorityGroup)
{
 80026ac:	b480      	push	{r7}
 80026ae:	b085      	sub	sp, #20
 80026b0:	af00      	add	r7, sp, #0
 80026b2:	6078      	str	r0, [r7, #4]
  uint32_t reg_value;
  uint32_t PriorityGroupTmp = (PriorityGroup & (uint32_t)0x07UL);             /* only values 0..7 are used          */
 80026b4:	687b      	ldr	r3, [r7, #4]
 80026b6:	f003 0307 	and.w	r3, r3, #7
 80026ba:	60fb      	str	r3, [r7, #12]

  reg_value  =  SCB->AIRCR;                                                   /* read old register configuration    */
 80026bc:	4b0c      	ldr	r3, [pc, #48]	@ (80026f0 <__NVIC_SetPriorityGrouping+0x44>)
 80026be:	68db      	ldr	r3, [r3, #12]
 80026c0:	60bb      	str	r3, [r7, #8]
  reg_value &= ~((uint32_t)(SCB_AIRCR_VECTKEY_Msk | SCB_AIRCR_PRIGROUP_Msk)); /* clear bits to change               */
 80026c2:	68ba      	ldr	r2, [r7, #8]
 80026c4:	f64f 03ff 	movw	r3, #63743	@ 0xf8ff
 80026c8:	4013      	ands	r3, r2
 80026ca:	60bb      	str	r3, [r7, #8]
  reg_value  =  (reg_value                                   |
                ((uint32_t)0x5FAUL << SCB_AIRCR_VECTKEY_Pos) |
                (PriorityGroupTmp << SCB_AIRCR_PRIGROUP_Pos)  );              /* Insert write key and priority group */
 80026cc:	68fb      	ldr	r3, [r7, #12]
 80026ce:	021a      	lsls	r2, r3, #8
                ((uint32_t)0x5FAUL << SCB_AIRCR_VECTKEY_Pos) |
 80026d0:	68bb      	ldr	r3, [r7, #8]
 80026d2:	4313      	orrs	r3, r2
  reg_value  =  (reg_value                                   |
 80026d4:	f043 63bf 	orr.w	r3, r3, #100139008	@ 0x5f80000
 80026d8:	f443 3300 	orr.w	r3, r3, #131072	@ 0x20000
 80026dc:	60bb      	str	r3, [r7, #8]
  SCB->AIRCR =  reg_value;
 80026de:	4a04      	ldr	r2, [pc, #16]	@ (80026f0 <__NVIC_SetPriorityGrouping+0x44>)
 80026e0:	68bb      	ldr	r3, [r7, #8]
 80026e2:	60d3      	str	r3, [r2, #12]
}
 80026e4:	bf00      	nop
 80026e6:	3714      	adds	r7, #20
 80026e8:	46bd      	mov	sp, r7
 80026ea:	f85d 7b04 	ldr.w	r7, [sp], #4
 80026ee:	4770      	bx	lr
 80026f0:	e000ed00 	.word	0xe000ed00

080026f4 <__NVIC_GetPriorityGrouping>:
  \brief   Get Priority Grouping
  \details Reads the priority grouping field from the NVIC Interrupt Controller.
  \return                Priority grouping field (SCB->AIRCR [10:8] PRIGROUP field).
 */
__STATIC_INLINE uint32_t __NVIC_GetPriorityGrouping(void)
{
 80026f4:	b480      	push	{r7}
 80026f6:	af00      	add	r7, sp, #0
  return ((uint32_t)((SCB->AIRCR & SCB_AIRCR_PRIGROUP_Msk) >> SCB_AIRCR_PRIGROUP_Pos));
 80026f8:	4b04      	ldr	r3, [pc, #16]	@ (800270c <__NVIC_GetPriorityGrouping+0x18>)
 80026fa:	68db      	ldr	r3, [r3, #12]
 80026fc:	0a1b      	lsrs	r3, r3, #8
 80026fe:	f003 0307 	and.w	r3, r3, #7
}
 8002702:	4618      	mov	r0, r3
 8002704:	46bd      	mov	sp, r7
 8002706:	f85d 7b04 	ldr.w	r7, [sp], #4
 800270a:	4770      	bx	lr
 800270c:	e000ed00 	.word	0xe000ed00

08002710 <__NVIC_SetPriority>:
  \param [in]      IRQn  Interrupt number.
  \param [in]  priority  Priority to set.
  \note    The priority cannot be set for every processor exception.
 */
__STATIC_INLINE void __NVIC_SetPriority(IRQn_Type IRQn, uint32_t priority)
{
 8002710:	b480      	push	{r7}
 8002712:	b083      	sub	sp, #12
 8002714:	af00      	add	r7, sp, #0
 8002716:	4603      	mov	r3, r0
 8002718:	6039      	str	r1, [r7, #0]
 800271a:	71fb      	strb	r3, [r7, #7]
  if ((int32_t)(IRQn) >= 0)
 800271c:	f997 3007 	ldrsb.w	r3, [r7, #7]
 8002720:	2b00      	cmp	r3, #0
 8002722:	db0a      	blt.n	800273a <__NVIC_SetPriority+0x2a>
  {
    NVIC->IP[((uint32_t)IRQn)]               = (uint8_t)((priority << (8U - __NVIC_PRIO_BITS)) & (uint32_t)0xFFUL);
 8002724:	683b      	ldr	r3, [r7, #0]
 8002726:	b2da      	uxtb	r2, r3
 8002728:	490c      	ldr	r1, [pc, #48]	@ (800275c <__NVIC_SetPriority+0x4c>)
 800272a:	f997 3007 	ldrsb.w	r3, [r7, #7]
 800272e:	0112      	lsls	r2, r2, #4
 8002730:	b2d2      	uxtb	r2, r2
 8002732:	440b      	add	r3, r1
 8002734:	f883 2300 	strb.w	r2, [r3, #768]	@ 0x300
  }
  else
  {
    SCB->SHP[(((uint32_t)IRQn) & 0xFUL)-4UL] = (uint8_t)((priority << (8U - __NVIC_PRIO_BITS)) & (uint32_t)0xFFUL);
  }
}
 8002738:	e00a      	b.n	8002750 <__NVIC_SetPriority+0x40>
    SCB->SHP[(((uint32_t)IRQn) & 0xFUL)-4UL] = (uint8_t)((priority << (8U - __NVIC_PRIO_BITS)) & (uint32_t)0xFFUL);
 800273a:	683b      	ldr	r3, [r7, #0]
 800273c:	b2da      	uxtb	r2, r3
 800273e:	4908      	ldr	r1, [pc, #32]	@ (8002760 <__NVIC_SetPriority+0x50>)
 8002740:	79fb      	ldrb	r3, [r7, #7]
 8002742:	f003 030f 	and.w	r3, r3, #15
 8002746:	3b04      	subs	r3, #4
 8002748:	0112      	lsls	r2, r2, #4
 800274a:	b2d2      	uxtb	r2, r2
 800274c:	440b      	add	r3, r1
 800274e:	761a      	strb	r2, [r3, #24]
}
 8002750:	bf00      	nop
 8002752:	370c      	adds	r7, #12
 8002754:	46bd      	mov	sp, r7
 8002756:	f85d 7b04 	ldr.w	r7, [sp], #4
 800275a:	4770      	bx	lr
 800275c:	e000e100 	.word	0xe000e100
 8002760:	e000ed00 	.word	0xe000ed00

08002764 <NVIC_EncodePriority>:
  \param [in]   PreemptPriority  Preemptive priority value (starting from 0).
  \param [in]       SubPriority  Subpriority value (starting from 0).
  \return                        Encoded priority. Value can be used in the function \ref NVIC_SetPriority().
 */
__STATIC_INLINE uint32_t NVIC_EncodePriority (uint32_t PriorityGroup, uint32_t PreemptPriority, uint32_t SubPriority)
{
 8002764:	b480      	push	{r7}
 8002766:	b089      	sub	sp, #36	@ 0x24
 8002768:	af00      	add	r7, sp, #0
 800276a:	60f8      	str	r0, [r7, #12]
 800276c:	60b9      	str	r1, [r7, #8]
 800276e:	607a      	str	r2, [r7, #4]
  uint32_t PriorityGroupTmp = (PriorityGroup & (uint32_t)0x07UL);   /* only values 0..7 are used          */
 8002770:	68fb      	ldr	r3, [r7, #12]
 8002772:	f003 0307 	and.w	r3, r3, #7
 8002776:	61fb      	str	r3, [r7, #28]
  uint32_t PreemptPriorityBits;
  uint32_t SubPriorityBits;

  PreemptPriorityBits = ((7UL - PriorityGroupTmp) > (uint32_t)(__NVIC_PRIO_BITS)) ? (uint32_t)(__NVIC_PRIO_BITS) : (uint32_t)(7UL - PriorityGroupTmp);
 8002778:	69fb      	ldr	r3, [r7, #28]
 800277a:	f1c3 0307 	rsb	r3, r3, #7
 800277e:	2b04      	cmp	r3, #4
 8002780:	bf28      	it	cs
 8002782:	2304      	movcs	r3, #4
 8002784:	61bb      	str	r3, [r7, #24]
  SubPriorityBits     = ((PriorityGroupTmp + (uint32_t)(__NVIC_PRIO_BITS)) < (uint32_t)7UL) ? (uint32_t)0UL : (uint32_t)((PriorityGroupTmp - 7UL) + (uint32_t)(__NVIC_PRIO_BITS));
 8002786:	69fb      	ldr	r3, [r7, #28]
 8002788:	3304      	adds	r3, #4
 800278a:	2b06      	cmp	r3, #6
 800278c:	d902      	bls.n	8002794 <NVIC_EncodePriority+0x30>
 800278e:	69fb      	ldr	r3, [r7, #28]
 8002790:	3b03      	subs	r3, #3
 8002792:	e000      	b.n	8002796 <NVIC_EncodePriority+0x32>
 8002794:	2300      	movs	r3, #0
 8002796:	617b      	str	r3, [r7, #20]

  return (
           ((PreemptPriority & (uint32_t)((1UL << (PreemptPriorityBits)) - 1UL)) << SubPriorityBits) |
 8002798:	f04f 32ff 	mov.w	r2, #4294967295
 800279c:	69bb      	ldr	r3, [r7, #24]
 800279e:	fa02 f303 	lsl.w	r3, r2, r3
 80027a2:	43da      	mvns	r2, r3
 80027a4:	68bb      	ldr	r3, [r7, #8]
 80027a6:	401a      	ands	r2, r3
 80027a8:	697b      	ldr	r3, [r7, #20]
 80027aa:	409a      	lsls	r2, r3
           ((SubPriority     & (uint32_t)((1UL << (SubPriorityBits    )) - 1UL)))
 80027ac:	f04f 31ff 	mov.w	r1, #4294967295
 80027b0:	697b      	ldr	r3, [r7, #20]
 80027b2:	fa01 f303 	lsl.w	r3, r1, r3
 80027b6:	43d9      	mvns	r1, r3
 80027b8:	687b      	ldr	r3, [r7, #4]
 80027ba:	400b      	ands	r3, r1
           ((PreemptPriority & (uint32_t)((1UL << (PreemptPriorityBits)) - 1UL)) << SubPriorityBits) |
 80027bc:	4313      	orrs	r3, r2
         );
}
 80027be:	4618      	mov	r0, r3
 80027c0:	3724      	adds	r7, #36	@ 0x24
 80027c2:	46bd      	mov	sp, r7
 80027c4:	f85d 7b04 	ldr.w	r7, [sp], #4
 80027c8:	4770      	bx	lr
	...

080027cc <SysTick_Config>:
  \note    When the variable <b>__Vendor_SysTickConfig</b> is set to 1, then the
           function <b>SysTick_Config</b> is not included. In this case, the file <b><i>device</i>.h</b>
           must contain a vendor-specific implementation of this function.
 */
__STATIC_INLINE uint32_t SysTick_Config(uint32_t ticks)
{
 80027cc:	b580      	push	{r7, lr}
 80027ce:	b082      	sub	sp, #8
 80027d0:	af00      	add	r7, sp, #0
 80027d2:	6078      	str	r0, [r7, #4]
  if ((ticks - 1UL) > SysTick_LOAD_RELOAD_Msk)
 80027d4:	687b      	ldr	r3, [r7, #4]
 80027d6:	3b01      	subs	r3, #1
 80027d8:	f1b3 7f80 	cmp.w	r3, #16777216	@ 0x1000000
 80027dc:	d301      	bcc.n	80027e2 <SysTick_Config+0x16>
  {
    return (1UL);                                                   /* Reload value impossible */
 80027de:	2301      	movs	r3, #1
 80027e0:	e00f      	b.n	8002802 <SysTick_Config+0x36>
  }

  SysTick->LOAD  = (uint32_t)(ticks - 1UL);                         /* set reload register */
 80027e2:	4a0a      	ldr	r2, [pc, #40]	@ (800280c <SysTick_Config+0x40>)
 80027e4:	687b      	ldr	r3, [r7, #4]
 80027e6:	3b01      	subs	r3, #1
 80027e8:	6053      	str	r3, [r2, #4]
  NVIC_SetPriority (SysTick_IRQn, (1UL << __NVIC_PRIO_BITS) - 1UL); /* set Priority for Systick Interrupt */
 80027ea:	210f      	movs	r1, #15
 80027ec:	f04f 30ff 	mov.w	r0, #4294967295
 80027f0:	f7ff ff8e 	bl	8002710 <__NVIC_SetPriority>
  SysTick->VAL   = 0UL;                                             /* Load the SysTick Counter Value */
 80027f4:	4b05      	ldr	r3, [pc, #20]	@ (800280c <SysTick_Config+0x40>)
 80027f6:	2200      	movs	r2, #0
 80027f8:	609a      	str	r2, [r3, #8]
  SysTick->CTRL  = SysTick_CTRL_CLKSOURCE_Msk |
 80027fa:	4b04      	ldr	r3, [pc, #16]	@ (800280c <SysTick_Config+0x40>)
 80027fc:	2207      	movs	r2, #7
 80027fe:	601a      	str	r2, [r3, #0]
                   SysTick_CTRL_TICKINT_Msk   |
                   SysTick_CTRL_ENABLE_Msk;                         /* Enable SysTick IRQ and SysTick Timer */
  return (0UL);                                                     /* Function successful */
 8002800:	2300      	movs	r3, #0
}
 8002802:	4618      	mov	r0, r3
 8002804:	3708      	adds	r7, #8
 8002806:	46bd      	mov	sp, r7
 8002808:	bd80      	pop	{r7, pc}
 800280a:	bf00      	nop
 800280c:	e000e010 	.word	0xe000e010

08002810 <HAL_NVIC_SetPriorityGrouping>:
  * @note   When the NVIC_PriorityGroup_0 is selected, IRQ pre-emption is no more possible.
  *         The pending IRQ priority will be managed only by the subpriority.
  * @retval None
  */
void HAL_NVIC_SetPriorityGrouping(uint32_t PriorityGroup)
{
 8002810:	b580      	push	{r7, lr}
 8002812:	b082      	sub	sp, #8
 8002814:	af00      	add	r7, sp, #0
 8002816:	6078      	str	r0, [r7, #4]
  /* Check the parameters */
  assert_param(IS_NVIC_PRIORITY_GROUP(PriorityGroup));

  /* Set the PRIGROUP[10:8] bits according to the PriorityGroup parameter value */
  NVIC_SetPriorityGrouping(PriorityGroup);
 8002818:	6878      	ldr	r0, [r7, #4]
 800281a:	f7ff ff47 	bl	80026ac <__NVIC_SetPriorityGrouping>
}
 800281e:	bf00      	nop
 8002820:	3708      	adds	r7, #8
 8002822:	46bd      	mov	sp, r7
 8002824:	bd80      	pop	{r7, pc}

08002826 <HAL_NVIC_SetPriority>:
  *         This parameter can be a value between 0 and 15
  *         A lower priority value indicates a higher priority.
  * @retval None
  */
void HAL_NVIC_SetPriority(IRQn_Type IRQn, uint32_t PreemptPriority, uint32_t SubPriority)
{
 8002826:	b580      	push	{r7, lr}
 8002828:	b086      	sub	sp, #24
 800282a:	af00      	add	r7, sp, #0
 800282c:	4603      	mov	r3, r0
 800282e:	60b9      	str	r1, [r7, #8]
 8002830:	607a      	str	r2, [r7, #4]
 8002832:	73fb      	strb	r3, [r7, #15]

  /* Check the parameters */
  assert_param(IS_NVIC_SUB_PRIORITY(SubPriority));
  assert_param(IS_NVIC_PREEMPTION_PRIORITY(PreemptPriority));

  prioritygroup = NVIC_GetPriorityGrouping();
 8002834:	f7ff ff5e 	bl	80026f4 <__NVIC_GetPriorityGrouping>
 8002838:	6178      	str	r0, [r7, #20]

  NVIC_SetPriority(IRQn, NVIC_EncodePriority(prioritygroup, PreemptPriority, SubPriority));
 800283a:	687a      	ldr	r2, [r7, #4]
 800283c:	68b9      	ldr	r1, [r7, #8]
 800283e:	6978      	ldr	r0, [r7, #20]
 8002840:	f7ff ff90 	bl	8002764 <NVIC_EncodePriority>
 8002844:	4602      	mov	r2, r0
 8002846:	f997 300f 	ldrsb.w	r3, [r7, #15]
 800284a:	4611      	mov	r1, r2
 800284c:	4618      	mov	r0, r3
 800284e:	f7ff ff5f 	bl	8002710 <__NVIC_SetPriority>
}
 8002852:	bf00      	nop
 8002854:	3718      	adds	r7, #24
 8002856:	46bd      	mov	sp, r7
 8002858:	bd80      	pop	{r7, pc}

0800285a <HAL_SYSTICK_Config>:
  * @param  TicksNumb: Specifies the ticks Number of ticks between two interrupts.
  * @retval status:  - 0  Function succeeded.
  *                  - 1  Function failed.
  */
uint32_t HAL_SYSTICK_Config(uint32_t TicksNumb)
{
 800285a:	b580      	push	{r7, lr}
 800285c:	b082      	sub	sp, #8
 800285e:	af00      	add	r7, sp, #0
 8002860:	6078      	str	r0, [r7, #4]
   return SysTick_Config(TicksNumb);
 8002862:	6878      	ldr	r0, [r7, #4]
 8002864:	f7ff ffb2 	bl	80027cc <SysTick_Config>
 8002868:	4603      	mov	r3, r0
}
 800286a:	4618      	mov	r0, r3
 800286c:	3708      	adds	r7, #8
 800286e:	46bd      	mov	sp, r7
 8002870:	bd80      	pop	{r7, pc}
	...

08002874 <HAL_GPIO_Init>:
  * @param  GPIO_Init pointer to a GPIO_InitTypeDef structure that contains
  *         the configuration information for the specified GPIO peripheral.
  * @retval None
  */
void HAL_GPIO_Init(GPIO_TypeDef *GPIOx, GPIO_InitTypeDef const *GPIO_Init)
{
 8002874:	b480      	push	{r7}
 8002876:	b087      	sub	sp, #28
 8002878:	af00      	add	r7, sp, #0
 800287a:	6078      	str	r0, [r7, #4]
 800287c:	6039      	str	r1, [r7, #0]
  uint32_t position = 0x00U;
 800287e:	2300      	movs	r3, #0
 8002880:	617b      	str	r3, [r7, #20]
  assert_param(IS_GPIO_ALL_INSTANCE(GPIOx));
  assert_param(IS_GPIO_PIN(GPIO_Init->Pin));
  assert_param(IS_GPIO_MODE(GPIO_Init->Mode));

  /* Configure the port pins */
  while (((GPIO_Init->Pin) >> position) != 0U)
 8002882:	e164      	b.n	8002b4e <HAL_GPIO_Init+0x2da>
  {
    /* Get current io position */
    iocurrent = (GPIO_Init->Pin) & (1UL << position);
 8002884:	683b      	ldr	r3, [r7, #0]
 8002886:	681a      	ldr	r2, [r3, #0]
 8002888:	2101      	movs	r1, #1
 800288a:	697b      	ldr	r3, [r7, #20]
 800288c:	fa01 f303 	lsl.w	r3, r1, r3
 8002890:	4013      	ands	r3, r2
 8002892:	60fb      	str	r3, [r7, #12]

    if (iocurrent != 0x00u)
 8002894:	68fb      	ldr	r3, [r7, #12]
 8002896:	2b00      	cmp	r3, #0
 8002898:	f000 8156 	beq.w	8002b48 <HAL_GPIO_Init+0x2d4>
    {
      /*--------------------- GPIO Mode Configuration ------------------------*/
      /* In case of Output or Alternate function mode selection */
      if(((GPIO_Init->Mode & GPIO_MODE) == MODE_OUTPUT) ||
 800289c:	683b      	ldr	r3, [r7, #0]
 800289e:	685b      	ldr	r3, [r3, #4]
 80028a0:	f003 0303 	and.w	r3, r3, #3
 80028a4:	2b01      	cmp	r3, #1
 80028a6:	d005      	beq.n	80028b4 <HAL_GPIO_Init+0x40>
         ((GPIO_Init->Mode & GPIO_MODE) == MODE_AF))
 80028a8:	683b      	ldr	r3, [r7, #0]
 80028aa:	685b      	ldr	r3, [r3, #4]
 80028ac:	f003 0303 	and.w	r3, r3, #3
      if(((GPIO_Init->Mode & GPIO_MODE) == MODE_OUTPUT) ||
 80028b0:	2b02      	cmp	r3, #2
 80028b2:	d130      	bne.n	8002916 <HAL_GPIO_Init+0xa2>
      {
        /* Check the Speed parameter */
        assert_param(IS_GPIO_SPEED(GPIO_Init->Speed));
        /* Configure the IO Speed */
        temp = GPIOx->OSPEEDR;
 80028b4:	687b      	ldr	r3, [r7, #4]
 80028b6:	689b      	ldr	r3, [r3, #8]
 80028b8:	613b      	str	r3, [r7, #16]
        temp &= ~(GPIO_OSPEEDR_OSPEED0 << (position * 2U));
 80028ba:	697b      	ldr	r3, [r7, #20]
 80028bc:	005b      	lsls	r3, r3, #1
 80028be:	2203      	movs	r2, #3
 80028c0:	fa02 f303 	lsl.w	r3, r2, r3
 80028c4:	43db      	mvns	r3, r3
 80028c6:	693a      	ldr	r2, [r7, #16]
 80028c8:	4013      	ands	r3, r2
 80028ca:	613b      	str	r3, [r7, #16]
        temp |= (GPIO_Init->Speed << (position * 2U));
 80028cc:	683b      	ldr	r3, [r7, #0]
 80028ce:	68da      	ldr	r2, [r3, #12]
 80028d0:	697b      	ldr	r3, [r7, #20]
 80028d2:	005b      	lsls	r3, r3, #1
 80028d4:	fa02 f303 	lsl.w	r3, r2, r3
 80028d8:	693a      	ldr	r2, [r7, #16]
 80028da:	4313      	orrs	r3, r2
 80028dc:	613b      	str	r3, [r7, #16]
        GPIOx->OSPEEDR = temp;
 80028de:	687b      	ldr	r3, [r7, #4]
 80028e0:	693a      	ldr	r2, [r7, #16]
 80028e2:	609a      	str	r2, [r3, #8]

        /* Configure the IO Output Type */
        temp = GPIOx->OTYPER;
 80028e4:	687b      	ldr	r3, [r7, #4]
 80028e6:	685b      	ldr	r3, [r3, #4]
 80028e8:	613b      	str	r3, [r7, #16]
        temp &= ~(GPIO_OTYPER_OT0 << position) ;
 80028ea:	2201      	movs	r2, #1
 80028ec:	697b      	ldr	r3, [r7, #20]
 80028ee:	fa02 f303 	lsl.w	r3, r2, r3
 80028f2:	43db      	mvns	r3, r3
 80028f4:	693a      	ldr	r2, [r7, #16]
 80028f6:	4013      	ands	r3, r2
 80028f8:	613b      	str	r3, [r7, #16]
        temp |= (((GPIO_Init->Mode & OUTPUT_TYPE) >> OUTPUT_TYPE_Pos) << position);
 80028fa:	683b      	ldr	r3, [r7, #0]
 80028fc:	685b      	ldr	r3, [r3, #4]
 80028fe:	091b      	lsrs	r3, r3, #4
 8002900:	f003 0201 	and.w	r2, r3, #1
 8002904:	697b      	ldr	r3, [r7, #20]
 8002906:	fa02 f303 	lsl.w	r3, r2, r3
 800290a:	693a      	ldr	r2, [r7, #16]
 800290c:	4313      	orrs	r3, r2
 800290e:	613b      	str	r3, [r7, #16]
        GPIOx->OTYPER = temp;
 8002910:	687b      	ldr	r3, [r7, #4]
 8002912:	693a      	ldr	r2, [r7, #16]
 8002914:	605a      	str	r2, [r3, #4]
      }

      if (((GPIO_Init->Mode & GPIO_MODE) != MODE_ANALOG) ||
 8002916:	683b      	ldr	r3, [r7, #0]
 8002918:	685b      	ldr	r3, [r3, #4]
 800291a:	f003 0303 	and.w	r3, r3, #3
 800291e:	2b03      	cmp	r3, #3
 8002920:	d109      	bne.n	8002936 <HAL_GPIO_Init+0xc2>
          (((GPIO_Init->Mode & GPIO_MODE) == MODE_ANALOG) && (GPIO_Init->Pull != GPIO_PULLUP)))
 8002922:	683b      	ldr	r3, [r7, #0]
 8002924:	685b      	ldr	r3, [r3, #4]
 8002926:	f003 0303 	and.w	r3, r3, #3
      if (((GPIO_Init->Mode & GPIO_MODE) != MODE_ANALOG) ||
 800292a:	2b03      	cmp	r3, #3
 800292c:	d11b      	bne.n	8002966 <HAL_GPIO_Init+0xf2>
          (((GPIO_Init->Mode & GPIO_MODE) == MODE_ANALOG) && (GPIO_Init->Pull != GPIO_PULLUP)))
 800292e:	683b      	ldr	r3, [r7, #0]
 8002930:	689b      	ldr	r3, [r3, #8]
 8002932:	2b01      	cmp	r3, #1
 8002934:	d017      	beq.n	8002966 <HAL_GPIO_Init+0xf2>
      {
        /* Check the Pull parameter */
        assert_param(IS_GPIO_PULL(GPIO_Init->Pull));

        /* Activate the Pull-up or Pull down resistor for the current IO */
        temp = GPIOx->PUPDR;
 8002936:	687b      	ldr	r3, [r7, #4]
 8002938:	68db      	ldr	r3, [r3, #12]
 800293a:	613b      	str	r3, [r7, #16]
        temp &= ~(GPIO_PUPDR_PUPD0 << (position * 2U));
 800293c:	697b      	ldr	r3, [r7, #20]
 800293e:	005b      	lsls	r3, r3, #1
 8002940:	2203      	movs	r2, #3
 8002942:	fa02 f303 	lsl.w	r3, r2, r3
 8002946:	43db      	mvns	r3, r3
 8002948:	693a      	ldr	r2, [r7, #16]
 800294a:	4013      	ands	r3, r2
 800294c:	613b      	str	r3, [r7, #16]
        temp |= ((GPIO_Init->Pull) << (position * 2U));
 800294e:	683b      	ldr	r3, [r7, #0]
 8002950:	689a      	ldr	r2, [r3, #8]
 8002952:	697b      	ldr	r3, [r7, #20]
 8002954:	005b      	lsls	r3, r3, #1
 8002956:	fa02 f303 	lsl.w	r3, r2, r3
 800295a:	693a      	ldr	r2, [r7, #16]
 800295c:	4313      	orrs	r3, r2
 800295e:	613b      	str	r3, [r7, #16]
        GPIOx->PUPDR = temp;
 8002960:	687b      	ldr	r3, [r7, #4]
 8002962:	693a      	ldr	r2, [r7, #16]
 8002964:	60da      	str	r2, [r3, #12]
      }

      /* In case of Alternate function mode selection */
      if ((GPIO_Init->Mode & GPIO_MODE) == MODE_AF)
 8002966:	683b      	ldr	r3, [r7, #0]
 8002968:	685b      	ldr	r3, [r3, #4]
 800296a:	f003 0303 	and.w	r3, r3, #3
 800296e:	2b02      	cmp	r3, #2
 8002970:	d123      	bne.n	80029ba <HAL_GPIO_Init+0x146>
        /* Check the Alternate function parameters */
        assert_param(IS_GPIO_AF_INSTANCE(GPIOx));
        assert_param(IS_GPIO_AF(GPIO_Init->Alternate));

        /* Configure Alternate function mapped with the current IO */
        temp = GPIOx->AFR[position >> 3U];
 8002972:	697b      	ldr	r3, [r7, #20]
 8002974:	08da      	lsrs	r2, r3, #3
 8002976:	687b      	ldr	r3, [r7, #4]
 8002978:	3208      	adds	r2, #8
 800297a:	f853 3022 	ldr.w	r3, [r3, r2, lsl #2]
 800297e:	613b      	str	r3, [r7, #16]
        temp &= ~(0xFU << ((position & 0x07U) * 4U));
 8002980:	697b      	ldr	r3, [r7, #20]
 8002982:	f003 0307 	and.w	r3, r3, #7
 8002986:	009b      	lsls	r3, r3, #2
 8002988:	220f      	movs	r2, #15
 800298a:	fa02 f303 	lsl.w	r3, r2, r3
 800298e:	43db      	mvns	r3, r3
 8002990:	693a      	ldr	r2, [r7, #16]
 8002992:	4013      	ands	r3, r2
 8002994:	613b      	str	r3, [r7, #16]
        temp |= ((GPIO_Init->Alternate) << ((position & 0x07U) * 4U));
 8002996:	683b      	ldr	r3, [r7, #0]
 8002998:	691a      	ldr	r2, [r3, #16]
 800299a:	697b      	ldr	r3, [r7, #20]
 800299c:	f003 0307 	and.w	r3, r3, #7
 80029a0:	009b      	lsls	r3, r3, #2
 80029a2:	fa02 f303 	lsl.w	r3, r2, r3
 80029a6:	693a      	ldr	r2, [r7, #16]
 80029a8:	4313      	orrs	r3, r2
 80029aa:	613b      	str	r3, [r7, #16]
        GPIOx->AFR[position >> 3U] = temp;
 80029ac:	697b      	ldr	r3, [r7, #20]
 80029ae:	08da      	lsrs	r2, r3, #3
 80029b0:	687b      	ldr	r3, [r7, #4]
 80029b2:	3208      	adds	r2, #8
 80029b4:	6939      	ldr	r1, [r7, #16]
 80029b6:	f843 1022 	str.w	r1, [r3, r2, lsl #2]
      }

      /* Configure IO Direction mode (Input, Output, Alternate or Analog) */
      temp = GPIOx->MODER;
 80029ba:	687b      	ldr	r3, [r7, #4]
 80029bc:	681b      	ldr	r3, [r3, #0]
 80029be:	613b      	str	r3, [r7, #16]
      temp &= ~(GPIO_MODER_MODE0 << (position * 2U));
 80029c0:	697b      	ldr	r3, [r7, #20]
 80029c2:	005b      	lsls	r3, r3, #1
 80029c4:	2203      	movs	r2, #3
 80029c6:	fa02 f303 	lsl.w	r3, r2, r3
 80029ca:	43db      	mvns	r3, r3
 80029cc:	693a      	ldr	r2, [r7, #16]
 80029ce:	4013      	ands	r3, r2
 80029d0:	613b      	str	r3, [r7, #16]
      temp |= ((GPIO_Init->Mode & GPIO_MODE) << (position * 2U));
 80029d2:	683b      	ldr	r3, [r7, #0]
 80029d4:	685b      	ldr	r3, [r3, #4]
 80029d6:	f003 0203 	and.w	r2, r3, #3
 80029da:	697b      	ldr	r3, [r7, #20]
 80029dc:	005b      	lsls	r3, r3, #1
 80029de:	fa02 f303 	lsl.w	r3, r2, r3
 80029e2:	693a      	ldr	r2, [r7, #16]
 80029e4:	4313      	orrs	r3, r2
 80029e6:	613b      	str	r3, [r7, #16]
      GPIOx->MODER = temp;
 80029e8:	687b      	ldr	r3, [r7, #4]
 80029ea:	693a      	ldr	r2, [r7, #16]
 80029ec:	601a      	str	r2, [r3, #0]

      /*--------------------- EXTI Mode Configuration ------------------------*/
      /* Configure the External Interrupt or event for the current IO */
      if ((GPIO_Init->Mode & EXTI_MODE) != 0x00u)
 80029ee:	683b      	ldr	r3, [r7, #0]
 80029f0:	685b      	ldr	r3, [r3, #4]
 80029f2:	f403 3340 	and.w	r3, r3, #196608	@ 0x30000
 80029f6:	2b00      	cmp	r3, #0
 80029f8:	f000 80a6 	beq.w	8002b48 <HAL_GPIO_Init+0x2d4>
      {
        /* Enable SYSCFG Clock */
        __HAL_RCC_SYSCFG_CLK_ENABLE();
 80029fc:	4b5b      	ldr	r3, [pc, #364]	@ (8002b6c <HAL_GPIO_Init+0x2f8>)
 80029fe:	6e1b      	ldr	r3, [r3, #96]	@ 0x60
 8002a00:	4a5a      	ldr	r2, [pc, #360]	@ (8002b6c <HAL_GPIO_Init+0x2f8>)
 8002a02:	f043 0301 	orr.w	r3, r3, #1
 8002a06:	6613      	str	r3, [r2, #96]	@ 0x60
 8002a08:	4b58      	ldr	r3, [pc, #352]	@ (8002b6c <HAL_GPIO_Init+0x2f8>)
 8002a0a:	6e1b      	ldr	r3, [r3, #96]	@ 0x60
 8002a0c:	f003 0301 	and.w	r3, r3, #1
 8002a10:	60bb      	str	r3, [r7, #8]
 8002a12:	68bb      	ldr	r3, [r7, #8]

        temp = SYSCFG->EXTICR[position >> 2U];
 8002a14:	4a56      	ldr	r2, [pc, #344]	@ (8002b70 <HAL_GPIO_Init+0x2fc>)
 8002a16:	697b      	ldr	r3, [r7, #20]
 8002a18:	089b      	lsrs	r3, r3, #2
 8002a1a:	3302      	adds	r3, #2
 8002a1c:	f852 3023 	ldr.w	r3, [r2, r3, lsl #2]
 8002a20:	613b      	str	r3, [r7, #16]
        temp &= ~(0x0FUL << (4U * (position & 0x03U)));
 8002a22:	697b      	ldr	r3, [r7, #20]
 8002a24:	f003 0303 	and.w	r3, r3, #3
 8002a28:	009b      	lsls	r3, r3, #2
 8002a2a:	220f      	movs	r2, #15
 8002a2c:	fa02 f303 	lsl.w	r3, r2, r3
 8002a30:	43db      	mvns	r3, r3
 8002a32:	693a      	ldr	r2, [r7, #16]
 8002a34:	4013      	ands	r3, r2
 8002a36:	613b      	str	r3, [r7, #16]
        temp |= (GPIO_GET_INDEX(GPIOx) << (4U * (position & 0x03U)));
 8002a38:	687b      	ldr	r3, [r7, #4]
 8002a3a:	f1b3 4f90 	cmp.w	r3, #1207959552	@ 0x48000000
 8002a3e:	d01f      	beq.n	8002a80 <HAL_GPIO_Init+0x20c>
 8002a40:	687b      	ldr	r3, [r7, #4]
 8002a42:	4a4c      	ldr	r2, [pc, #304]	@ (8002b74 <HAL_GPIO_Init+0x300>)
 8002a44:	4293      	cmp	r3, r2
 8002a46:	d019      	beq.n	8002a7c <HAL_GPIO_Init+0x208>
 8002a48:	687b      	ldr	r3, [r7, #4]
 8002a4a:	4a4b      	ldr	r2, [pc, #300]	@ (8002b78 <HAL_GPIO_Init+0x304>)
 8002a4c:	4293      	cmp	r3, r2
 8002a4e:	d013      	beq.n	8002a78 <HAL_GPIO_Init+0x204>
 8002a50:	687b      	ldr	r3, [r7, #4]
 8002a52:	4a4a      	ldr	r2, [pc, #296]	@ (8002b7c <HAL_GPIO_Init+0x308>)
 8002a54:	4293      	cmp	r3, r2
 8002a56:	d00d      	beq.n	8002a74 <HAL_GPIO_Init+0x200>
 8002a58:	687b      	ldr	r3, [r7, #4]
 8002a5a:	4a49      	ldr	r2, [pc, #292]	@ (8002b80 <HAL_GPIO_Init+0x30c>)
 8002a5c:	4293      	cmp	r3, r2
 8002a5e:	d007      	beq.n	8002a70 <HAL_GPIO_Init+0x1fc>
 8002a60:	687b      	ldr	r3, [r7, #4]
 8002a62:	4a48      	ldr	r2, [pc, #288]	@ (8002b84 <HAL_GPIO_Init+0x310>)
 8002a64:	4293      	cmp	r3, r2
 8002a66:	d101      	bne.n	8002a6c <HAL_GPIO_Init+0x1f8>
 8002a68:	2305      	movs	r3, #5
 8002a6a:	e00a      	b.n	8002a82 <HAL_GPIO_Init+0x20e>
 8002a6c:	2306      	movs	r3, #6
 8002a6e:	e008      	b.n	8002a82 <HAL_GPIO_Init+0x20e>
 8002a70:	2304      	movs	r3, #4
 8002a72:	e006      	b.n	8002a82 <HAL_GPIO_Init+0x20e>
 8002a74:	2303      	movs	r3, #3
 8002a76:	e004      	b.n	8002a82 <HAL_GPIO_Init+0x20e>
 8002a78:	2302      	movs	r3, #2
 8002a7a:	e002      	b.n	8002a82 <HAL_GPIO_Init+0x20e>
 8002a7c:	2301      	movs	r3, #1
 8002a7e:	e000      	b.n	8002a82 <HAL_GPIO_Init+0x20e>
 8002a80:	2300      	movs	r3, #0
 8002a82:	697a      	ldr	r2, [r7, #20]
 8002a84:	f002 0203 	and.w	r2, r2, #3
 8002a88:	0092      	lsls	r2, r2, #2
 8002a8a:	4093      	lsls	r3, r2
 8002a8c:	693a      	ldr	r2, [r7, #16]
 8002a8e:	4313      	orrs	r3, r2
 8002a90:	613b      	str	r3, [r7, #16]
        SYSCFG->EXTICR[position >> 2U] = temp;
 8002a92:	4937      	ldr	r1, [pc, #220]	@ (8002b70 <HAL_GPIO_Init+0x2fc>)
 8002a94:	697b      	ldr	r3, [r7, #20]
 8002a96:	089b      	lsrs	r3, r3, #2
 8002a98:	3302      	adds	r3, #2
 8002a9a:	693a      	ldr	r2, [r7, #16]
 8002a9c:	f841 2023 	str.w	r2, [r1, r3, lsl #2]

        /* Clear Rising Falling edge configuration */
        temp = EXTI->RTSR1;
 8002aa0:	4b39      	ldr	r3, [pc, #228]	@ (8002b88 <HAL_GPIO_Init+0x314>)
 8002aa2:	689b      	ldr	r3, [r3, #8]
 8002aa4:	613b      	str	r3, [r7, #16]
        temp &= ~(iocurrent);
 8002aa6:	68fb      	ldr	r3, [r7, #12]
 8002aa8:	43db      	mvns	r3, r3
 8002aaa:	693a      	ldr	r2, [r7, #16]
 8002aac:	4013      	ands	r3, r2
 8002aae:	613b      	str	r3, [r7, #16]
        if ((GPIO_Init->Mode & TRIGGER_RISING) != 0x00U)
 8002ab0:	683b      	ldr	r3, [r7, #0]
 8002ab2:	685b      	ldr	r3, [r3, #4]
 8002ab4:	f403 1380 	and.w	r3, r3, #1048576	@ 0x100000
 8002ab8:	2b00      	cmp	r3, #0
 8002aba:	d003      	beq.n	8002ac4 <HAL_GPIO_Init+0x250>
        {
          temp |= iocurrent;
 8002abc:	693a      	ldr	r2, [r7, #16]
 8002abe:	68fb      	ldr	r3, [r7, #12]
 8002ac0:	4313      	orrs	r3, r2
 8002ac2:	613b      	str	r3, [r7, #16]
        }
        EXTI->RTSR1 = temp;
 8002ac4:	4a30      	ldr	r2, [pc, #192]	@ (8002b88 <HAL_GPIO_Init+0x314>)
 8002ac6:	693b      	ldr	r3, [r7, #16]
 8002ac8:	6093      	str	r3, [r2, #8]

        temp = EXTI->FTSR1;
 8002aca:	4b2f      	ldr	r3, [pc, #188]	@ (8002b88 <HAL_GPIO_Init+0x314>)
 8002acc:	68db      	ldr	r3, [r3, #12]
 8002ace:	613b      	str	r3, [r7, #16]
        temp &= ~(iocurrent);
 8002ad0:	68fb      	ldr	r3, [r7, #12]
 8002ad2:	43db      	mvns	r3, r3
 8002ad4:	693a      	ldr	r2, [r7, #16]
 8002ad6:	4013      	ands	r3, r2
 8002ad8:	613b      	str	r3, [r7, #16]
        if ((GPIO_Init->Mode & TRIGGER_FALLING) != 0x00U)
 8002ada:	683b      	ldr	r3, [r7, #0]
 8002adc:	685b      	ldr	r3, [r3, #4]
 8002ade:	f403 1300 	and.w	r3, r3, #2097152	@ 0x200000
 8002ae2:	2b00      	cmp	r3, #0
 8002ae4:	d003      	beq.n	8002aee <HAL_GPIO_Init+0x27a>
        {
          temp |= iocurrent;
 8002ae6:	693a      	ldr	r2, [r7, #16]
 8002ae8:	68fb      	ldr	r3, [r7, #12]
 8002aea:	4313      	orrs	r3, r2
 8002aec:	613b      	str	r3, [r7, #16]
        }
        EXTI->FTSR1 = temp;
 8002aee:	4a26      	ldr	r2, [pc, #152]	@ (8002b88 <HAL_GPIO_Init+0x314>)
 8002af0:	693b      	ldr	r3, [r7, #16]
 8002af2:	60d3      	str	r3, [r2, #12]

        temp = EXTI->EMR1;
 8002af4:	4b24      	ldr	r3, [pc, #144]	@ (8002b88 <HAL_GPIO_Init+0x314>)
 8002af6:	685b      	ldr	r3, [r3, #4]
 8002af8:	613b      	str	r3, [r7, #16]
        temp &= ~(iocurrent);
 8002afa:	68fb      	ldr	r3, [r7, #12]
 8002afc:	43db      	mvns	r3, r3
 8002afe:	693a      	ldr	r2, [r7, #16]
 8002b00:	4013      	ands	r3, r2
 8002b02:	613b      	str	r3, [r7, #16]
        if ((GPIO_Init->Mode & EXTI_EVT) != 0x00U)
 8002b04:	683b      	ldr	r3, [r7, #0]
 8002b06:	685b      	ldr	r3, [r3, #4]
 8002b08:	f403 3300 	and.w	r3, r3, #131072	@ 0x20000
 8002b0c:	2b00      	cmp	r3, #0
 8002b0e:	d003      	beq.n	8002b18 <HAL_GPIO_Init+0x2a4>
        {
          temp |= iocurrent;
 8002b10:	693a      	ldr	r2, [r7, #16]
 8002b12:	68fb      	ldr	r3, [r7, #12]
 8002b14:	4313      	orrs	r3, r2
 8002b16:	613b      	str	r3, [r7, #16]
        }
        EXTI->EMR1 = temp;
 8002b18:	4a1b      	ldr	r2, [pc, #108]	@ (8002b88 <HAL_GPIO_Init+0x314>)
 8002b1a:	693b      	ldr	r3, [r7, #16]
 8002b1c:	6053      	str	r3, [r2, #4]

        /* Clear EXTI line configuration */
        temp = EXTI->IMR1;
 8002b1e:	4b1a      	ldr	r3, [pc, #104]	@ (8002b88 <HAL_GPIO_Init+0x314>)
 8002b20:	681b      	ldr	r3, [r3, #0]
 8002b22:	613b      	str	r3, [r7, #16]
        temp &= ~(iocurrent);
 8002b24:	68fb      	ldr	r3, [r7, #12]
 8002b26:	43db      	mvns	r3, r3
 8002b28:	693a      	ldr	r2, [r7, #16]
 8002b2a:	4013      	ands	r3, r2
 8002b2c:	613b      	str	r3, [r7, #16]
        if ((GPIO_Init->Mode & EXTI_IT) != 0x00U)
 8002b2e:	683b      	ldr	r3, [r7, #0]
 8002b30:	685b      	ldr	r3, [r3, #4]
 8002b32:	f403 3380 	and.w	r3, r3, #65536	@ 0x10000
 8002b36:	2b00      	cmp	r3, #0
 8002b38:	d003      	beq.n	8002b42 <HAL_GPIO_Init+0x2ce>
        {
          temp |= iocurrent;
 8002b3a:	693a      	ldr	r2, [r7, #16]
 8002b3c:	68fb      	ldr	r3, [r7, #12]
 8002b3e:	4313      	orrs	r3, r2
 8002b40:	613b      	str	r3, [r7, #16]
        }
        EXTI->IMR1 = temp;
 8002b42:	4a11      	ldr	r2, [pc, #68]	@ (8002b88 <HAL_GPIO_Init+0x314>)
 8002b44:	693b      	ldr	r3, [r7, #16]
 8002b46:	6013      	str	r3, [r2, #0]
      }
    }

    position++;
 8002b48:	697b      	ldr	r3, [r7, #20]
 8002b4a:	3301      	adds	r3, #1
 8002b4c:	617b      	str	r3, [r7, #20]
  while (((GPIO_Init->Pin) >> position) != 0U)
 8002b4e:	683b      	ldr	r3, [r7, #0]
 8002b50:	681a      	ldr	r2, [r3, #0]
 8002b52:	697b      	ldr	r3, [r7, #20]
 8002b54:	fa22 f303 	lsr.w	r3, r2, r3
 8002b58:	2b00      	cmp	r3, #0
 8002b5a:	f47f ae93 	bne.w	8002884 <HAL_GPIO_Init+0x10>
  }
}
 8002b5e:	bf00      	nop
 8002b60:	bf00      	nop
 8002b62:	371c      	adds	r7, #28
 8002b64:	46bd      	mov	sp, r7
 8002b66:	f85d 7b04 	ldr.w	r7, [sp], #4
 8002b6a:	4770      	bx	lr
 8002b6c:	40021000 	.word	0x40021000
 8002b70:	40010000 	.word	0x40010000
 8002b74:	48000400 	.word	0x48000400
 8002b78:	48000800 	.word	0x48000800
 8002b7c:	48000c00 	.word	0x48000c00
 8002b80:	48001000 	.word	0x48001000
 8002b84:	48001400 	.word	0x48001400
 8002b88:	40010400 	.word	0x40010400

08002b8c <HAL_GPIO_WritePin>:
  *            @arg GPIO_PIN_RESET: to clear the port pin
  *            @arg GPIO_PIN_SET: to set the port pin
  * @retval None
  */
void HAL_GPIO_WritePin(GPIO_TypeDef *GPIOx, uint16_t GPIO_Pin, GPIO_PinState PinState)
{
 8002b8c:	b480      	push	{r7}
 8002b8e:	b083      	sub	sp, #12
 8002b90:	af00      	add	r7, sp, #0
 8002b92:	6078      	str	r0, [r7, #4]
 8002b94:	460b      	mov	r3, r1
 8002b96:	807b      	strh	r3, [r7, #2]
 8002b98:	4613      	mov	r3, r2
 8002b9a:	707b      	strb	r3, [r7, #1]
  /* Check the parameters */
  assert_param(IS_GPIO_PIN(GPIO_Pin));
  assert_param(IS_GPIO_PIN_ACTION(PinState));

  if (PinState != GPIO_PIN_RESET)
 8002b9c:	787b      	ldrb	r3, [r7, #1]
 8002b9e:	2b00      	cmp	r3, #0
 8002ba0:	d003      	beq.n	8002baa <HAL_GPIO_WritePin+0x1e>
  {
    GPIOx->BSRR = (uint32_t)GPIO_Pin;
 8002ba2:	887a      	ldrh	r2, [r7, #2]
 8002ba4:	687b      	ldr	r3, [r7, #4]
 8002ba6:	619a      	str	r2, [r3, #24]
  }
  else
  {
    GPIOx->BRR = (uint32_t)GPIO_Pin;
  }
}
 8002ba8:	e002      	b.n	8002bb0 <HAL_GPIO_WritePin+0x24>
    GPIOx->BRR = (uint32_t)GPIO_Pin;
 8002baa:	887a      	ldrh	r2, [r7, #2]
 8002bac:	687b      	ldr	r3, [r7, #4]
 8002bae:	629a      	str	r2, [r3, #40]	@ 0x28
}
 8002bb0:	bf00      	nop
 8002bb2:	370c      	adds	r7, #12
 8002bb4:	46bd      	mov	sp, r7
 8002bb6:	f85d 7b04 	ldr.w	r7, [sp], #4
 8002bba:	4770      	bx	lr

08002bbc <HAL_PWREx_ControlVoltageScaling>:
  *        cleared before returning the status. If the flag is not cleared within
  *        50 microseconds, HAL_TIMEOUT status is reported.
  * @retval HAL Status
  */
HAL_StatusTypeDef HAL_PWREx_ControlVoltageScaling(uint32_t VoltageScaling)
{
 8002bbc:	b480      	push	{r7}
 8002bbe:	b085      	sub	sp, #20
 8002bc0:	af00      	add	r7, sp, #0
 8002bc2:	6078      	str	r0, [r7, #4]
  uint32_t wait_loop_index;

  assert_param(IS_PWR_VOLTAGE_SCALING_RANGE(VoltageScaling));

  if (VoltageScaling == PWR_REGULATOR_VOLTAGE_SCALE1_BOOST)
 8002bc4:	687b      	ldr	r3, [r7, #4]
 8002bc6:	2b00      	cmp	r3, #0
 8002bc8:	d141      	bne.n	8002c4e <HAL_PWREx_ControlVoltageScaling+0x92>
  {
    /* If current range is range 2 */
    if (READ_BIT(PWR->CR1, PWR_CR1_VOS) == PWR_REGULATOR_VOLTAGE_SCALE2)
 8002bca:	4b4b      	ldr	r3, [pc, #300]	@ (8002cf8 <HAL_PWREx_ControlVoltageScaling+0x13c>)
 8002bcc:	681b      	ldr	r3, [r3, #0]
 8002bce:	f403 63c0 	and.w	r3, r3, #1536	@ 0x600
 8002bd2:	f5b3 6f80 	cmp.w	r3, #1024	@ 0x400
 8002bd6:	d131      	bne.n	8002c3c <HAL_PWREx_ControlVoltageScaling+0x80>
    {
      /* Make sure Range 1 Boost is enabled */
      CLEAR_BIT(PWR->CR5, PWR_CR5_R1MODE);
 8002bd8:	4b47      	ldr	r3, [pc, #284]	@ (8002cf8 <HAL_PWREx_ControlVoltageScaling+0x13c>)
 8002bda:	f8d3 3080 	ldr.w	r3, [r3, #128]	@ 0x80
 8002bde:	4a46      	ldr	r2, [pc, #280]	@ (8002cf8 <HAL_PWREx_ControlVoltageScaling+0x13c>)
 8002be0:	f423 7380 	bic.w	r3, r3, #256	@ 0x100
 8002be4:	f8c2 3080 	str.w	r3, [r2, #128]	@ 0x80

      /* Set Range 1 */
      MODIFY_REG(PWR->CR1, PWR_CR1_VOS, PWR_REGULATOR_VOLTAGE_SCALE1);
 8002be8:	4b43      	ldr	r3, [pc, #268]	@ (8002cf8 <HAL_PWREx_ControlVoltageScaling+0x13c>)
 8002bea:	681b      	ldr	r3, [r3, #0]
 8002bec:	f423 63c0 	bic.w	r3, r3, #1536	@ 0x600
 8002bf0:	4a41      	ldr	r2, [pc, #260]	@ (8002cf8 <HAL_PWREx_ControlVoltageScaling+0x13c>)
 8002bf2:	f443 7300 	orr.w	r3, r3, #512	@ 0x200
 8002bf6:	6013      	str	r3, [r2, #0]

      /* Wait until VOSF is cleared */
      wait_loop_index = ((PWR_FLAG_SETTING_DELAY_US * SystemCoreClock) / 1000000U) + 1U;
 8002bf8:	4b40      	ldr	r3, [pc, #256]	@ (8002cfc <HAL_PWREx_ControlVoltageScaling+0x140>)
 8002bfa:	681b      	ldr	r3, [r3, #0]
 8002bfc:	2232      	movs	r2, #50	@ 0x32
 8002bfe:	fb02 f303 	mul.w	r3, r2, r3
 8002c02:	4a3f      	ldr	r2, [pc, #252]	@ (8002d00 <HAL_PWREx_ControlVoltageScaling+0x144>)
 8002c04:	fba2 2303 	umull	r2, r3, r2, r3
 8002c08:	0c9b      	lsrs	r3, r3, #18
 8002c0a:	3301      	adds	r3, #1
 8002c0c:	60fb      	str	r3, [r7, #12]
      while ((HAL_IS_BIT_SET(PWR->SR2, PWR_SR2_VOSF)) && (wait_loop_index != 0U))
 8002c0e:	e002      	b.n	8002c16 <HAL_PWREx_ControlVoltageScaling+0x5a>
      {
        wait_loop_index--;
 8002c10:	68fb      	ldr	r3, [r7, #12]
 8002c12:	3b01      	subs	r3, #1
 8002c14:	60fb      	str	r3, [r7, #12]
      while ((HAL_IS_BIT_SET(PWR->SR2, PWR_SR2_VOSF)) && (wait_loop_index != 0U))
 8002c16:	4b38      	ldr	r3, [pc, #224]	@ (8002cf8 <HAL_PWREx_ControlVoltageScaling+0x13c>)
 8002c18:	695b      	ldr	r3, [r3, #20]
 8002c1a:	f403 6380 	and.w	r3, r3, #1024	@ 0x400
 8002c1e:	f5b3 6f80 	cmp.w	r3, #1024	@ 0x400
 8002c22:	d102      	bne.n	8002c2a <HAL_PWREx_ControlVoltageScaling+0x6e>
 8002c24:	68fb      	ldr	r3, [r7, #12]
 8002c26:	2b00      	cmp	r3, #0
 8002c28:	d1f2      	bne.n	8002c10 <HAL_PWREx_ControlVoltageScaling+0x54>
      }
      if (HAL_IS_BIT_SET(PWR->SR2, PWR_SR2_VOSF))
 8002c2a:	4b33      	ldr	r3, [pc, #204]	@ (8002cf8 <HAL_PWREx_ControlVoltageScaling+0x13c>)
 8002c2c:	695b      	ldr	r3, [r3, #20]
 8002c2e:	f403 6380 	and.w	r3, r3, #1024	@ 0x400
 8002c32:	f5b3 6f80 	cmp.w	r3, #1024	@ 0x400
 8002c36:	d158      	bne.n	8002cea <HAL_PWREx_ControlVoltageScaling+0x12e>
      {
        return HAL_TIMEOUT;
 8002c38:	2303      	movs	r3, #3
 8002c3a:	e057      	b.n	8002cec <HAL_PWREx_ControlVoltageScaling+0x130>
    }
    /* If current range is range 1 normal or boost mode */
    else
    {
      /* Enable Range 1 Boost (no issue if bit already reset) */
      CLEAR_BIT(PWR->CR5, PWR_CR5_R1MODE);
 8002c3c:	4b2e      	ldr	r3, [pc, #184]	@ (8002cf8 <HAL_PWREx_ControlVoltageScaling+0x13c>)
 8002c3e:	f8d3 3080 	ldr.w	r3, [r3, #128]	@ 0x80
 8002c42:	4a2d      	ldr	r2, [pc, #180]	@ (8002cf8 <HAL_PWREx_ControlVoltageScaling+0x13c>)
 8002c44:	f423 7380 	bic.w	r3, r3, #256	@ 0x100
 8002c48:	f8c2 3080 	str.w	r3, [r2, #128]	@ 0x80
 8002c4c:	e04d      	b.n	8002cea <HAL_PWREx_ControlVoltageScaling+0x12e>
    }
  }
  else if (VoltageScaling == PWR_REGULATOR_VOLTAGE_SCALE1)
 8002c4e:	687b      	ldr	r3, [r7, #4]
 8002c50:	f5b3 7f00 	cmp.w	r3, #512	@ 0x200
 8002c54:	d141      	bne.n	8002cda <HAL_PWREx_ControlVoltageScaling+0x11e>
  {
    /* If current range is range 2 */
    if (READ_BIT(PWR->CR1, PWR_CR1_VOS) == PWR_REGULATOR_VOLTAGE_SCALE2)
 8002c56:	4b28      	ldr	r3, [pc, #160]	@ (8002cf8 <HAL_PWREx_ControlVoltageScaling+0x13c>)
 8002c58:	681b      	ldr	r3, [r3, #0]
 8002c5a:	f403 63c0 	and.w	r3, r3, #1536	@ 0x600
 8002c5e:	f5b3 6f80 	cmp.w	r3, #1024	@ 0x400
 8002c62:	d131      	bne.n	8002cc8 <HAL_PWREx_ControlVoltageScaling+0x10c>
    {
      /* Make sure Range 1 Boost is disabled */
      SET_BIT(PWR->CR5, PWR_CR5_R1MODE);
 8002c64:	4b24      	ldr	r3, [pc, #144]	@ (8002cf8 <HAL_PWREx_ControlVoltageScaling+0x13c>)
 8002c66:	f8d3 3080 	ldr.w	r3, [r3, #128]	@ 0x80
 8002c6a:	4a23      	ldr	r2, [pc, #140]	@ (8002cf8 <HAL_PWREx_ControlVoltageScaling+0x13c>)
 8002c6c:	f443 7380 	orr.w	r3, r3, #256	@ 0x100
 8002c70:	f8c2 3080 	str.w	r3, [r2, #128]	@ 0x80

      /* Set Range 1 */
      MODIFY_REG(PWR->CR1, PWR_CR1_VOS, PWR_REGULATOR_VOLTAGE_SCALE1);
 8002c74:	4b20      	ldr	r3, [pc, #128]	@ (8002cf8 <HAL_PWREx_ControlVoltageScaling+0x13c>)
 8002c76:	681b      	ldr	r3, [r3, #0]
 8002c78:	f423 63c0 	bic.w	r3, r3, #1536	@ 0x600
 8002c7c:	4a1e      	ldr	r2, [pc, #120]	@ (8002cf8 <HAL_PWREx_ControlVoltageScaling+0x13c>)
 8002c7e:	f443 7300 	orr.w	r3, r3, #512	@ 0x200
 8002c82:	6013      	str	r3, [r2, #0]

      /* Wait until VOSF is cleared */
      wait_loop_index = ((PWR_FLAG_SETTING_DELAY_US * SystemCoreClock) / 1000000U) + 1U;
 8002c84:	4b1d      	ldr	r3, [pc, #116]	@ (8002cfc <HAL_PWREx_ControlVoltageScaling+0x140>)
 8002c86:	681b      	ldr	r3, [r3, #0]
 8002c88:	2232      	movs	r2, #50	@ 0x32
 8002c8a:	fb02 f303 	mul.w	r3, r2, r3
 8002c8e:	4a1c      	ldr	r2, [pc, #112]	@ (8002d00 <HAL_PWREx_ControlVoltageScaling+0x144>)
 8002c90:	fba2 2303 	umull	r2, r3, r2, r3
 8002c94:	0c9b      	lsrs	r3, r3, #18
 8002c96:	3301      	adds	r3, #1
 8002c98:	60fb      	str	r3, [r7, #12]
      while ((HAL_IS_BIT_SET(PWR->SR2, PWR_SR2_VOSF)) && (wait_loop_index != 0U))
 8002c9a:	e002      	b.n	8002ca2 <HAL_PWREx_ControlVoltageScaling+0xe6>
      {
        wait_loop_index--;
 8002c9c:	68fb      	ldr	r3, [r7, #12]
 8002c9e:	3b01      	subs	r3, #1
 8002ca0:	60fb      	str	r3, [r7, #12]
      while ((HAL_IS_BIT_SET(PWR->SR2, PWR_SR2_VOSF)) && (wait_loop_index != 0U))
 8002ca2:	4b15      	ldr	r3, [pc, #84]	@ (8002cf8 <HAL_PWREx_ControlVoltageScaling+0x13c>)
 8002ca4:	695b      	ldr	r3, [r3, #20]
 8002ca6:	f403 6380 	and.w	r3, r3, #1024	@ 0x400
 8002caa:	f5b3 6f80 	cmp.w	r3, #1024	@ 0x400
 8002cae:	d102      	bne.n	8002cb6 <HAL_PWREx_ControlVoltageScaling+0xfa>
 8002cb0:	68fb      	ldr	r3, [r7, #12]
 8002cb2:	2b00      	cmp	r3, #0
 8002cb4:	d1f2      	bne.n	8002c9c <HAL_PWREx_ControlVoltageScaling+0xe0>
      }
      if (HAL_IS_BIT_SET(PWR->SR2, PWR_SR2_VOSF))
 8002cb6:	4b10      	ldr	r3, [pc, #64]	@ (8002cf8 <HAL_PWREx_ControlVoltageScaling+0x13c>)
 8002cb8:	695b      	ldr	r3, [r3, #20]
 8002cba:	f403 6380 	and.w	r3, r3, #1024	@ 0x400
 8002cbe:	f5b3 6f80 	cmp.w	r3, #1024	@ 0x400
 8002cc2:	d112      	bne.n	8002cea <HAL_PWREx_ControlVoltageScaling+0x12e>
      {
        return HAL_TIMEOUT;
 8002cc4:	2303      	movs	r3, #3
 8002cc6:	e011      	b.n	8002cec <HAL_PWREx_ControlVoltageScaling+0x130>
    }
     /* If current range is range 1 normal or boost mode */
    else
    {
      /* Disable Range 1 Boost (no issue if bit already set) */
      SET_BIT(PWR->CR5, PWR_CR5_R1MODE);
 8002cc8:	4b0b      	ldr	r3, [pc, #44]	@ (8002cf8 <HAL_PWREx_ControlVoltageScaling+0x13c>)
 8002cca:	f8d3 3080 	ldr.w	r3, [r3, #128]	@ 0x80
 8002cce:	4a0a      	ldr	r2, [pc, #40]	@ (8002cf8 <HAL_PWREx_ControlVoltageScaling+0x13c>)
 8002cd0:	f443 7380 	orr.w	r3, r3, #256	@ 0x100
 8002cd4:	f8c2 3080 	str.w	r3, [r2, #128]	@ 0x80
 8002cd8:	e007      	b.n	8002cea <HAL_PWREx_ControlVoltageScaling+0x12e>
    }
  }
  else
  {
    /* Set Range 2 */
    MODIFY_REG(PWR->CR1, PWR_CR1_VOS, PWR_REGULATOR_VOLTAGE_SCALE2);
 8002cda:	4b07      	ldr	r3, [pc, #28]	@ (8002cf8 <HAL_PWREx_ControlVoltageScaling+0x13c>)
 8002cdc:	681b      	ldr	r3, [r3, #0]
 8002cde:	f423 63c0 	bic.w	r3, r3, #1536	@ 0x600
 8002ce2:	4a05      	ldr	r2, [pc, #20]	@ (8002cf8 <HAL_PWREx_ControlVoltageScaling+0x13c>)
 8002ce4:	f443 6380 	orr.w	r3, r3, #1024	@ 0x400
 8002ce8:	6013      	str	r3, [r2, #0]
    /* No need to wait for VOSF to be cleared for this transition */
    /* PWR_CR5_R1MODE bit setting has no effect in Range 2        */
  }

  return HAL_OK;
 8002cea:	2300      	movs	r3, #0
}
 8002cec:	4618      	mov	r0, r3
 8002cee:	3714      	adds	r7, #20
 8002cf0:	46bd      	mov	sp, r7
 8002cf2:	f85d 7b04 	ldr.w	r7, [sp], #4
 8002cf6:	4770      	bx	lr
 8002cf8:	40007000 	.word	0x40007000
 8002cfc:	20000000 	.word	0x20000000
 8002d00:	431bde83 	.word	0x431bde83

08002d04 <HAL_PWREx_DisableUCPDDeadBattery>:
  *       or to hand over control to the UCPD (which should therefore be
  *       initialized before doing the disable).
  * @retval None
  */
void HAL_PWREx_DisableUCPDDeadBattery(void)
{
 8002d04:	b480      	push	{r7}
 8002d06:	af00      	add	r7, sp, #0
  /* Write 1 to disable the USB Type-C dead battery pull-down behavior */
  SET_BIT(PWR->CR3, PWR_CR3_UCPD_DBDIS);
 8002d08:	4b05      	ldr	r3, [pc, #20]	@ (8002d20 <HAL_PWREx_DisableUCPDDeadBattery+0x1c>)
 8002d0a:	689b      	ldr	r3, [r3, #8]
 8002d0c:	4a04      	ldr	r2, [pc, #16]	@ (8002d20 <HAL_PWREx_DisableUCPDDeadBattery+0x1c>)
 8002d0e:	f443 4380 	orr.w	r3, r3, #16384	@ 0x4000
 8002d12:	6093      	str	r3, [r2, #8]
}
 8002d14:	bf00      	nop
 8002d16:	46bd      	mov	sp, r7
 8002d18:	f85d 7b04 	ldr.w	r7, [sp], #4
 8002d1c:	4770      	bx	lr
 8002d1e:	bf00      	nop
 8002d20:	40007000 	.word	0x40007000

08002d24 <HAL_RCC_OscConfig>:
  *         supported by this macro. User should request a transition to HSE Off
  *         first and then HSE On or HSE Bypass.
  * @retval HAL status
  */
HAL_StatusTypeDef HAL_RCC_OscConfig(const RCC_OscInitTypeDef  *RCC_OscInitStruct)
{
 8002d24:	b580      	push	{r7, lr}
 8002d26:	b088      	sub	sp, #32
 8002d28:	af00      	add	r7, sp, #0
 8002d2a:	6078      	str	r0, [r7, #4]
  uint32_t tickstart;
  uint32_t temp_sysclksrc;
  uint32_t temp_pllckcfg;

  /* Check Null pointer */
  if (RCC_OscInitStruct == NULL)
 8002d2c:	687b      	ldr	r3, [r7, #4]
 8002d2e:	2b00      	cmp	r3, #0
 8002d30:	d101      	bne.n	8002d36 <HAL_RCC_OscConfig+0x12>
  {
    return HAL_ERROR;
 8002d32:	2301      	movs	r3, #1
 8002d34:	e2fe      	b.n	8003334 <HAL_RCC_OscConfig+0x610>

  /* Check the parameters */
  assert_param(IS_RCC_OSCILLATORTYPE(RCC_OscInitStruct->OscillatorType));

  /*------------------------------- HSE Configuration ------------------------*/
  if (((RCC_OscInitStruct->OscillatorType) & RCC_OSCILLATORTYPE_HSE) == RCC_OSCILLATORTYPE_HSE)
 8002d36:	687b      	ldr	r3, [r7, #4]
 8002d38:	681b      	ldr	r3, [r3, #0]
 8002d3a:	f003 0301 	and.w	r3, r3, #1
 8002d3e:	2b00      	cmp	r3, #0
 8002d40:	d075      	beq.n	8002e2e <HAL_RCC_OscConfig+0x10a>
  {
    /* Check the parameters */
    assert_param(IS_RCC_HSE(RCC_OscInitStruct->HSEState));

    temp_sysclksrc = __HAL_RCC_GET_SYSCLK_SOURCE();
 8002d42:	4b97      	ldr	r3, [pc, #604]	@ (8002fa0 <HAL_RCC_OscConfig+0x27c>)
 8002d44:	689b      	ldr	r3, [r3, #8]
 8002d46:	f003 030c 	and.w	r3, r3, #12
 8002d4a:	61bb      	str	r3, [r7, #24]
    temp_pllckcfg = __HAL_RCC_GET_PLL_OSCSOURCE();
 8002d4c:	4b94      	ldr	r3, [pc, #592]	@ (8002fa0 <HAL_RCC_OscConfig+0x27c>)
 8002d4e:	68db      	ldr	r3, [r3, #12]
 8002d50:	f003 0303 	and.w	r3, r3, #3
 8002d54:	617b      	str	r3, [r7, #20]

    /* When the HSE is used as system clock or clock source for PLL in these cases it is not allowed to be disabled */
    if (((temp_sysclksrc == RCC_CFGR_SWS_PLL) && (temp_pllckcfg == RCC_PLLSOURCE_HSE)) || (temp_sysclksrc == RCC_CFGR_SWS_HSE))
 8002d56:	69bb      	ldr	r3, [r7, #24]
 8002d58:	2b0c      	cmp	r3, #12
 8002d5a:	d102      	bne.n	8002d62 <HAL_RCC_OscConfig+0x3e>
 8002d5c:	697b      	ldr	r3, [r7, #20]
 8002d5e:	2b03      	cmp	r3, #3
 8002d60:	d002      	beq.n	8002d68 <HAL_RCC_OscConfig+0x44>
 8002d62:	69bb      	ldr	r3, [r7, #24]
 8002d64:	2b08      	cmp	r3, #8
 8002d66:	d10b      	bne.n	8002d80 <HAL_RCC_OscConfig+0x5c>
    {
      if ((READ_BIT(RCC->CR, RCC_CR_HSERDY) != 0U) && (RCC_OscInitStruct->HSEState == RCC_HSE_OFF))
 8002d68:	4b8d      	ldr	r3, [pc, #564]	@ (8002fa0 <HAL_RCC_OscConfig+0x27c>)
 8002d6a:	681b      	ldr	r3, [r3, #0]
 8002d6c:	f403 3300 	and.w	r3, r3, #131072	@ 0x20000
 8002d70:	2b00      	cmp	r3, #0
 8002d72:	d05b      	beq.n	8002e2c <HAL_RCC_OscConfig+0x108>
 8002d74:	687b      	ldr	r3, [r7, #4]
 8002d76:	685b      	ldr	r3, [r3, #4]
 8002d78:	2b00      	cmp	r3, #0
 8002d7a:	d157      	bne.n	8002e2c <HAL_RCC_OscConfig+0x108>
      {
        return HAL_ERROR;
 8002d7c:	2301      	movs	r3, #1
 8002d7e:	e2d9      	b.n	8003334 <HAL_RCC_OscConfig+0x610>
      }
    }
    else
    {
      /* Set the new HSE configuration ---------------------------------------*/
      __HAL_RCC_HSE_CONFIG(RCC_OscInitStruct->HSEState);
 8002d80:	687b      	ldr	r3, [r7, #4]
 8002d82:	685b      	ldr	r3, [r3, #4]
 8002d84:	f5b3 3f80 	cmp.w	r3, #65536	@ 0x10000
 8002d88:	d106      	bne.n	8002d98 <HAL_RCC_OscConfig+0x74>
 8002d8a:	4b85      	ldr	r3, [pc, #532]	@ (8002fa0 <HAL_RCC_OscConfig+0x27c>)
 8002d8c:	681b      	ldr	r3, [r3, #0]
 8002d8e:	4a84      	ldr	r2, [pc, #528]	@ (8002fa0 <HAL_RCC_OscConfig+0x27c>)
 8002d90:	f443 3380 	orr.w	r3, r3, #65536	@ 0x10000
 8002d94:	6013      	str	r3, [r2, #0]
 8002d96:	e01d      	b.n	8002dd4 <HAL_RCC_OscConfig+0xb0>
 8002d98:	687b      	ldr	r3, [r7, #4]
 8002d9a:	685b      	ldr	r3, [r3, #4]
 8002d9c:	f5b3 2fa0 	cmp.w	r3, #327680	@ 0x50000
 8002da0:	d10c      	bne.n	8002dbc <HAL_RCC_OscConfig+0x98>
 8002da2:	4b7f      	ldr	r3, [pc, #508]	@ (8002fa0 <HAL_RCC_OscConfig+0x27c>)
 8002da4:	681b      	ldr	r3, [r3, #0]
 8002da6:	4a7e      	ldr	r2, [pc, #504]	@ (8002fa0 <HAL_RCC_OscConfig+0x27c>)
 8002da8:	f443 2380 	orr.w	r3, r3, #262144	@ 0x40000
 8002dac:	6013      	str	r3, [r2, #0]
 8002dae:	4b7c      	ldr	r3, [pc, #496]	@ (8002fa0 <HAL_RCC_OscConfig+0x27c>)
 8002db0:	681b      	ldr	r3, [r3, #0]
 8002db2:	4a7b      	ldr	r2, [pc, #492]	@ (8002fa0 <HAL_RCC_OscConfig+0x27c>)
 8002db4:	f443 3380 	orr.w	r3, r3, #65536	@ 0x10000
 8002db8:	6013      	str	r3, [r2, #0]
 8002dba:	e00b      	b.n	8002dd4 <HAL_RCC_OscConfig+0xb0>
 8002dbc:	4b78      	ldr	r3, [pc, #480]	@ (8002fa0 <HAL_RCC_OscConfig+0x27c>)
 8002dbe:	681b      	ldr	r3, [r3, #0]
 8002dc0:	4a77      	ldr	r2, [pc, #476]	@ (8002fa0 <HAL_RCC_OscConfig+0x27c>)
 8002dc2:	f423 3380 	bic.w	r3, r3, #65536	@ 0x10000
 8002dc6:	6013      	str	r3, [r2, #0]
 8002dc8:	4b75      	ldr	r3, [pc, #468]	@ (8002fa0 <HAL_RCC_OscConfig+0x27c>)
 8002dca:	681b      	ldr	r3, [r3, #0]
 8002dcc:	4a74      	ldr	r2, [pc, #464]	@ (8002fa0 <HAL_RCC_OscConfig+0x27c>)
 8002dce:	f423 2380 	bic.w	r3, r3, #262144	@ 0x40000
 8002dd2:	6013      	str	r3, [r2, #0]

      /* Check the HSE State */
      if (RCC_OscInitStruct->HSEState != RCC_HSE_OFF)
 8002dd4:	687b      	ldr	r3, [r7, #4]
 8002dd6:	685b      	ldr	r3, [r3, #4]
 8002dd8:	2b00      	cmp	r3, #0
 8002dda:	d013      	beq.n	8002e04 <HAL_RCC_OscConfig+0xe0>
      {
        /* Get Start Tick*/
        tickstart = HAL_GetTick();
 8002ddc:	f7ff fc38 	bl	8002650 <HAL_GetTick>
 8002de0:	6138      	str	r0, [r7, #16]

        /* Wait till HSE is ready */
        while (READ_BIT(RCC->CR, RCC_CR_HSERDY) == 0U)
 8002de2:	e008      	b.n	8002df6 <HAL_RCC_OscConfig+0xd2>
        {
          if ((HAL_GetTick() - tickstart) > HSE_TIMEOUT_VALUE)
 8002de4:	f7ff fc34 	bl	8002650 <HAL_GetTick>
 8002de8:	4602      	mov	r2, r0
 8002dea:	693b      	ldr	r3, [r7, #16]
 8002dec:	1ad3      	subs	r3, r2, r3
 8002dee:	2b64      	cmp	r3, #100	@ 0x64
 8002df0:	d901      	bls.n	8002df6 <HAL_RCC_OscConfig+0xd2>
          {
            return HAL_TIMEOUT;
 8002df2:	2303      	movs	r3, #3
 8002df4:	e29e      	b.n	8003334 <HAL_RCC_OscConfig+0x610>
        while (READ_BIT(RCC->CR, RCC_CR_HSERDY) == 0U)
 8002df6:	4b6a      	ldr	r3, [pc, #424]	@ (8002fa0 <HAL_RCC_OscConfig+0x27c>)
 8002df8:	681b      	ldr	r3, [r3, #0]
 8002dfa:	f403 3300 	and.w	r3, r3, #131072	@ 0x20000
 8002dfe:	2b00      	cmp	r3, #0
 8002e00:	d0f0      	beq.n	8002de4 <HAL_RCC_OscConfig+0xc0>
 8002e02:	e014      	b.n	8002e2e <HAL_RCC_OscConfig+0x10a>
        }
      }
      else
      {
        /* Get Start Tick*/
        tickstart = HAL_GetTick();
 8002e04:	f7ff fc24 	bl	8002650 <HAL_GetTick>
 8002e08:	6138      	str	r0, [r7, #16]

        /* Wait till HSE is disabled */
        while (READ_BIT(RCC->CR, RCC_CR_HSERDY) != 0U)
 8002e0a:	e008      	b.n	8002e1e <HAL_RCC_OscConfig+0xfa>
        {
          if ((HAL_GetTick() - tickstart) > HSE_TIMEOUT_VALUE)
 8002e0c:	f7ff fc20 	bl	8002650 <HAL_GetTick>
 8002e10:	4602      	mov	r2, r0
 8002e12:	693b      	ldr	r3, [r7, #16]
 8002e14:	1ad3      	subs	r3, r2, r3
 8002e16:	2b64      	cmp	r3, #100	@ 0x64
 8002e18:	d901      	bls.n	8002e1e <HAL_RCC_OscConfig+0xfa>
          {
            return HAL_TIMEOUT;
 8002e1a:	2303      	movs	r3, #3
 8002e1c:	e28a      	b.n	8003334 <HAL_RCC_OscConfig+0x610>
        while (READ_BIT(RCC->CR, RCC_CR_HSERDY) != 0U)
 8002e1e:	4b60      	ldr	r3, [pc, #384]	@ (8002fa0 <HAL_RCC_OscConfig+0x27c>)
 8002e20:	681b      	ldr	r3, [r3, #0]
 8002e22:	f403 3300 	and.w	r3, r3, #131072	@ 0x20000
 8002e26:	2b00      	cmp	r3, #0
 8002e28:	d1f0      	bne.n	8002e0c <HAL_RCC_OscConfig+0xe8>
 8002e2a:	e000      	b.n	8002e2e <HAL_RCC_OscConfig+0x10a>
      if ((READ_BIT(RCC->CR, RCC_CR_HSERDY) != 0U) && (RCC_OscInitStruct->HSEState == RCC_HSE_OFF))
 8002e2c:	bf00      	nop
        }
      }
    }
  }
  /*----------------------------- HSI Configuration --------------------------*/
  if (((RCC_OscInitStruct->OscillatorType) & RCC_OSCILLATORTYPE_HSI) == RCC_OSCILLATORTYPE_HSI)
 8002e2e:	687b      	ldr	r3, [r7, #4]
 8002e30:	681b      	ldr	r3, [r3, #0]
 8002e32:	f003 0302 	and.w	r3, r3, #2
 8002e36:	2b00      	cmp	r3, #0
 8002e38:	d075      	beq.n	8002f26 <HAL_RCC_OscConfig+0x202>
    /* Check the parameters */
    assert_param(IS_RCC_HSI(RCC_OscInitStruct->HSIState));
    assert_param(IS_RCC_HSI_CALIBRATION_VALUE(RCC_OscInitStruct->HSICalibrationValue));

    /* Check if HSI is used as system clock or as PLL source when PLL is selected as system clock */
    temp_sysclksrc = __HAL_RCC_GET_SYSCLK_SOURCE();
 8002e3a:	4b59      	ldr	r3, [pc, #356]	@ (8002fa0 <HAL_RCC_OscConfig+0x27c>)
 8002e3c:	689b      	ldr	r3, [r3, #8]
 8002e3e:	f003 030c 	and.w	r3, r3, #12
 8002e42:	61bb      	str	r3, [r7, #24]
    temp_pllckcfg = __HAL_RCC_GET_PLL_OSCSOURCE();
 8002e44:	4b56      	ldr	r3, [pc, #344]	@ (8002fa0 <HAL_RCC_OscConfig+0x27c>)
 8002e46:	68db      	ldr	r3, [r3, #12]
 8002e48:	f003 0303 	and.w	r3, r3, #3
 8002e4c:	617b      	str	r3, [r7, #20]
    if (((temp_sysclksrc == RCC_CFGR_SWS_PLL) && (temp_pllckcfg == RCC_PLLSOURCE_HSI)) || (temp_sysclksrc == RCC_CFGR_SWS_HSI))
 8002e4e:	69bb      	ldr	r3, [r7, #24]
 8002e50:	2b0c      	cmp	r3, #12
 8002e52:	d102      	bne.n	8002e5a <HAL_RCC_OscConfig+0x136>
 8002e54:	697b      	ldr	r3, [r7, #20]
 8002e56:	2b02      	cmp	r3, #2
 8002e58:	d002      	beq.n	8002e60 <HAL_RCC_OscConfig+0x13c>
 8002e5a:	69bb      	ldr	r3, [r7, #24]
 8002e5c:	2b04      	cmp	r3, #4
 8002e5e:	d11f      	bne.n	8002ea0 <HAL_RCC_OscConfig+0x17c>
    {
      /* When HSI is used as system clock it will not be disabled */
      if ((READ_BIT(RCC->CR, RCC_CR_HSIRDY) != 0U) && (RCC_OscInitStruct->HSIState == RCC_HSI_OFF))
 8002e60:	4b4f      	ldr	r3, [pc, #316]	@ (8002fa0 <HAL_RCC_OscConfig+0x27c>)
 8002e62:	681b      	ldr	r3, [r3, #0]
 8002e64:	f403 6380 	and.w	r3, r3, #1024	@ 0x400
 8002e68:	2b00      	cmp	r3, #0
 8002e6a:	d005      	beq.n	8002e78 <HAL_RCC_OscConfig+0x154>
 8002e6c:	687b      	ldr	r3, [r7, #4]
 8002e6e:	68db      	ldr	r3, [r3, #12]
 8002e70:	2b00      	cmp	r3, #0
 8002e72:	d101      	bne.n	8002e78 <HAL_RCC_OscConfig+0x154>
      {
        return HAL_ERROR;
 8002e74:	2301      	movs	r3, #1
 8002e76:	e25d      	b.n	8003334 <HAL_RCC_OscConfig+0x610>
      }
      /* Otherwise, just the calibration is allowed */
      else
      {
        /* Adjusts the Internal High Speed oscillator (HSI) calibration value.*/
        __HAL_RCC_HSI_CALIBRATIONVALUE_ADJUST(RCC_OscInitStruct->HSICalibrationValue);
 8002e78:	4b49      	ldr	r3, [pc, #292]	@ (8002fa0 <HAL_RCC_OscConfig+0x27c>)
 8002e7a:	685b      	ldr	r3, [r3, #4]
 8002e7c:	f023 42fe 	bic.w	r2, r3, #2130706432	@ 0x7f000000
 8002e80:	687b      	ldr	r3, [r7, #4]
 8002e82:	691b      	ldr	r3, [r3, #16]
 8002e84:	061b      	lsls	r3, r3, #24
 8002e86:	4946      	ldr	r1, [pc, #280]	@ (8002fa0 <HAL_RCC_OscConfig+0x27c>)
 8002e88:	4313      	orrs	r3, r2
 8002e8a:	604b      	str	r3, [r1, #4]

        /* Adapt Systick interrupt period */
        if (HAL_InitTick(uwTickPrio) != HAL_OK)
 8002e8c:	4b45      	ldr	r3, [pc, #276]	@ (8002fa4 <HAL_RCC_OscConfig+0x280>)
 8002e8e:	681b      	ldr	r3, [r3, #0]
 8002e90:	4618      	mov	r0, r3
 8002e92:	f7ff fb91 	bl	80025b8 <HAL_InitTick>
 8002e96:	4603      	mov	r3, r0
 8002e98:	2b00      	cmp	r3, #0
 8002e9a:	d043      	beq.n	8002f24 <HAL_RCC_OscConfig+0x200>
        {
          return HAL_ERROR;
 8002e9c:	2301      	movs	r3, #1
 8002e9e:	e249      	b.n	8003334 <HAL_RCC_OscConfig+0x610>
      }
    }
    else
    {
      /* Check the HSI State */
      if (RCC_OscInitStruct->HSIState != RCC_HSI_OFF)
 8002ea0:	687b      	ldr	r3, [r7, #4]
 8002ea2:	68db      	ldr	r3, [r3, #12]
 8002ea4:	2b00      	cmp	r3, #0
 8002ea6:	d023      	beq.n	8002ef0 <HAL_RCC_OscConfig+0x1cc>
      {
        /* Enable the Internal High Speed oscillator (HSI). */
        __HAL_RCC_HSI_ENABLE();
 8002ea8:	4b3d      	ldr	r3, [pc, #244]	@ (8002fa0 <HAL_RCC_OscConfig+0x27c>)
 8002eaa:	681b      	ldr	r3, [r3, #0]
 8002eac:	4a3c      	ldr	r2, [pc, #240]	@ (8002fa0 <HAL_RCC_OscConfig+0x27c>)
 8002eae:	f443 7380 	orr.w	r3, r3, #256	@ 0x100
 8002eb2:	6013      	str	r3, [r2, #0]

        /* Get Start Tick*/
        tickstart = HAL_GetTick();
 8002eb4:	f7ff fbcc 	bl	8002650 <HAL_GetTick>
 8002eb8:	6138      	str	r0, [r7, #16]

        /* Wait till HSI is ready */
        while (READ_BIT(RCC->CR, RCC_CR_HSIRDY) == 0U)
 8002eba:	e008      	b.n	8002ece <HAL_RCC_OscConfig+0x1aa>
        {
          if ((HAL_GetTick() - tickstart) > HSI_TIMEOUT_VALUE)
 8002ebc:	f7ff fbc8 	bl	8002650 <HAL_GetTick>
 8002ec0:	4602      	mov	r2, r0
 8002ec2:	693b      	ldr	r3, [r7, #16]
 8002ec4:	1ad3      	subs	r3, r2, r3
 8002ec6:	2b02      	cmp	r3, #2
 8002ec8:	d901      	bls.n	8002ece <HAL_RCC_OscConfig+0x1aa>
          {
            return HAL_TIMEOUT;
 8002eca:	2303      	movs	r3, #3
 8002ecc:	e232      	b.n	8003334 <HAL_RCC_OscConfig+0x610>
        while (READ_BIT(RCC->CR, RCC_CR_HSIRDY) == 0U)
 8002ece:	4b34      	ldr	r3, [pc, #208]	@ (8002fa0 <HAL_RCC_OscConfig+0x27c>)
 8002ed0:	681b      	ldr	r3, [r3, #0]
 8002ed2:	f403 6380 	and.w	r3, r3, #1024	@ 0x400
 8002ed6:	2b00      	cmp	r3, #0
 8002ed8:	d0f0      	beq.n	8002ebc <HAL_RCC_OscConfig+0x198>
          }
        }

        /* Adjusts the Internal High Speed oscillator (HSI) calibration value.*/
        __HAL_RCC_HSI_CALIBRATIONVALUE_ADJUST(RCC_OscInitStruct->HSICalibrationValue);
 8002eda:	4b31      	ldr	r3, [pc, #196]	@ (8002fa0 <HAL_RCC_OscConfig+0x27c>)
 8002edc:	685b      	ldr	r3, [r3, #4]
 8002ede:	f023 42fe 	bic.w	r2, r3, #2130706432	@ 0x7f000000
 8002ee2:	687b      	ldr	r3, [r7, #4]
 8002ee4:	691b      	ldr	r3, [r3, #16]
 8002ee6:	061b      	lsls	r3, r3, #24
 8002ee8:	492d      	ldr	r1, [pc, #180]	@ (8002fa0 <HAL_RCC_OscConfig+0x27c>)
 8002eea:	4313      	orrs	r3, r2
 8002eec:	604b      	str	r3, [r1, #4]
 8002eee:	e01a      	b.n	8002f26 <HAL_RCC_OscConfig+0x202>
      }
      else
      {
        /* Disable the Internal High Speed oscillator (HSI). */
        __HAL_RCC_HSI_DISABLE();
 8002ef0:	4b2b      	ldr	r3, [pc, #172]	@ (8002fa0 <HAL_RCC_OscConfig+0x27c>)
 8002ef2:	681b      	ldr	r3, [r3, #0]
 8002ef4:	4a2a      	ldr	r2, [pc, #168]	@ (8002fa0 <HAL_RCC_OscConfig+0x27c>)
 8002ef6:	f423 7380 	bic.w	r3, r3, #256	@ 0x100
 8002efa:	6013      	str	r3, [r2, #0]

        /* Get Start Tick*/
        tickstart = HAL_GetTick();
 8002efc:	f7ff fba8 	bl	8002650 <HAL_GetTick>
 8002f00:	6138      	str	r0, [r7, #16]

        /* Wait till HSI is disabled */
        while (READ_BIT(RCC->CR, RCC_CR_HSIRDY) != 0U)
 8002f02:	e008      	b.n	8002f16 <HAL_RCC_OscConfig+0x1f2>
        {
          if ((HAL_GetTick() - tickstart) > HSI_TIMEOUT_VALUE)
 8002f04:	f7ff fba4 	bl	8002650 <HAL_GetTick>
 8002f08:	4602      	mov	r2, r0
 8002f0a:	693b      	ldr	r3, [r7, #16]
 8002f0c:	1ad3      	subs	r3, r2, r3
 8002f0e:	2b02      	cmp	r3, #2
 8002f10:	d901      	bls.n	8002f16 <HAL_RCC_OscConfig+0x1f2>
          {
            return HAL_TIMEOUT;
 8002f12:	2303      	movs	r3, #3
 8002f14:	e20e      	b.n	8003334 <HAL_RCC_OscConfig+0x610>
        while (READ_BIT(RCC->CR, RCC_CR_HSIRDY) != 0U)
 8002f16:	4b22      	ldr	r3, [pc, #136]	@ (8002fa0 <HAL_RCC_OscConfig+0x27c>)
 8002f18:	681b      	ldr	r3, [r3, #0]
 8002f1a:	f403 6380 	and.w	r3, r3, #1024	@ 0x400
 8002f1e:	2b00      	cmp	r3, #0
 8002f20:	d1f0      	bne.n	8002f04 <HAL_RCC_OscConfig+0x1e0>
 8002f22:	e000      	b.n	8002f26 <HAL_RCC_OscConfig+0x202>
      if ((READ_BIT(RCC->CR, RCC_CR_HSIRDY) != 0U) && (RCC_OscInitStruct->HSIState == RCC_HSI_OFF))
 8002f24:	bf00      	nop
        }
      }
    }
  }
  /*------------------------------ LSI Configuration -------------------------*/
  if (((RCC_OscInitStruct->OscillatorType) & RCC_OSCILLATORTYPE_LSI) == RCC_OSCILLATORTYPE_LSI)
 8002f26:	687b      	ldr	r3, [r7, #4]
 8002f28:	681b      	ldr	r3, [r3, #0]
 8002f2a:	f003 0308 	and.w	r3, r3, #8
 8002f2e:	2b00      	cmp	r3, #0
 8002f30:	d041      	beq.n	8002fb6 <HAL_RCC_OscConfig+0x292>
  {
    /* Check the parameters */
    assert_param(IS_RCC_LSI(RCC_OscInitStruct->LSIState));

    /* Check the LSI State */
    if(RCC_OscInitStruct->LSIState != RCC_LSI_OFF)
 8002f32:	687b      	ldr	r3, [r7, #4]
 8002f34:	695b      	ldr	r3, [r3, #20]
 8002f36:	2b00      	cmp	r3, #0
 8002f38:	d01c      	beq.n	8002f74 <HAL_RCC_OscConfig+0x250>
    {
      /* Enable the Internal Low Speed oscillator (LSI). */
      __HAL_RCC_LSI_ENABLE();
 8002f3a:	4b19      	ldr	r3, [pc, #100]	@ (8002fa0 <HAL_RCC_OscConfig+0x27c>)
 8002f3c:	f8d3 3094 	ldr.w	r3, [r3, #148]	@ 0x94
 8002f40:	4a17      	ldr	r2, [pc, #92]	@ (8002fa0 <HAL_RCC_OscConfig+0x27c>)
 8002f42:	f043 0301 	orr.w	r3, r3, #1
 8002f46:	f8c2 3094 	str.w	r3, [r2, #148]	@ 0x94

      /* Get Start Tick*/
      tickstart = HAL_GetTick();
 8002f4a:	f7ff fb81 	bl	8002650 <HAL_GetTick>
 8002f4e:	6138      	str	r0, [r7, #16]

      /* Wait till LSI is ready */
      while (READ_BIT(RCC->CSR, RCC_CSR_LSIRDY) == 0U)
 8002f50:	e008      	b.n	8002f64 <HAL_RCC_OscConfig+0x240>
      {
        if ((HAL_GetTick() - tickstart) > LSI_TIMEOUT_VALUE)
 8002f52:	f7ff fb7d 	bl	8002650 <HAL_GetTick>
 8002f56:	4602      	mov	r2, r0
 8002f58:	693b      	ldr	r3, [r7, #16]
 8002f5a:	1ad3      	subs	r3, r2, r3
 8002f5c:	2b02      	cmp	r3, #2
 8002f5e:	d901      	bls.n	8002f64 <HAL_RCC_OscConfig+0x240>
        {
          return HAL_TIMEOUT;
 8002f60:	2303      	movs	r3, #3
 8002f62:	e1e7      	b.n	8003334 <HAL_RCC_OscConfig+0x610>
      while (READ_BIT(RCC->CSR, RCC_CSR_LSIRDY) == 0U)
 8002f64:	4b0e      	ldr	r3, [pc, #56]	@ (8002fa0 <HAL_RCC_OscConfig+0x27c>)
 8002f66:	f8d3 3094 	ldr.w	r3, [r3, #148]	@ 0x94
 8002f6a:	f003 0302 	and.w	r3, r3, #2
 8002f6e:	2b00      	cmp	r3, #0
 8002f70:	d0ef      	beq.n	8002f52 <HAL_RCC_OscConfig+0x22e>
 8002f72:	e020      	b.n	8002fb6 <HAL_RCC_OscConfig+0x292>
      }
    }
    else
    {
      /* Disable the Internal Low Speed oscillator (LSI). */
      __HAL_RCC_LSI_DISABLE();
 8002f74:	4b0a      	ldr	r3, [pc, #40]	@ (8002fa0 <HAL_RCC_OscConfig+0x27c>)
 8002f76:	f8d3 3094 	ldr.w	r3, [r3, #148]	@ 0x94
 8002f7a:	4a09      	ldr	r2, [pc, #36]	@ (8002fa0 <HAL_RCC_OscConfig+0x27c>)
 8002f7c:	f023 0301 	bic.w	r3, r3, #1
 8002f80:	f8c2 3094 	str.w	r3, [r2, #148]	@ 0x94

      /* Get Start Tick*/
      tickstart = HAL_GetTick();
 8002f84:	f7ff fb64 	bl	8002650 <HAL_GetTick>
 8002f88:	6138      	str	r0, [r7, #16]

      /* Wait till LSI is disabled */
      while(READ_BIT(RCC->CSR, RCC_CSR_LSIRDY) != 0U)
 8002f8a:	e00d      	b.n	8002fa8 <HAL_RCC_OscConfig+0x284>
      {
        if((HAL_GetTick() - tickstart) > LSI_TIMEOUT_VALUE)
 8002f8c:	f7ff fb60 	bl	8002650 <HAL_GetTick>
 8002f90:	4602      	mov	r2, r0
 8002f92:	693b      	ldr	r3, [r7, #16]
 8002f94:	1ad3      	subs	r3, r2, r3
 8002f96:	2b02      	cmp	r3, #2
 8002f98:	d906      	bls.n	8002fa8 <HAL_RCC_OscConfig+0x284>
        {
          return HAL_TIMEOUT;
 8002f9a:	2303      	movs	r3, #3
 8002f9c:	e1ca      	b.n	8003334 <HAL_RCC_OscConfig+0x610>
 8002f9e:	bf00      	nop
 8002fa0:	40021000 	.word	0x40021000
 8002fa4:	20000004 	.word	0x20000004
      while(READ_BIT(RCC->CSR, RCC_CSR_LSIRDY) != 0U)
 8002fa8:	4b8c      	ldr	r3, [pc, #560]	@ (80031dc <HAL_RCC_OscConfig+0x4b8>)
 8002faa:	f8d3 3094 	ldr.w	r3, [r3, #148]	@ 0x94
 8002fae:	f003 0302 	and.w	r3, r3, #2
 8002fb2:	2b00      	cmp	r3, #0
 8002fb4:	d1ea      	bne.n	8002f8c <HAL_RCC_OscConfig+0x268>
        }
      }
    }
  }
  /*------------------------------ LSE Configuration -------------------------*/
  if (((RCC_OscInitStruct->OscillatorType) & RCC_OSCILLATORTYPE_LSE) == RCC_OSCILLATORTYPE_LSE)
 8002fb6:	687b      	ldr	r3, [r7, #4]
 8002fb8:	681b      	ldr	r3, [r3, #0]
 8002fba:	f003 0304 	and.w	r3, r3, #4
 8002fbe:	2b00      	cmp	r3, #0
 8002fc0:	f000 80a6 	beq.w	8003110 <HAL_RCC_OscConfig+0x3ec>
  {
    FlagStatus       pwrclkchanged = RESET;
 8002fc4:	2300      	movs	r3, #0
 8002fc6:	77fb      	strb	r3, [r7, #31]
    /* Check the parameters */
    assert_param(IS_RCC_LSE(RCC_OscInitStruct->LSEState));

    /* Update LSE configuration in Backup Domain control register    */
    /* Requires to enable write access to Backup Domain if necessary */
    if (__HAL_RCC_PWR_IS_CLK_DISABLED() != 0U)
 8002fc8:	4b84      	ldr	r3, [pc, #528]	@ (80031dc <HAL_RCC_OscConfig+0x4b8>)
 8002fca:	6d9b      	ldr	r3, [r3, #88]	@ 0x58
 8002fcc:	f003 5380 	and.w	r3, r3, #268435456	@ 0x10000000
 8002fd0:	2b00      	cmp	r3, #0
 8002fd2:	d101      	bne.n	8002fd8 <HAL_RCC_OscConfig+0x2b4>
 8002fd4:	2301      	movs	r3, #1
 8002fd6:	e000      	b.n	8002fda <HAL_RCC_OscConfig+0x2b6>
 8002fd8:	2300      	movs	r3, #0
 8002fda:	2b00      	cmp	r3, #0
 8002fdc:	d00d      	beq.n	8002ffa <HAL_RCC_OscConfig+0x2d6>
    {
      __HAL_RCC_PWR_CLK_ENABLE();
 8002fde:	4b7f      	ldr	r3, [pc, #508]	@ (80031dc <HAL_RCC_OscConfig+0x4b8>)
 8002fe0:	6d9b      	ldr	r3, [r3, #88]	@ 0x58
 8002fe2:	4a7e      	ldr	r2, [pc, #504]	@ (80031dc <HAL_RCC_OscConfig+0x4b8>)
 8002fe4:	f043 5380 	orr.w	r3, r3, #268435456	@ 0x10000000
 8002fe8:	6593      	str	r3, [r2, #88]	@ 0x58
 8002fea:	4b7c      	ldr	r3, [pc, #496]	@ (80031dc <HAL_RCC_OscConfig+0x4b8>)
 8002fec:	6d9b      	ldr	r3, [r3, #88]	@ 0x58
 8002fee:	f003 5380 	and.w	r3, r3, #268435456	@ 0x10000000
 8002ff2:	60fb      	str	r3, [r7, #12]
 8002ff4:	68fb      	ldr	r3, [r7, #12]
      pwrclkchanged = SET;
 8002ff6:	2301      	movs	r3, #1
 8002ff8:	77fb      	strb	r3, [r7, #31]
    }

    if (HAL_IS_BIT_CLR(PWR->CR1, PWR_CR1_DBP))
 8002ffa:	4b79      	ldr	r3, [pc, #484]	@ (80031e0 <HAL_RCC_OscConfig+0x4bc>)
 8002ffc:	681b      	ldr	r3, [r3, #0]
 8002ffe:	f403 7380 	and.w	r3, r3, #256	@ 0x100
 8003002:	2b00      	cmp	r3, #0
 8003004:	d118      	bne.n	8003038 <HAL_RCC_OscConfig+0x314>
    {
      /* Enable write access to Backup domain */
      SET_BIT(PWR->CR1, PWR_CR1_DBP);
 8003006:	4b76      	ldr	r3, [pc, #472]	@ (80031e0 <HAL_RCC_OscConfig+0x4bc>)
 8003008:	681b      	ldr	r3, [r3, #0]
 800300a:	4a75      	ldr	r2, [pc, #468]	@ (80031e0 <HAL_RCC_OscConfig+0x4bc>)
 800300c:	f443 7380 	orr.w	r3, r3, #256	@ 0x100
 8003010:	6013      	str	r3, [r2, #0]

      /* Wait for Backup domain Write protection disable */
      tickstart = HAL_GetTick();
 8003012:	f7ff fb1d 	bl	8002650 <HAL_GetTick>
 8003016:	6138      	str	r0, [r7, #16]

      while (HAL_IS_BIT_CLR(PWR->CR1, PWR_CR1_DBP))
 8003018:	e008      	b.n	800302c <HAL_RCC_OscConfig+0x308>
      {
        if ((HAL_GetTick() - tickstart) > RCC_DBP_TIMEOUT_VALUE)
 800301a:	f7ff fb19 	bl	8002650 <HAL_GetTick>
 800301e:	4602      	mov	r2, r0
 8003020:	693b      	ldr	r3, [r7, #16]
 8003022:	1ad3      	subs	r3, r2, r3
 8003024:	2b02      	cmp	r3, #2
 8003026:	d901      	bls.n	800302c <HAL_RCC_OscConfig+0x308>
        {
          return HAL_TIMEOUT;
 8003028:	2303      	movs	r3, #3
 800302a:	e183      	b.n	8003334 <HAL_RCC_OscConfig+0x610>
      while (HAL_IS_BIT_CLR(PWR->CR1, PWR_CR1_DBP))
 800302c:	4b6c      	ldr	r3, [pc, #432]	@ (80031e0 <HAL_RCC_OscConfig+0x4bc>)
 800302e:	681b      	ldr	r3, [r3, #0]
 8003030:	f403 7380 	and.w	r3, r3, #256	@ 0x100
 8003034:	2b00      	cmp	r3, #0
 8003036:	d0f0      	beq.n	800301a <HAL_RCC_OscConfig+0x2f6>
        }
      }
    }

    /* Set the new LSE configuration -----------------------------------------*/
    __HAL_RCC_LSE_CONFIG(RCC_OscInitStruct->LSEState);
 8003038:	687b      	ldr	r3, [r7, #4]
 800303a:	689b      	ldr	r3, [r3, #8]
 800303c:	2b01      	cmp	r3, #1
 800303e:	d108      	bne.n	8003052 <HAL_RCC_OscConfig+0x32e>
 8003040:	4b66      	ldr	r3, [pc, #408]	@ (80031dc <HAL_RCC_OscConfig+0x4b8>)
 8003042:	f8d3 3090 	ldr.w	r3, [r3, #144]	@ 0x90
 8003046:	4a65      	ldr	r2, [pc, #404]	@ (80031dc <HAL_RCC_OscConfig+0x4b8>)
 8003048:	f043 0301 	orr.w	r3, r3, #1
 800304c:	f8c2 3090 	str.w	r3, [r2, #144]	@ 0x90
 8003050:	e024      	b.n	800309c <HAL_RCC_OscConfig+0x378>
 8003052:	687b      	ldr	r3, [r7, #4]
 8003054:	689b      	ldr	r3, [r3, #8]
 8003056:	2b05      	cmp	r3, #5
 8003058:	d110      	bne.n	800307c <HAL_RCC_OscConfig+0x358>
 800305a:	4b60      	ldr	r3, [pc, #384]	@ (80031dc <HAL_RCC_OscConfig+0x4b8>)
 800305c:	f8d3 3090 	ldr.w	r3, [r3, #144]	@ 0x90
 8003060:	4a5e      	ldr	r2, [pc, #376]	@ (80031dc <HAL_RCC_OscConfig+0x4b8>)
 8003062:	f043 0304 	orr.w	r3, r3, #4
 8003066:	f8c2 3090 	str.w	r3, [r2, #144]	@ 0x90
 800306a:	4b5c      	ldr	r3, [pc, #368]	@ (80031dc <HAL_RCC_OscConfig+0x4b8>)
 800306c:	f8d3 3090 	ldr.w	r3, [r3, #144]	@ 0x90
 8003070:	4a5a      	ldr	r2, [pc, #360]	@ (80031dc <HAL_RCC_OscConfig+0x4b8>)
 8003072:	f043 0301 	orr.w	r3, r3, #1
 8003076:	f8c2 3090 	str.w	r3, [r2, #144]	@ 0x90
 800307a:	e00f      	b.n	800309c <HAL_RCC_OscConfig+0x378>
 800307c:	4b57      	ldr	r3, [pc, #348]	@ (80031dc <HAL_RCC_OscConfig+0x4b8>)
 800307e:	f8d3 3090 	ldr.w	r3, [r3, #144]	@ 0x90
 8003082:	4a56      	ldr	r2, [pc, #344]	@ (80031dc <HAL_RCC_OscConfig+0x4b8>)
 8003084:	f023 0301 	bic.w	r3, r3, #1
 8003088:	f8c2 3090 	str.w	r3, [r2, #144]	@ 0x90
 800308c:	4b53      	ldr	r3, [pc, #332]	@ (80031dc <HAL_RCC_OscConfig+0x4b8>)
 800308e:	f8d3 3090 	ldr.w	r3, [r3, #144]	@ 0x90
 8003092:	4a52      	ldr	r2, [pc, #328]	@ (80031dc <HAL_RCC_OscConfig+0x4b8>)
 8003094:	f023 0304 	bic.w	r3, r3, #4
 8003098:	f8c2 3090 	str.w	r3, [r2, #144]	@ 0x90

    /* Check the LSE State */
    if (RCC_OscInitStruct->LSEState != RCC_LSE_OFF)
 800309c:	687b      	ldr	r3, [r7, #4]
 800309e:	689b      	ldr	r3, [r3, #8]
 80030a0:	2b00      	cmp	r3, #0
 80030a2:	d016      	beq.n	80030d2 <HAL_RCC_OscConfig+0x3ae>
    {
      /* Get Start Tick*/
      tickstart = HAL_GetTick();
 80030a4:	f7ff fad4 	bl	8002650 <HAL_GetTick>
 80030a8:	6138      	str	r0, [r7, #16]

      /* Wait till LSE is ready */
      while (READ_BIT(RCC->BDCR, RCC_BDCR_LSERDY) == 0U)
 80030aa:	e00a      	b.n	80030c2 <HAL_RCC_OscConfig+0x39e>
      {
        if((HAL_GetTick() - tickstart) > RCC_LSE_TIMEOUT_VALUE)
 80030ac:	f7ff fad0 	bl	8002650 <HAL_GetTick>
 80030b0:	4602      	mov	r2, r0
 80030b2:	693b      	ldr	r3, [r7, #16]
 80030b4:	1ad3      	subs	r3, r2, r3
 80030b6:	f241 3288 	movw	r2, #5000	@ 0x1388
 80030ba:	4293      	cmp	r3, r2
 80030bc:	d901      	bls.n	80030c2 <HAL_RCC_OscConfig+0x39e>
        {
          return HAL_TIMEOUT;
 80030be:	2303      	movs	r3, #3
 80030c0:	e138      	b.n	8003334 <HAL_RCC_OscConfig+0x610>
      while (READ_BIT(RCC->BDCR, RCC_BDCR_LSERDY) == 0U)
 80030c2:	4b46      	ldr	r3, [pc, #280]	@ (80031dc <HAL_RCC_OscConfig+0x4b8>)
 80030c4:	f8d3 3090 	ldr.w	r3, [r3, #144]	@ 0x90
 80030c8:	f003 0302 	and.w	r3, r3, #2
 80030cc:	2b00      	cmp	r3, #0
 80030ce:	d0ed      	beq.n	80030ac <HAL_RCC_OscConfig+0x388>
 80030d0:	e015      	b.n	80030fe <HAL_RCC_OscConfig+0x3da>
      }
    }
    else
    {
      /* Get Start Tick*/
      tickstart = HAL_GetTick();
 80030d2:	f7ff fabd 	bl	8002650 <HAL_GetTick>
 80030d6:	6138      	str	r0, [r7, #16]

      /* Wait till LSE is disabled */
      while (READ_BIT(RCC->BDCR, RCC_BDCR_LSERDY) != 0U)
 80030d8:	e00a      	b.n	80030f0 <HAL_RCC_OscConfig+0x3cc>
      {
        if((HAL_GetTick() - tickstart) > RCC_LSE_TIMEOUT_VALUE)
 80030da:	f7ff fab9 	bl	8002650 <HAL_GetTick>
 80030de:	4602      	mov	r2, r0
 80030e0:	693b      	ldr	r3, [r7, #16]
 80030e2:	1ad3      	subs	r3, r2, r3
 80030e4:	f241 3288 	movw	r2, #5000	@ 0x1388
 80030e8:	4293      	cmp	r3, r2
 80030ea:	d901      	bls.n	80030f0 <HAL_RCC_OscConfig+0x3cc>
        {
          return HAL_TIMEOUT;
 80030ec:	2303      	movs	r3, #3
 80030ee:	e121      	b.n	8003334 <HAL_RCC_OscConfig+0x610>
      while (READ_BIT(RCC->BDCR, RCC_BDCR_LSERDY) != 0U)
 80030f0:	4b3a      	ldr	r3, [pc, #232]	@ (80031dc <HAL_RCC_OscConfig+0x4b8>)
 80030f2:	f8d3 3090 	ldr.w	r3, [r3, #144]	@ 0x90
 80030f6:	f003 0302 	and.w	r3, r3, #2
 80030fa:	2b00      	cmp	r3, #0
 80030fc:	d1ed      	bne.n	80030da <HAL_RCC_OscConfig+0x3b6>
        }
      }
    }

    /* Restore clock configuration if changed */
    if (pwrclkchanged == SET)
 80030fe:	7ffb      	ldrb	r3, [r7, #31]
 8003100:	2b01      	cmp	r3, #1
 8003102:	d105      	bne.n	8003110 <HAL_RCC_OscConfig+0x3ec>
    {
      __HAL_RCC_PWR_CLK_DISABLE();
 8003104:	4b35      	ldr	r3, [pc, #212]	@ (80031dc <HAL_RCC_OscConfig+0x4b8>)
 8003106:	6d9b      	ldr	r3, [r3, #88]	@ 0x58
 8003108:	4a34      	ldr	r2, [pc, #208]	@ (80031dc <HAL_RCC_OscConfig+0x4b8>)
 800310a:	f023 5380 	bic.w	r3, r3, #268435456	@ 0x10000000
 800310e:	6593      	str	r3, [r2, #88]	@ 0x58
    }
  }

  /*------------------------------ HSI48 Configuration -----------------------*/
  if(((RCC_OscInitStruct->OscillatorType) & RCC_OSCILLATORTYPE_HSI48) == RCC_OSCILLATORTYPE_HSI48)
 8003110:	687b      	ldr	r3, [r7, #4]
 8003112:	681b      	ldr	r3, [r3, #0]
 8003114:	f003 0320 	and.w	r3, r3, #32
 8003118:	2b00      	cmp	r3, #0
 800311a:	d03c      	beq.n	8003196 <HAL_RCC_OscConfig+0x472>
  {
    /* Check the parameters */
    assert_param(IS_RCC_HSI48(RCC_OscInitStruct->HSI48State));

    /* Check the HSI48 State */
    if(RCC_OscInitStruct->HSI48State != RCC_HSI48_OFF)
 800311c:	687b      	ldr	r3, [r7, #4]
 800311e:	699b      	ldr	r3, [r3, #24]
 8003120:	2b00      	cmp	r3, #0
 8003122:	d01c      	beq.n	800315e <HAL_RCC_OscConfig+0x43a>
    {
      /* Enable the Internal Low Speed oscillator (HSI48). */
      __HAL_RCC_HSI48_ENABLE();
 8003124:	4b2d      	ldr	r3, [pc, #180]	@ (80031dc <HAL_RCC_OscConfig+0x4b8>)
 8003126:	f8d3 3098 	ldr.w	r3, [r3, #152]	@ 0x98
 800312a:	4a2c      	ldr	r2, [pc, #176]	@ (80031dc <HAL_RCC_OscConfig+0x4b8>)
 800312c:	f043 0301 	orr.w	r3, r3, #1
 8003130:	f8c2 3098 	str.w	r3, [r2, #152]	@ 0x98

      /* Get Start Tick*/
      tickstart = HAL_GetTick();
 8003134:	f7ff fa8c 	bl	8002650 <HAL_GetTick>
 8003138:	6138      	str	r0, [r7, #16]

      /* Wait till HSI48 is ready */
      while(READ_BIT(RCC->CRRCR, RCC_CRRCR_HSI48RDY) == 0U)
 800313a:	e008      	b.n	800314e <HAL_RCC_OscConfig+0x42a>
      {
        if((HAL_GetTick() - tickstart) > HSI48_TIMEOUT_VALUE)
 800313c:	f7ff fa88 	bl	8002650 <HAL_GetTick>
 8003140:	4602      	mov	r2, r0
 8003142:	693b      	ldr	r3, [r7, #16]
 8003144:	1ad3      	subs	r3, r2, r3
 8003146:	2b02      	cmp	r3, #2
 8003148:	d901      	bls.n	800314e <HAL_RCC_OscConfig+0x42a>
        {
          return HAL_TIMEOUT;
 800314a:	2303      	movs	r3, #3
 800314c:	e0f2      	b.n	8003334 <HAL_RCC_OscConfig+0x610>
      while(READ_BIT(RCC->CRRCR, RCC_CRRCR_HSI48RDY) == 0U)
 800314e:	4b23      	ldr	r3, [pc, #140]	@ (80031dc <HAL_RCC_OscConfig+0x4b8>)
 8003150:	f8d3 3098 	ldr.w	r3, [r3, #152]	@ 0x98
 8003154:	f003 0302 	and.w	r3, r3, #2
 8003158:	2b00      	cmp	r3, #0
 800315a:	d0ef      	beq.n	800313c <HAL_RCC_OscConfig+0x418>
 800315c:	e01b      	b.n	8003196 <HAL_RCC_OscConfig+0x472>
      }
    }
    else
    {
      /* Disable the Internal Low Speed oscillator (HSI48). */
      __HAL_RCC_HSI48_DISABLE();
 800315e:	4b1f      	ldr	r3, [pc, #124]	@ (80031dc <HAL_RCC_OscConfig+0x4b8>)
 8003160:	f8d3 3098 	ldr.w	r3, [r3, #152]	@ 0x98
 8003164:	4a1d      	ldr	r2, [pc, #116]	@ (80031dc <HAL_RCC_OscConfig+0x4b8>)
 8003166:	f023 0301 	bic.w	r3, r3, #1
 800316a:	f8c2 3098 	str.w	r3, [r2, #152]	@ 0x98

      /* Get Start Tick*/
      tickstart = HAL_GetTick();
 800316e:	f7ff fa6f 	bl	8002650 <HAL_GetTick>
 8003172:	6138      	str	r0, [r7, #16]

      /* Wait till HSI48 is disabled */
      while(READ_BIT(RCC->CRRCR, RCC_CRRCR_HSI48RDY) != 0U)
 8003174:	e008      	b.n	8003188 <HAL_RCC_OscConfig+0x464>
      {
        if((HAL_GetTick() - tickstart) > HSI48_TIMEOUT_VALUE)
 8003176:	f7ff fa6b 	bl	8002650 <HAL_GetTick>
 800317a:	4602      	mov	r2, r0
 800317c:	693b      	ldr	r3, [r7, #16]
 800317e:	1ad3      	subs	r3, r2, r3
 8003180:	2b02      	cmp	r3, #2
 8003182:	d901      	bls.n	8003188 <HAL_RCC_OscConfig+0x464>
        {
          return HAL_TIMEOUT;
 8003184:	2303      	movs	r3, #3
 8003186:	e0d5      	b.n	8003334 <HAL_RCC_OscConfig+0x610>
      while(READ_BIT(RCC->CRRCR, RCC_CRRCR_HSI48RDY) != 0U)
 8003188:	4b14      	ldr	r3, [pc, #80]	@ (80031dc <HAL_RCC_OscConfig+0x4b8>)
 800318a:	f8d3 3098 	ldr.w	r3, [r3, #152]	@ 0x98
 800318e:	f003 0302 	and.w	r3, r3, #2
 8003192:	2b00      	cmp	r3, #0
 8003194:	d1ef      	bne.n	8003176 <HAL_RCC_OscConfig+0x452>

  /*-------------------------------- PLL Configuration -----------------------*/
  /* Check the parameters */
  assert_param(IS_RCC_PLL(RCC_OscInitStruct->PLL.PLLState));

  if (RCC_OscInitStruct->PLL.PLLState != RCC_PLL_NONE)
 8003196:	687b      	ldr	r3, [r7, #4]
 8003198:	69db      	ldr	r3, [r3, #28]
 800319a:	2b00      	cmp	r3, #0
 800319c:	f000 80c9 	beq.w	8003332 <HAL_RCC_OscConfig+0x60e>
  {
    /* Check if the PLL is used as system clock or not */
    if (__HAL_RCC_GET_SYSCLK_SOURCE() != RCC_CFGR_SWS_PLL)
 80031a0:	4b0e      	ldr	r3, [pc, #56]	@ (80031dc <HAL_RCC_OscConfig+0x4b8>)
 80031a2:	689b      	ldr	r3, [r3, #8]
 80031a4:	f003 030c 	and.w	r3, r3, #12
 80031a8:	2b0c      	cmp	r3, #12
 80031aa:	f000 8083 	beq.w	80032b4 <HAL_RCC_OscConfig+0x590>
    {
      if (RCC_OscInitStruct->PLL.PLLState == RCC_PLL_ON)
 80031ae:	687b      	ldr	r3, [r7, #4]
 80031b0:	69db      	ldr	r3, [r3, #28]
 80031b2:	2b02      	cmp	r3, #2
 80031b4:	d15e      	bne.n	8003274 <HAL_RCC_OscConfig+0x550>
        assert_param(IS_RCC_PLLP_VALUE(RCC_OscInitStruct->PLL.PLLP));
        assert_param(IS_RCC_PLLQ_VALUE(RCC_OscInitStruct->PLL.PLLQ));
        assert_param(IS_RCC_PLLR_VALUE(RCC_OscInitStruct->PLL.PLLR));

        /* Disable the main PLL. */
        __HAL_RCC_PLL_DISABLE();
 80031b6:	4b09      	ldr	r3, [pc, #36]	@ (80031dc <HAL_RCC_OscConfig+0x4b8>)
 80031b8:	681b      	ldr	r3, [r3, #0]
 80031ba:	4a08      	ldr	r2, [pc, #32]	@ (80031dc <HAL_RCC_OscConfig+0x4b8>)
 80031bc:	f023 7380 	bic.w	r3, r3, #16777216	@ 0x1000000
 80031c0:	6013      	str	r3, [r2, #0]

        /* Get Start Tick*/
        tickstart = HAL_GetTick();
 80031c2:	f7ff fa45 	bl	8002650 <HAL_GetTick>
 80031c6:	6138      	str	r0, [r7, #16]

        /* Wait till PLL is disabled */
        while (READ_BIT(RCC->CR, RCC_CR_PLLRDY) != 0U)
 80031c8:	e00c      	b.n	80031e4 <HAL_RCC_OscConfig+0x4c0>
        {
          if ((HAL_GetTick() - tickstart) > PLL_TIMEOUT_VALUE)
 80031ca:	f7ff fa41 	bl	8002650 <HAL_GetTick>
 80031ce:	4602      	mov	r2, r0
 80031d0:	693b      	ldr	r3, [r7, #16]
 80031d2:	1ad3      	subs	r3, r2, r3
 80031d4:	2b02      	cmp	r3, #2
 80031d6:	d905      	bls.n	80031e4 <HAL_RCC_OscConfig+0x4c0>
          {
            return HAL_TIMEOUT;
 80031d8:	2303      	movs	r3, #3
 80031da:	e0ab      	b.n	8003334 <HAL_RCC_OscConfig+0x610>
 80031dc:	40021000 	.word	0x40021000
 80031e0:	40007000 	.word	0x40007000
        while (READ_BIT(RCC->CR, RCC_CR_PLLRDY) != 0U)
 80031e4:	4b55      	ldr	r3, [pc, #340]	@ (800333c <HAL_RCC_OscConfig+0x618>)
 80031e6:	681b      	ldr	r3, [r3, #0]
 80031e8:	f003 7300 	and.w	r3, r3, #33554432	@ 0x2000000
 80031ec:	2b00      	cmp	r3, #0
 80031ee:	d1ec      	bne.n	80031ca <HAL_RCC_OscConfig+0x4a6>
          }
        }

        /* Configure the main PLL clock source, multiplication and division factors. */
        __HAL_RCC_PLL_CONFIG(RCC_OscInitStruct->PLL.PLLSource,
 80031f0:	4b52      	ldr	r3, [pc, #328]	@ (800333c <HAL_RCC_OscConfig+0x618>)
 80031f2:	68da      	ldr	r2, [r3, #12]
 80031f4:	4b52      	ldr	r3, [pc, #328]	@ (8003340 <HAL_RCC_OscConfig+0x61c>)
 80031f6:	4013      	ands	r3, r2
 80031f8:	687a      	ldr	r2, [r7, #4]
 80031fa:	6a11      	ldr	r1, [r2, #32]
 80031fc:	687a      	ldr	r2, [r7, #4]
 80031fe:	6a52      	ldr	r2, [r2, #36]	@ 0x24
 8003200:	3a01      	subs	r2, #1
 8003202:	0112      	lsls	r2, r2, #4
 8003204:	4311      	orrs	r1, r2
 8003206:	687a      	ldr	r2, [r7, #4]
 8003208:	6a92      	ldr	r2, [r2, #40]	@ 0x28
 800320a:	0212      	lsls	r2, r2, #8
 800320c:	4311      	orrs	r1, r2
 800320e:	687a      	ldr	r2, [r7, #4]
 8003210:	6b12      	ldr	r2, [r2, #48]	@ 0x30
 8003212:	0852      	lsrs	r2, r2, #1
 8003214:	3a01      	subs	r2, #1
 8003216:	0552      	lsls	r2, r2, #21
 8003218:	4311      	orrs	r1, r2
 800321a:	687a      	ldr	r2, [r7, #4]
 800321c:	6b52      	ldr	r2, [r2, #52]	@ 0x34
 800321e:	0852      	lsrs	r2, r2, #1
 8003220:	3a01      	subs	r2, #1
 8003222:	0652      	lsls	r2, r2, #25
 8003224:	4311      	orrs	r1, r2
 8003226:	687a      	ldr	r2, [r7, #4]
 8003228:	6ad2      	ldr	r2, [r2, #44]	@ 0x2c
 800322a:	06d2      	lsls	r2, r2, #27
 800322c:	430a      	orrs	r2, r1
 800322e:	4943      	ldr	r1, [pc, #268]	@ (800333c <HAL_RCC_OscConfig+0x618>)
 8003230:	4313      	orrs	r3, r2
 8003232:	60cb      	str	r3, [r1, #12]
                             RCC_OscInitStruct->PLL.PLLP,
                             RCC_OscInitStruct->PLL.PLLQ,
                             RCC_OscInitStruct->PLL.PLLR);

        /* Enable the main PLL. */
        __HAL_RCC_PLL_ENABLE();
 8003234:	4b41      	ldr	r3, [pc, #260]	@ (800333c <HAL_RCC_OscConfig+0x618>)
 8003236:	681b      	ldr	r3, [r3, #0]
 8003238:	4a40      	ldr	r2, [pc, #256]	@ (800333c <HAL_RCC_OscConfig+0x618>)
 800323a:	f043 7380 	orr.w	r3, r3, #16777216	@ 0x1000000
 800323e:	6013      	str	r3, [r2, #0]

        /* Enable PLL System Clock output. */
         __HAL_RCC_PLLCLKOUT_ENABLE(RCC_PLL_SYSCLK);
 8003240:	4b3e      	ldr	r3, [pc, #248]	@ (800333c <HAL_RCC_OscConfig+0x618>)
 8003242:	68db      	ldr	r3, [r3, #12]
 8003244:	4a3d      	ldr	r2, [pc, #244]	@ (800333c <HAL_RCC_OscConfig+0x618>)
 8003246:	f043 7380 	orr.w	r3, r3, #16777216	@ 0x1000000
 800324a:	60d3      	str	r3, [r2, #12]

        /* Get Start Tick*/
        tickstart = HAL_GetTick();
 800324c:	f7ff fa00 	bl	8002650 <HAL_GetTick>
 8003250:	6138      	str	r0, [r7, #16]

        /* Wait till PLL is ready */
        while (READ_BIT(RCC->CR, RCC_CR_PLLRDY) == 0U)
 8003252:	e008      	b.n	8003266 <HAL_RCC_OscConfig+0x542>
        {
          if ((HAL_GetTick() - tickstart) > PLL_TIMEOUT_VALUE)
 8003254:	f7ff f9fc 	bl	8002650 <HAL_GetTick>
 8003258:	4602      	mov	r2, r0
 800325a:	693b      	ldr	r3, [r7, #16]
 800325c:	1ad3      	subs	r3, r2, r3
 800325e:	2b02      	cmp	r3, #2
 8003260:	d901      	bls.n	8003266 <HAL_RCC_OscConfig+0x542>
          {
            return HAL_TIMEOUT;
 8003262:	2303      	movs	r3, #3
 8003264:	e066      	b.n	8003334 <HAL_RCC_OscConfig+0x610>
        while (READ_BIT(RCC->CR, RCC_CR_PLLRDY) == 0U)
 8003266:	4b35      	ldr	r3, [pc, #212]	@ (800333c <HAL_RCC_OscConfig+0x618>)
 8003268:	681b      	ldr	r3, [r3, #0]
 800326a:	f003 7300 	and.w	r3, r3, #33554432	@ 0x2000000
 800326e:	2b00      	cmp	r3, #0
 8003270:	d0f0      	beq.n	8003254 <HAL_RCC_OscConfig+0x530>
 8003272:	e05e      	b.n	8003332 <HAL_RCC_OscConfig+0x60e>
        }
      }
      else
      {
        /* Disable the main PLL. */
        __HAL_RCC_PLL_DISABLE();
 8003274:	4b31      	ldr	r3, [pc, #196]	@ (800333c <HAL_RCC_OscConfig+0x618>)
 8003276:	681b      	ldr	r3, [r3, #0]
 8003278:	4a30      	ldr	r2, [pc, #192]	@ (800333c <HAL_RCC_OscConfig+0x618>)
 800327a:	f023 7380 	bic.w	r3, r3, #16777216	@ 0x1000000
 800327e:	6013      	str	r3, [r2, #0]

        /* Get Start Tick*/
        tickstart = HAL_GetTick();
 8003280:	f7ff f9e6 	bl	8002650 <HAL_GetTick>
 8003284:	6138      	str	r0, [r7, #16]

        /* Wait till PLL is disabled */
        while (READ_BIT(RCC->CR, RCC_CR_PLLRDY) != 0U)
 8003286:	e008      	b.n	800329a <HAL_RCC_OscConfig+0x576>
        {
          if ((HAL_GetTick() - tickstart) > PLL_TIMEOUT_VALUE)
 8003288:	f7ff f9e2 	bl	8002650 <HAL_GetTick>
 800328c:	4602      	mov	r2, r0
 800328e:	693b      	ldr	r3, [r7, #16]
 8003290:	1ad3      	subs	r3, r2, r3
 8003292:	2b02      	cmp	r3, #2
 8003294:	d901      	bls.n	800329a <HAL_RCC_OscConfig+0x576>
          {
            return HAL_TIMEOUT;
 8003296:	2303      	movs	r3, #3
 8003298:	e04c      	b.n	8003334 <HAL_RCC_OscConfig+0x610>
        while (READ_BIT(RCC->CR, RCC_CR_PLLRDY) != 0U)
 800329a:	4b28      	ldr	r3, [pc, #160]	@ (800333c <HAL_RCC_OscConfig+0x618>)
 800329c:	681b      	ldr	r3, [r3, #0]
 800329e:	f003 7300 	and.w	r3, r3, #33554432	@ 0x2000000
 80032a2:	2b00      	cmp	r3, #0
 80032a4:	d1f0      	bne.n	8003288 <HAL_RCC_OscConfig+0x564>
          }
        }

        /* Unselect PLL clock source and disable outputs to save power */
        RCC->PLLCFGR &= ~(RCC_PLLCFGR_PLLSRC | RCC_PLL_SYSCLK | RCC_PLL_48M1CLK | RCC_PLL_ADCCLK);
 80032a6:	4b25      	ldr	r3, [pc, #148]	@ (800333c <HAL_RCC_OscConfig+0x618>)
 80032a8:	68da      	ldr	r2, [r3, #12]
 80032aa:	4924      	ldr	r1, [pc, #144]	@ (800333c <HAL_RCC_OscConfig+0x618>)
 80032ac:	4b25      	ldr	r3, [pc, #148]	@ (8003344 <HAL_RCC_OscConfig+0x620>)
 80032ae:	4013      	ands	r3, r2
 80032b0:	60cb      	str	r3, [r1, #12]
 80032b2:	e03e      	b.n	8003332 <HAL_RCC_OscConfig+0x60e>
      }
    }
    else
    {
      /* Check if there is a request to disable the PLL used as System clock source */
      if((RCC_OscInitStruct->PLL.PLLState) == RCC_PLL_OFF)
 80032b4:	687b      	ldr	r3, [r7, #4]
 80032b6:	69db      	ldr	r3, [r3, #28]
 80032b8:	2b01      	cmp	r3, #1
 80032ba:	d101      	bne.n	80032c0 <HAL_RCC_OscConfig+0x59c>
      {
        return HAL_ERROR;
 80032bc:	2301      	movs	r3, #1
 80032be:	e039      	b.n	8003334 <HAL_RCC_OscConfig+0x610>
      }
      else
      {
      /* Do not return HAL_ERROR if request repeats the current configuration */
      temp_pllckcfg = RCC->PLLCFGR;
 80032c0:	4b1e      	ldr	r3, [pc, #120]	@ (800333c <HAL_RCC_OscConfig+0x618>)
 80032c2:	68db      	ldr	r3, [r3, #12]
 80032c4:	617b      	str	r3, [r7, #20]
      if((READ_BIT(temp_pllckcfg, RCC_PLLCFGR_PLLSRC) != RCC_OscInitStruct->PLL.PLLSource) ||
 80032c6:	697b      	ldr	r3, [r7, #20]
 80032c8:	f003 0203 	and.w	r2, r3, #3
 80032cc:	687b      	ldr	r3, [r7, #4]
 80032ce:	6a1b      	ldr	r3, [r3, #32]
 80032d0:	429a      	cmp	r2, r3
 80032d2:	d12c      	bne.n	800332e <HAL_RCC_OscConfig+0x60a>
         (READ_BIT(temp_pllckcfg, RCC_PLLCFGR_PLLM) != (((RCC_OscInitStruct->PLL.PLLM) - 1U) << RCC_PLLCFGR_PLLM_Pos)) ||
 80032d4:	697b      	ldr	r3, [r7, #20]
 80032d6:	f003 02f0 	and.w	r2, r3, #240	@ 0xf0
 80032da:	687b      	ldr	r3, [r7, #4]
 80032dc:	6a5b      	ldr	r3, [r3, #36]	@ 0x24
 80032de:	3b01      	subs	r3, #1
 80032e0:	011b      	lsls	r3, r3, #4
      if((READ_BIT(temp_pllckcfg, RCC_PLLCFGR_PLLSRC) != RCC_OscInitStruct->PLL.PLLSource) ||
 80032e2:	429a      	cmp	r2, r3
 80032e4:	d123      	bne.n	800332e <HAL_RCC_OscConfig+0x60a>
         (READ_BIT(temp_pllckcfg, RCC_PLLCFGR_PLLN) != ((RCC_OscInitStruct->PLL.PLLN) << RCC_PLLCFGR_PLLN_Pos)) ||
 80032e6:	697b      	ldr	r3, [r7, #20]
 80032e8:	f403 42fe 	and.w	r2, r3, #32512	@ 0x7f00
 80032ec:	687b      	ldr	r3, [r7, #4]
 80032ee:	6a9b      	ldr	r3, [r3, #40]	@ 0x28
 80032f0:	021b      	lsls	r3, r3, #8
         (READ_BIT(temp_pllckcfg, RCC_PLLCFGR_PLLM) != (((RCC_OscInitStruct->PLL.PLLM) - 1U) << RCC_PLLCFGR_PLLM_Pos)) ||
 80032f2:	429a      	cmp	r2, r3
 80032f4:	d11b      	bne.n	800332e <HAL_RCC_OscConfig+0x60a>
         (READ_BIT(temp_pllckcfg, RCC_PLLCFGR_PLLPDIV) != ((RCC_OscInitStruct->PLL.PLLP) << RCC_PLLCFGR_PLLPDIV_Pos)) ||
 80032f6:	697b      	ldr	r3, [r7, #20]
 80032f8:	f003 4278 	and.w	r2, r3, #4160749568	@ 0xf8000000
 80032fc:	687b      	ldr	r3, [r7, #4]
 80032fe:	6adb      	ldr	r3, [r3, #44]	@ 0x2c
 8003300:	06db      	lsls	r3, r3, #27
         (READ_BIT(temp_pllckcfg, RCC_PLLCFGR_PLLN) != ((RCC_OscInitStruct->PLL.PLLN) << RCC_PLLCFGR_PLLN_Pos)) ||
 8003302:	429a      	cmp	r2, r3
 8003304:	d113      	bne.n	800332e <HAL_RCC_OscConfig+0x60a>
         (READ_BIT(temp_pllckcfg, RCC_PLLCFGR_PLLQ) != ((((RCC_OscInitStruct->PLL.PLLQ) >> 1U) - 1U) << RCC_PLLCFGR_PLLQ_Pos)) ||
 8003306:	697b      	ldr	r3, [r7, #20]
 8003308:	f403 02c0 	and.w	r2, r3, #6291456	@ 0x600000
 800330c:	687b      	ldr	r3, [r7, #4]
 800330e:	6b1b      	ldr	r3, [r3, #48]	@ 0x30
 8003310:	085b      	lsrs	r3, r3, #1
 8003312:	3b01      	subs	r3, #1
 8003314:	055b      	lsls	r3, r3, #21
         (READ_BIT(temp_pllckcfg, RCC_PLLCFGR_PLLPDIV) != ((RCC_OscInitStruct->PLL.PLLP) << RCC_PLLCFGR_PLLPDIV_Pos)) ||
 8003316:	429a      	cmp	r2, r3
 8003318:	d109      	bne.n	800332e <HAL_RCC_OscConfig+0x60a>
         (READ_BIT(temp_pllckcfg, RCC_PLLCFGR_PLLR) != ((((RCC_OscInitStruct->PLL.PLLR) >> 1U) - 1U) << RCC_PLLCFGR_PLLR_Pos)))
 800331a:	697b      	ldr	r3, [r7, #20]
 800331c:	f003 62c0 	and.w	r2, r3, #100663296	@ 0x6000000
 8003320:	687b      	ldr	r3, [r7, #4]
 8003322:	6b5b      	ldr	r3, [r3, #52]	@ 0x34
 8003324:	085b      	lsrs	r3, r3, #1
 8003326:	3b01      	subs	r3, #1
 8003328:	065b      	lsls	r3, r3, #25
         (READ_BIT(temp_pllckcfg, RCC_PLLCFGR_PLLQ) != ((((RCC_OscInitStruct->PLL.PLLQ) >> 1U) - 1U) << RCC_PLLCFGR_PLLQ_Pos)) ||
 800332a:	429a      	cmp	r2, r3
 800332c:	d001      	beq.n	8003332 <HAL_RCC_OscConfig+0x60e>
      {
        return HAL_ERROR;
 800332e:	2301      	movs	r3, #1
 8003330:	e000      	b.n	8003334 <HAL_RCC_OscConfig+0x610>
      }
    }
  }
  }

  return HAL_OK;
 8003332:	2300      	movs	r3, #0
}
 8003334:	4618      	mov	r0, r3
 8003336:	3720      	adds	r7, #32
 8003338:	46bd      	mov	sp, r7
 800333a:	bd80      	pop	{r7, pc}
 800333c:	40021000 	.word	0x40021000
 8003340:	019f800c 	.word	0x019f800c
 8003344:	feeefffc 	.word	0xfeeefffc

08003348 <HAL_RCC_ClockConfig>:
  *         HPRE[3:0] bits to ensure that HCLK not exceed the maximum allowed frequency
  *         (for more details refer to section above "Initialization/de-initialization functions")
  * @retval None
  */
HAL_StatusTypeDef HAL_RCC_ClockConfig(const RCC_ClkInitTypeDef  *RCC_ClkInitStruct, uint32_t FLatency)
{
 8003348:	b580      	push	{r7, lr}
 800334a:	b086      	sub	sp, #24
 800334c:	af00      	add	r7, sp, #0
 800334e:	6078      	str	r0, [r7, #4]
 8003350:	6039      	str	r1, [r7, #0]
  uint32_t tickstart;
  uint32_t pllfreq;
  uint32_t hpre = RCC_SYSCLK_DIV1;
 8003352:	2300      	movs	r3, #0
 8003354:	617b      	str	r3, [r7, #20]

  /* Check Null pointer */
  if (RCC_ClkInitStruct == NULL)
 8003356:	687b      	ldr	r3, [r7, #4]
 8003358:	2b00      	cmp	r3, #0
 800335a:	d101      	bne.n	8003360 <HAL_RCC_ClockConfig+0x18>
  {
    return HAL_ERROR;
 800335c:	2301      	movs	r3, #1
 800335e:	e11e      	b.n	800359e <HAL_RCC_ClockConfig+0x256>
  /* To correctly read data from FLASH memory, the number of wait states (LATENCY)
    must be correctly programmed according to the frequency of the CPU clock
    (HCLK) and the supply voltage of the device. */

  /* Increasing the number of wait states because of higher CPU frequency */
  if (FLatency > __HAL_FLASH_GET_LATENCY())
 8003360:	4b91      	ldr	r3, [pc, #580]	@ (80035a8 <HAL_RCC_ClockConfig+0x260>)
 8003362:	681b      	ldr	r3, [r3, #0]
 8003364:	f003 030f 	and.w	r3, r3, #15
 8003368:	683a      	ldr	r2, [r7, #0]
 800336a:	429a      	cmp	r2, r3
 800336c:	d910      	bls.n	8003390 <HAL_RCC_ClockConfig+0x48>
  {
    /* Program the new number of wait states to the LATENCY bits in the FLASH_ACR register */
    __HAL_FLASH_SET_LATENCY(FLatency);
 800336e:	4b8e      	ldr	r3, [pc, #568]	@ (80035a8 <HAL_RCC_ClockConfig+0x260>)
 8003370:	681b      	ldr	r3, [r3, #0]
 8003372:	f023 020f 	bic.w	r2, r3, #15
 8003376:	498c      	ldr	r1, [pc, #560]	@ (80035a8 <HAL_RCC_ClockConfig+0x260>)
 8003378:	683b      	ldr	r3, [r7, #0]
 800337a:	4313      	orrs	r3, r2
 800337c:	600b      	str	r3, [r1, #0]

    /* Check that the new number of wait states is taken into account to access the Flash
    memory by reading the FLASH_ACR register */
    if (__HAL_FLASH_GET_LATENCY() != FLatency)
 800337e:	4b8a      	ldr	r3, [pc, #552]	@ (80035a8 <HAL_RCC_ClockConfig+0x260>)
 8003380:	681b      	ldr	r3, [r3, #0]
 8003382:	f003 030f 	and.w	r3, r3, #15
 8003386:	683a      	ldr	r2, [r7, #0]
 8003388:	429a      	cmp	r2, r3
 800338a:	d001      	beq.n	8003390 <HAL_RCC_ClockConfig+0x48>
    {
      return HAL_ERROR;
 800338c:	2301      	movs	r3, #1
 800338e:	e106      	b.n	800359e <HAL_RCC_ClockConfig+0x256>
    }
  }

  /*------------------------- SYSCLK Configuration ---------------------------*/
  if(((RCC_ClkInitStruct->ClockType) & RCC_CLOCKTYPE_SYSCLK) == RCC_CLOCKTYPE_SYSCLK)
 8003390:	687b      	ldr	r3, [r7, #4]
 8003392:	681b      	ldr	r3, [r3, #0]
 8003394:	f003 0301 	and.w	r3, r3, #1
 8003398:	2b00      	cmp	r3, #0
 800339a:	d073      	beq.n	8003484 <HAL_RCC_ClockConfig+0x13c>
  {
    assert_param(IS_RCC_SYSCLKSOURCE(RCC_ClkInitStruct->SYSCLKSource));

    /* PLL is selected as System Clock Source */
    if (RCC_ClkInitStruct->SYSCLKSource == RCC_SYSCLKSOURCE_PLLCLK)
 800339c:	687b      	ldr	r3, [r7, #4]
 800339e:	685b      	ldr	r3, [r3, #4]
 80033a0:	2b03      	cmp	r3, #3
 80033a2:	d129      	bne.n	80033f8 <HAL_RCC_ClockConfig+0xb0>
    {
      /* Check the PLL ready flag */
      if (READ_BIT(RCC->CR, RCC_CR_PLLRDY) == 0U)
 80033a4:	4b81      	ldr	r3, [pc, #516]	@ (80035ac <HAL_RCC_ClockConfig+0x264>)
 80033a6:	681b      	ldr	r3, [r3, #0]
 80033a8:	f003 7300 	and.w	r3, r3, #33554432	@ 0x2000000
 80033ac:	2b00      	cmp	r3, #0
 80033ae:	d101      	bne.n	80033b4 <HAL_RCC_ClockConfig+0x6c>
      {
        return HAL_ERROR;
 80033b0:	2301      	movs	r3, #1
 80033b2:	e0f4      	b.n	800359e <HAL_RCC_ClockConfig+0x256>
      }
      /* Undershoot management when selection PLL as SYSCLK source and frequency above 80Mhz */
      /* Compute target PLL output frequency */
      pllfreq = RCC_GetSysClockFreqFromPLLSource();
 80033b4:	f000 f966 	bl	8003684 <RCC_GetSysClockFreqFromPLLSource>
 80033b8:	6138      	str	r0, [r7, #16]

      /* Intermediate step with HCLK prescaler 2 necessary before to go over 80Mhz */
      if(pllfreq > 80000000U)
 80033ba:	693b      	ldr	r3, [r7, #16]
 80033bc:	4a7c      	ldr	r2, [pc, #496]	@ (80035b0 <HAL_RCC_ClockConfig+0x268>)
 80033be:	4293      	cmp	r3, r2
 80033c0:	d93f      	bls.n	8003442 <HAL_RCC_ClockConfig+0xfa>
      {
        if (((READ_BIT(RCC->CFGR, RCC_CFGR_HPRE) == RCC_SYSCLK_DIV1)) ||
 80033c2:	4b7a      	ldr	r3, [pc, #488]	@ (80035ac <HAL_RCC_ClockConfig+0x264>)
 80033c4:	689b      	ldr	r3, [r3, #8]
 80033c6:	f003 03f0 	and.w	r3, r3, #240	@ 0xf0
 80033ca:	2b00      	cmp	r3, #0
 80033cc:	d009      	beq.n	80033e2 <HAL_RCC_ClockConfig+0x9a>
            (((((RCC_ClkInitStruct->ClockType) & RCC_CLOCKTYPE_HCLK) == RCC_CLOCKTYPE_HCLK) &&
 80033ce:	687b      	ldr	r3, [r7, #4]
 80033d0:	681b      	ldr	r3, [r3, #0]
 80033d2:	f003 0302 	and.w	r3, r3, #2
        if (((READ_BIT(RCC->CFGR, RCC_CFGR_HPRE) == RCC_SYSCLK_DIV1)) ||
 80033d6:	2b00      	cmp	r3, #0
 80033d8:	d033      	beq.n	8003442 <HAL_RCC_ClockConfig+0xfa>
              (RCC_ClkInitStruct->AHBCLKDivider == RCC_SYSCLK_DIV1))))
 80033da:	687b      	ldr	r3, [r7, #4]
 80033dc:	689b      	ldr	r3, [r3, #8]
            (((((RCC_ClkInitStruct->ClockType) & RCC_CLOCKTYPE_HCLK) == RCC_CLOCKTYPE_HCLK) &&
 80033de:	2b00      	cmp	r3, #0
 80033e0:	d12f      	bne.n	8003442 <HAL_RCC_ClockConfig+0xfa>
        {
          MODIFY_REG(RCC->CFGR, RCC_CFGR_HPRE, RCC_SYSCLK_DIV2);
 80033e2:	4b72      	ldr	r3, [pc, #456]	@ (80035ac <HAL_RCC_ClockConfig+0x264>)
 80033e4:	689b      	ldr	r3, [r3, #8]
 80033e6:	f023 03f0 	bic.w	r3, r3, #240	@ 0xf0
 80033ea:	4a70      	ldr	r2, [pc, #448]	@ (80035ac <HAL_RCC_ClockConfig+0x264>)
 80033ec:	f043 0380 	orr.w	r3, r3, #128	@ 0x80
 80033f0:	6093      	str	r3, [r2, #8]
          hpre = RCC_SYSCLK_DIV2;
 80033f2:	2380      	movs	r3, #128	@ 0x80
 80033f4:	617b      	str	r3, [r7, #20]
 80033f6:	e024      	b.n	8003442 <HAL_RCC_ClockConfig+0xfa>
      }
    }
    else
    {
      /* HSE is selected as System Clock Source */
      if (RCC_ClkInitStruct->SYSCLKSource == RCC_SYSCLKSOURCE_HSE)
 80033f8:	687b      	ldr	r3, [r7, #4]
 80033fa:	685b      	ldr	r3, [r3, #4]
 80033fc:	2b02      	cmp	r3, #2
 80033fe:	d107      	bne.n	8003410 <HAL_RCC_ClockConfig+0xc8>
      {
        /* Check the HSE ready flag */
        if(READ_BIT(RCC->CR, RCC_CR_HSERDY) == 0U)
 8003400:	4b6a      	ldr	r3, [pc, #424]	@ (80035ac <HAL_RCC_ClockConfig+0x264>)
 8003402:	681b      	ldr	r3, [r3, #0]
 8003404:	f403 3300 	and.w	r3, r3, #131072	@ 0x20000
 8003408:	2b00      	cmp	r3, #0
 800340a:	d109      	bne.n	8003420 <HAL_RCC_ClockConfig+0xd8>
        {
          return HAL_ERROR;
 800340c:	2301      	movs	r3, #1
 800340e:	e0c6      	b.n	800359e <HAL_RCC_ClockConfig+0x256>
      }
      /* HSI is selected as System Clock Source */
      else
      {
        /* Check the HSI ready flag */
        if(READ_BIT(RCC->CR, RCC_CR_HSIRDY) == 0U)
 8003410:	4b66      	ldr	r3, [pc, #408]	@ (80035ac <HAL_RCC_ClockConfig+0x264>)
 8003412:	681b      	ldr	r3, [r3, #0]
 8003414:	f403 6380 	and.w	r3, r3, #1024	@ 0x400
 8003418:	2b00      	cmp	r3, #0
 800341a:	d101      	bne.n	8003420 <HAL_RCC_ClockConfig+0xd8>
        {
          return HAL_ERROR;
 800341c:	2301      	movs	r3, #1
 800341e:	e0be      	b.n	800359e <HAL_RCC_ClockConfig+0x256>
        }
      }
      /* Overshoot management when going down from PLL as SYSCLK source and frequency above 80Mhz */
      pllfreq = HAL_RCC_GetSysClockFreq();
 8003420:	f000 f8ce 	bl	80035c0 <HAL_RCC_GetSysClockFreq>
 8003424:	6138      	str	r0, [r7, #16]

      /* Intermediate step with HCLK prescaler 2 necessary before to go under 80Mhz */
      if(pllfreq > 80000000U)
 8003426:	693b      	ldr	r3, [r7, #16]
 8003428:	4a61      	ldr	r2, [pc, #388]	@ (80035b0 <HAL_RCC_ClockConfig+0x268>)
 800342a:	4293      	cmp	r3, r2
 800342c:	d909      	bls.n	8003442 <HAL_RCC_ClockConfig+0xfa>
      {
        MODIFY_REG(RCC->CFGR, RCC_CFGR_HPRE, RCC_SYSCLK_DIV2);
 800342e:	4b5f      	ldr	r3, [pc, #380]	@ (80035ac <HAL_RCC_ClockConfig+0x264>)
 8003430:	689b      	ldr	r3, [r3, #8]
 8003432:	f023 03f0 	bic.w	r3, r3, #240	@ 0xf0
 8003436:	4a5d      	ldr	r2, [pc, #372]	@ (80035ac <HAL_RCC_ClockConfig+0x264>)
 8003438:	f043 0380 	orr.w	r3, r3, #128	@ 0x80
 800343c:	6093      	str	r3, [r2, #8]
        hpre = RCC_SYSCLK_DIV2;
 800343e:	2380      	movs	r3, #128	@ 0x80
 8003440:	617b      	str	r3, [r7, #20]
      }

    }

    MODIFY_REG(RCC->CFGR, RCC_CFGR_SW, RCC_ClkInitStruct->SYSCLKSource);
 8003442:	4b5a      	ldr	r3, [pc, #360]	@ (80035ac <HAL_RCC_ClockConfig+0x264>)
 8003444:	689b      	ldr	r3, [r3, #8]
 8003446:	f023 0203 	bic.w	r2, r3, #3
 800344a:	687b      	ldr	r3, [r7, #4]
 800344c:	685b      	ldr	r3, [r3, #4]
 800344e:	4957      	ldr	r1, [pc, #348]	@ (80035ac <HAL_RCC_ClockConfig+0x264>)
 8003450:	4313      	orrs	r3, r2
 8003452:	608b      	str	r3, [r1, #8]

    /* Get Start Tick*/
    tickstart = HAL_GetTick();
 8003454:	f7ff f8fc 	bl	8002650 <HAL_GetTick>
 8003458:	60f8      	str	r0, [r7, #12]

    while (__HAL_RCC_GET_SYSCLK_SOURCE() != (RCC_ClkInitStruct->SYSCLKSource << RCC_CFGR_SWS_Pos))
 800345a:	e00a      	b.n	8003472 <HAL_RCC_ClockConfig+0x12a>
    {
      if ((HAL_GetTick() - tickstart) > CLOCKSWITCH_TIMEOUT_VALUE)
 800345c:	f7ff f8f8 	bl	8002650 <HAL_GetTick>
 8003460:	4602      	mov	r2, r0
 8003462:	68fb      	ldr	r3, [r7, #12]
 8003464:	1ad3      	subs	r3, r2, r3
 8003466:	f241 3288 	movw	r2, #5000	@ 0x1388
 800346a:	4293      	cmp	r3, r2
 800346c:	d901      	bls.n	8003472 <HAL_RCC_ClockConfig+0x12a>
      {
        return HAL_TIMEOUT;
 800346e:	2303      	movs	r3, #3
 8003470:	e095      	b.n	800359e <HAL_RCC_ClockConfig+0x256>
    while (__HAL_RCC_GET_SYSCLK_SOURCE() != (RCC_ClkInitStruct->SYSCLKSource << RCC_CFGR_SWS_Pos))
 8003472:	4b4e      	ldr	r3, [pc, #312]	@ (80035ac <HAL_RCC_ClockConfig+0x264>)
 8003474:	689b      	ldr	r3, [r3, #8]
 8003476:	f003 020c 	and.w	r2, r3, #12
 800347a:	687b      	ldr	r3, [r7, #4]
 800347c:	685b      	ldr	r3, [r3, #4]
 800347e:	009b      	lsls	r3, r3, #2
 8003480:	429a      	cmp	r2, r3
 8003482:	d1eb      	bne.n	800345c <HAL_RCC_ClockConfig+0x114>
      }
    }
  }

  /*-------------------------- HCLK Configuration --------------------------*/
  if (((RCC_ClkInitStruct->ClockType) & RCC_CLOCKTYPE_HCLK) == RCC_CLOCKTYPE_HCLK)
 8003484:	687b      	ldr	r3, [r7, #4]
 8003486:	681b      	ldr	r3, [r3, #0]
 8003488:	f003 0302 	and.w	r3, r3, #2
 800348c:	2b00      	cmp	r3, #0
 800348e:	d023      	beq.n	80034d8 <HAL_RCC_ClockConfig+0x190>
  {
    /* Set the highest APB divider in order to ensure that we do not go through
       a non-spec phase whatever we decrease or increase HCLK. */
    if (((RCC_ClkInitStruct->ClockType) & RCC_CLOCKTYPE_PCLK1) == RCC_CLOCKTYPE_PCLK1)
 8003490:	687b      	ldr	r3, [r7, #4]
 8003492:	681b      	ldr	r3, [r3, #0]
 8003494:	f003 0304 	and.w	r3, r3, #4
 8003498:	2b00      	cmp	r3, #0
 800349a:	d005      	beq.n	80034a8 <HAL_RCC_ClockConfig+0x160>
    {
      MODIFY_REG(RCC->CFGR, RCC_CFGR_PPRE1, RCC_HCLK_DIV16);
 800349c:	4b43      	ldr	r3, [pc, #268]	@ (80035ac <HAL_RCC_ClockConfig+0x264>)
 800349e:	689b      	ldr	r3, [r3, #8]
 80034a0:	4a42      	ldr	r2, [pc, #264]	@ (80035ac <HAL_RCC_ClockConfig+0x264>)
 80034a2:	f443 63e0 	orr.w	r3, r3, #1792	@ 0x700
 80034a6:	6093      	str	r3, [r2, #8]
    }
    if (((RCC_ClkInitStruct->ClockType) & RCC_CLOCKTYPE_PCLK2) == RCC_CLOCKTYPE_PCLK2)
 80034a8:	687b      	ldr	r3, [r7, #4]
 80034aa:	681b      	ldr	r3, [r3, #0]
 80034ac:	f003 0308 	and.w	r3, r3, #8
 80034b0:	2b00      	cmp	r3, #0
 80034b2:	d007      	beq.n	80034c4 <HAL_RCC_ClockConfig+0x17c>
    {
      MODIFY_REG(RCC->CFGR, RCC_CFGR_PPRE2, RCC_HCLK_DIV16);
 80034b4:	4b3d      	ldr	r3, [pc, #244]	@ (80035ac <HAL_RCC_ClockConfig+0x264>)
 80034b6:	689b      	ldr	r3, [r3, #8]
 80034b8:	f423 537c 	bic.w	r3, r3, #16128	@ 0x3f00
 80034bc:	4a3b      	ldr	r2, [pc, #236]	@ (80035ac <HAL_RCC_ClockConfig+0x264>)
 80034be:	f443 63e0 	orr.w	r3, r3, #1792	@ 0x700
 80034c2:	6093      	str	r3, [r2, #8]
    }

    /* Set the new HCLK clock divider */
    assert_param(IS_RCC_HCLK(RCC_ClkInitStruct->AHBCLKDivider));
    MODIFY_REG(RCC->CFGR, RCC_CFGR_HPRE, RCC_ClkInitStruct->AHBCLKDivider);
 80034c4:	4b39      	ldr	r3, [pc, #228]	@ (80035ac <HAL_RCC_ClockConfig+0x264>)
 80034c6:	689b      	ldr	r3, [r3, #8]
 80034c8:	f023 02f0 	bic.w	r2, r3, #240	@ 0xf0
 80034cc:	687b      	ldr	r3, [r7, #4]
 80034ce:	689b      	ldr	r3, [r3, #8]
 80034d0:	4936      	ldr	r1, [pc, #216]	@ (80035ac <HAL_RCC_ClockConfig+0x264>)
 80034d2:	4313      	orrs	r3, r2
 80034d4:	608b      	str	r3, [r1, #8]
 80034d6:	e008      	b.n	80034ea <HAL_RCC_ClockConfig+0x1a2>
  }
  else
  {
    /* Is intermediate HCLK prescaler 2 applied internally, complete with HCLK prescaler 1 */
    if(hpre == RCC_SYSCLK_DIV2)
 80034d8:	697b      	ldr	r3, [r7, #20]
 80034da:	2b80      	cmp	r3, #128	@ 0x80
 80034dc:	d105      	bne.n	80034ea <HAL_RCC_ClockConfig+0x1a2>
    {
      MODIFY_REG(RCC->CFGR, RCC_CFGR_HPRE, RCC_SYSCLK_DIV1);
 80034de:	4b33      	ldr	r3, [pc, #204]	@ (80035ac <HAL_RCC_ClockConfig+0x264>)
 80034e0:	689b      	ldr	r3, [r3, #8]
 80034e2:	4a32      	ldr	r2, [pc, #200]	@ (80035ac <HAL_RCC_ClockConfig+0x264>)
 80034e4:	f023 03f0 	bic.w	r3, r3, #240	@ 0xf0
 80034e8:	6093      	str	r3, [r2, #8]
    }
  }

  /* Decreasing the number of wait states because of lower CPU frequency */
  if (FLatency < __HAL_FLASH_GET_LATENCY())
 80034ea:	4b2f      	ldr	r3, [pc, #188]	@ (80035a8 <HAL_RCC_ClockConfig+0x260>)
 80034ec:	681b      	ldr	r3, [r3, #0]
 80034ee:	f003 030f 	and.w	r3, r3, #15
 80034f2:	683a      	ldr	r2, [r7, #0]
 80034f4:	429a      	cmp	r2, r3
 80034f6:	d21d      	bcs.n	8003534 <HAL_RCC_ClockConfig+0x1ec>
  {
    /* Program the new number of wait states to the LATENCY bits in the FLASH_ACR register */
    __HAL_FLASH_SET_LATENCY(FLatency);
 80034f8:	4b2b      	ldr	r3, [pc, #172]	@ (80035a8 <HAL_RCC_ClockConfig+0x260>)
 80034fa:	681b      	ldr	r3, [r3, #0]
 80034fc:	f023 020f 	bic.w	r2, r3, #15
 8003500:	4929      	ldr	r1, [pc, #164]	@ (80035a8 <HAL_RCC_ClockConfig+0x260>)
 8003502:	683b      	ldr	r3, [r7, #0]
 8003504:	4313      	orrs	r3, r2
 8003506:	600b      	str	r3, [r1, #0]

    /* Check that the new number of wait states is taken into account to access the Flash
    memory by polling the FLASH_ACR register */
    tickstart = HAL_GetTick();
 8003508:	f7ff f8a2 	bl	8002650 <HAL_GetTick>
 800350c:	60f8      	str	r0, [r7, #12]

    while (__HAL_FLASH_GET_LATENCY() != FLatency)
 800350e:	e00a      	b.n	8003526 <HAL_RCC_ClockConfig+0x1de>
    {
      if ((HAL_GetTick() - tickstart) > CLOCKSWITCH_TIMEOUT_VALUE)
 8003510:	f7ff f89e 	bl	8002650 <HAL_GetTick>
 8003514:	4602      	mov	r2, r0
 8003516:	68fb      	ldr	r3, [r7, #12]
 8003518:	1ad3      	subs	r3, r2, r3
 800351a:	f241 3288 	movw	r2, #5000	@ 0x1388
 800351e:	4293      	cmp	r3, r2
 8003520:	d901      	bls.n	8003526 <HAL_RCC_ClockConfig+0x1de>
      {
        return HAL_TIMEOUT;
 8003522:	2303      	movs	r3, #3
 8003524:	e03b      	b.n	800359e <HAL_RCC_ClockConfig+0x256>
    while (__HAL_FLASH_GET_LATENCY() != FLatency)
 8003526:	4b20      	ldr	r3, [pc, #128]	@ (80035a8 <HAL_RCC_ClockConfig+0x260>)
 8003528:	681b      	ldr	r3, [r3, #0]
 800352a:	f003 030f 	and.w	r3, r3, #15
 800352e:	683a      	ldr	r2, [r7, #0]
 8003530:	429a      	cmp	r2, r3
 8003532:	d1ed      	bne.n	8003510 <HAL_RCC_ClockConfig+0x1c8>
      }
    }
  }

  /*-------------------------- PCLK1 Configuration ---------------------------*/
  if (((RCC_ClkInitStruct->ClockType) & RCC_CLOCKTYPE_PCLK1) == RCC_CLOCKTYPE_PCLK1)
 8003534:	687b      	ldr	r3, [r7, #4]
 8003536:	681b      	ldr	r3, [r3, #0]
 8003538:	f003 0304 	and.w	r3, r3, #4
 800353c:	2b00      	cmp	r3, #0
 800353e:	d008      	beq.n	8003552 <HAL_RCC_ClockConfig+0x20a>
  {
    assert_param(IS_RCC_PCLK(RCC_ClkInitStruct->APB1CLKDivider));
    MODIFY_REG(RCC->CFGR, RCC_CFGR_PPRE1, RCC_ClkInitStruct->APB1CLKDivider);
 8003540:	4b1a      	ldr	r3, [pc, #104]	@ (80035ac <HAL_RCC_ClockConfig+0x264>)
 8003542:	689b      	ldr	r3, [r3, #8]
 8003544:	f423 62e0 	bic.w	r2, r3, #1792	@ 0x700
 8003548:	687b      	ldr	r3, [r7, #4]
 800354a:	68db      	ldr	r3, [r3, #12]
 800354c:	4917      	ldr	r1, [pc, #92]	@ (80035ac <HAL_RCC_ClockConfig+0x264>)
 800354e:	4313      	orrs	r3, r2
 8003550:	608b      	str	r3, [r1, #8]
  }

  /*-------------------------- PCLK2 Configuration ---------------------------*/
  if(((RCC_ClkInitStruct->ClockType) & RCC_CLOCKTYPE_PCLK2) == RCC_CLOCKTYPE_PCLK2)
 8003552:	687b      	ldr	r3, [r7, #4]
 8003554:	681b      	ldr	r3, [r3, #0]
 8003556:	f003 0308 	and.w	r3, r3, #8
 800355a:	2b00      	cmp	r3, #0
 800355c:	d009      	beq.n	8003572 <HAL_RCC_ClockConfig+0x22a>
  {
    assert_param(IS_RCC_PCLK(RCC_ClkInitStruct->APB2CLKDivider));
    MODIFY_REG(RCC->CFGR, RCC_CFGR_PPRE2, ((RCC_ClkInitStruct->APB2CLKDivider) << 3U));
 800355e:	4b13      	ldr	r3, [pc, #76]	@ (80035ac <HAL_RCC_ClockConfig+0x264>)
 8003560:	689b      	ldr	r3, [r3, #8]
 8003562:	f423 5260 	bic.w	r2, r3, #14336	@ 0x3800
 8003566:	687b      	ldr	r3, [r7, #4]
 8003568:	691b      	ldr	r3, [r3, #16]
 800356a:	00db      	lsls	r3, r3, #3
 800356c:	490f      	ldr	r1, [pc, #60]	@ (80035ac <HAL_RCC_ClockConfig+0x264>)
 800356e:	4313      	orrs	r3, r2
 8003570:	608b      	str	r3, [r1, #8]
  }

  /* Update the SystemCoreClock global variable */
  SystemCoreClock = HAL_RCC_GetSysClockFreq() >> (AHBPrescTable[READ_BIT(RCC->CFGR, RCC_CFGR_HPRE) >> RCC_CFGR_HPRE_Pos] & 0x1FU);
 8003572:	f000 f825 	bl	80035c0 <HAL_RCC_GetSysClockFreq>
 8003576:	4602      	mov	r2, r0
 8003578:	4b0c      	ldr	r3, [pc, #48]	@ (80035ac <HAL_RCC_ClockConfig+0x264>)
 800357a:	689b      	ldr	r3, [r3, #8]
 800357c:	091b      	lsrs	r3, r3, #4
 800357e:	f003 030f 	and.w	r3, r3, #15
 8003582:	490c      	ldr	r1, [pc, #48]	@ (80035b4 <HAL_RCC_ClockConfig+0x26c>)
 8003584:	5ccb      	ldrb	r3, [r1, r3]
 8003586:	f003 031f 	and.w	r3, r3, #31
 800358a:	fa22 f303 	lsr.w	r3, r2, r3
 800358e:	4a0a      	ldr	r2, [pc, #40]	@ (80035b8 <HAL_RCC_ClockConfig+0x270>)
 8003590:	6013      	str	r3, [r2, #0]

  /* Configure the source of time base considering new system clocks settings*/
  return HAL_InitTick(uwTickPrio);
 8003592:	4b0a      	ldr	r3, [pc, #40]	@ (80035bc <HAL_RCC_ClockConfig+0x274>)
 8003594:	681b      	ldr	r3, [r3, #0]
 8003596:	4618      	mov	r0, r3
 8003598:	f7ff f80e 	bl	80025b8 <HAL_InitTick>
 800359c:	4603      	mov	r3, r0
}
 800359e:	4618      	mov	r0, r3
 80035a0:	3718      	adds	r7, #24
 80035a2:	46bd      	mov	sp, r7
 80035a4:	bd80      	pop	{r7, pc}
 80035a6:	bf00      	nop
 80035a8:	40022000 	.word	0x40022000
 80035ac:	40021000 	.word	0x40021000
 80035b0:	04c4b400 	.word	0x04c4b400
 80035b4:	080047c8 	.word	0x080047c8
 80035b8:	20000000 	.word	0x20000000
 80035bc:	20000004 	.word	0x20000004

080035c0 <HAL_RCC_GetSysClockFreq>:
  *
  *
  * @retval SYSCLK frequency
  */
uint32_t HAL_RCC_GetSysClockFreq(void)
{
 80035c0:	b480      	push	{r7}
 80035c2:	b087      	sub	sp, #28
 80035c4:	af00      	add	r7, sp, #0
  uint32_t pllvco, pllsource, pllr, pllm;
  uint32_t sysclockfreq;

  if (__HAL_RCC_GET_SYSCLK_SOURCE() == RCC_CFGR_SWS_HSI)
 80035c6:	4b2c      	ldr	r3, [pc, #176]	@ (8003678 <HAL_RCC_GetSysClockFreq+0xb8>)
 80035c8:	689b      	ldr	r3, [r3, #8]
 80035ca:	f003 030c 	and.w	r3, r3, #12
 80035ce:	2b04      	cmp	r3, #4
 80035d0:	d102      	bne.n	80035d8 <HAL_RCC_GetSysClockFreq+0x18>
  {
    /* HSI used as system clock source */
    sysclockfreq = HSI_VALUE;
 80035d2:	4b2a      	ldr	r3, [pc, #168]	@ (800367c <HAL_RCC_GetSysClockFreq+0xbc>)
 80035d4:	613b      	str	r3, [r7, #16]
 80035d6:	e047      	b.n	8003668 <HAL_RCC_GetSysClockFreq+0xa8>
  }
  else if (__HAL_RCC_GET_SYSCLK_SOURCE() == RCC_CFGR_SWS_HSE)
 80035d8:	4b27      	ldr	r3, [pc, #156]	@ (8003678 <HAL_RCC_GetSysClockFreq+0xb8>)
 80035da:	689b      	ldr	r3, [r3, #8]
 80035dc:	f003 030c 	and.w	r3, r3, #12
 80035e0:	2b08      	cmp	r3, #8
 80035e2:	d102      	bne.n	80035ea <HAL_RCC_GetSysClockFreq+0x2a>
  {
    /* HSE used as system clock source */
    sysclockfreq = HSE_VALUE;
 80035e4:	4b26      	ldr	r3, [pc, #152]	@ (8003680 <HAL_RCC_GetSysClockFreq+0xc0>)
 80035e6:	613b      	str	r3, [r7, #16]
 80035e8:	e03e      	b.n	8003668 <HAL_RCC_GetSysClockFreq+0xa8>
  }
  else if (__HAL_RCC_GET_SYSCLK_SOURCE() == RCC_CFGR_SWS_PLL)
 80035ea:	4b23      	ldr	r3, [pc, #140]	@ (8003678 <HAL_RCC_GetSysClockFreq+0xb8>)
 80035ec:	689b      	ldr	r3, [r3, #8]
 80035ee:	f003 030c 	and.w	r3, r3, #12
 80035f2:	2b0c      	cmp	r3, #12
 80035f4:	d136      	bne.n	8003664 <HAL_RCC_GetSysClockFreq+0xa4>
    /* PLL used as system clock  source */

    /* PLL_VCO = ((HSE_VALUE or HSI_VALUE)/ PLLM) * PLLN
    SYSCLK = PLL_VCO / PLLR
    */
    pllsource = READ_BIT(RCC->PLLCFGR, RCC_PLLCFGR_PLLSRC);
 80035f6:	4b20      	ldr	r3, [pc, #128]	@ (8003678 <HAL_RCC_GetSysClockFreq+0xb8>)
 80035f8:	68db      	ldr	r3, [r3, #12]
 80035fa:	f003 0303 	and.w	r3, r3, #3
 80035fe:	60fb      	str	r3, [r7, #12]
    pllm = (READ_BIT(RCC->PLLCFGR, RCC_PLLCFGR_PLLM) >> RCC_PLLCFGR_PLLM_Pos) + 1U ;
 8003600:	4b1d      	ldr	r3, [pc, #116]	@ (8003678 <HAL_RCC_GetSysClockFreq+0xb8>)
 8003602:	68db      	ldr	r3, [r3, #12]
 8003604:	091b      	lsrs	r3, r3, #4
 8003606:	f003 030f 	and.w	r3, r3, #15
 800360a:	3301      	adds	r3, #1
 800360c:	60bb      	str	r3, [r7, #8]

    switch (pllsource)
 800360e:	68fb      	ldr	r3, [r7, #12]
 8003610:	2b03      	cmp	r3, #3
 8003612:	d10c      	bne.n	800362e <HAL_RCC_GetSysClockFreq+0x6e>
    {
    case RCC_PLLSOURCE_HSE:  /* HSE used as PLL clock source */
      pllvco = (HSE_VALUE / pllm) * (READ_BIT(RCC->PLLCFGR, RCC_PLLCFGR_PLLN) >> RCC_PLLCFGR_PLLN_Pos);
 8003614:	4a1a      	ldr	r2, [pc, #104]	@ (8003680 <HAL_RCC_GetSysClockFreq+0xc0>)
 8003616:	68bb      	ldr	r3, [r7, #8]
 8003618:	fbb2 f3f3 	udiv	r3, r2, r3
 800361c:	4a16      	ldr	r2, [pc, #88]	@ (8003678 <HAL_RCC_GetSysClockFreq+0xb8>)
 800361e:	68d2      	ldr	r2, [r2, #12]
 8003620:	0a12      	lsrs	r2, r2, #8
 8003622:	f002 027f 	and.w	r2, r2, #127	@ 0x7f
 8003626:	fb02 f303 	mul.w	r3, r2, r3
 800362a:	617b      	str	r3, [r7, #20]
      break;
 800362c:	e00c      	b.n	8003648 <HAL_RCC_GetSysClockFreq+0x88>

    case RCC_PLLSOURCE_HSI:  /* HSI used as PLL clock source */
    default:
      pllvco = (HSI_VALUE / pllm) * (READ_BIT(RCC->PLLCFGR, RCC_PLLCFGR_PLLN) >> RCC_PLLCFGR_PLLN_Pos);
 800362e:	4a13      	ldr	r2, [pc, #76]	@ (800367c <HAL_RCC_GetSysClockFreq+0xbc>)
 8003630:	68bb      	ldr	r3, [r7, #8]
 8003632:	fbb2 f3f3 	udiv	r3, r2, r3
 8003636:	4a10      	ldr	r2, [pc, #64]	@ (8003678 <HAL_RCC_GetSysClockFreq+0xb8>)
 8003638:	68d2      	ldr	r2, [r2, #12]
 800363a:	0a12      	lsrs	r2, r2, #8
 800363c:	f002 027f 	and.w	r2, r2, #127	@ 0x7f
 8003640:	fb02 f303 	mul.w	r3, r2, r3
 8003644:	617b      	str	r3, [r7, #20]
      break;
 8003646:	bf00      	nop
    }
    pllr = ((READ_BIT(RCC->PLLCFGR, RCC_PLLCFGR_PLLR) >> RCC_PLLCFGR_PLLR_Pos) + 1U ) * 2U;
 8003648:	4b0b      	ldr	r3, [pc, #44]	@ (8003678 <HAL_RCC_GetSysClockFreq+0xb8>)
 800364a:	68db      	ldr	r3, [r3, #12]
 800364c:	0e5b      	lsrs	r3, r3, #25
 800364e:	f003 0303 	and.w	r3, r3, #3
 8003652:	3301      	adds	r3, #1
 8003654:	005b      	lsls	r3, r3, #1
 8003656:	607b      	str	r3, [r7, #4]
    sysclockfreq = pllvco/pllr;
 8003658:	697a      	ldr	r2, [r7, #20]
 800365a:	687b      	ldr	r3, [r7, #4]
 800365c:	fbb2 f3f3 	udiv	r3, r2, r3
 8003660:	613b      	str	r3, [r7, #16]
 8003662:	e001      	b.n	8003668 <HAL_RCC_GetSysClockFreq+0xa8>
  }
  else
  {
    sysclockfreq = 0U;
 8003664:	2300      	movs	r3, #0
 8003666:	613b      	str	r3, [r7, #16]
  }

  return sysclockfreq;
 8003668:	693b      	ldr	r3, [r7, #16]
}
 800366a:	4618      	mov	r0, r3
 800366c:	371c      	adds	r7, #28
 800366e:	46bd      	mov	sp, r7
 8003670:	f85d 7b04 	ldr.w	r7, [sp], #4
 8003674:	4770      	bx	lr
 8003676:	bf00      	nop
 8003678:	40021000 	.word	0x40021000
 800367c:	00f42400 	.word	0x00f42400
 8003680:	016e3600 	.word	0x016e3600

08003684 <RCC_GetSysClockFreqFromPLLSource>:
/**
  * @brief  Compute SYSCLK frequency based on PLL SYSCLK source.
  * @retval SYSCLK frequency
  */
static uint32_t RCC_GetSysClockFreqFromPLLSource(void)
{
 8003684:	b480      	push	{r7}
 8003686:	b087      	sub	sp, #28
 8003688:	af00      	add	r7, sp, #0
  uint32_t sysclockfreq;

  /* PLL_VCO = (HSE_VALUE or HSI_VALUE/ PLLM) * PLLN
     SYSCLK = PLL_VCO / PLLR
   */
  pllsource = READ_BIT(RCC->PLLCFGR, RCC_PLLCFGR_PLLSRC);
 800368a:	4b1e      	ldr	r3, [pc, #120]	@ (8003704 <RCC_GetSysClockFreqFromPLLSource+0x80>)
 800368c:	68db      	ldr	r3, [r3, #12]
 800368e:	f003 0303 	and.w	r3, r3, #3
 8003692:	613b      	str	r3, [r7, #16]
  pllm = (READ_BIT(RCC->PLLCFGR, RCC_PLLCFGR_PLLM) >> RCC_PLLCFGR_PLLM_Pos) + 1U ;
 8003694:	4b1b      	ldr	r3, [pc, #108]	@ (8003704 <RCC_GetSysClockFreqFromPLLSource+0x80>)
 8003696:	68db      	ldr	r3, [r3, #12]
 8003698:	091b      	lsrs	r3, r3, #4
 800369a:	f003 030f 	and.w	r3, r3, #15
 800369e:	3301      	adds	r3, #1
 80036a0:	60fb      	str	r3, [r7, #12]

  switch (pllsource)
 80036a2:	693b      	ldr	r3, [r7, #16]
 80036a4:	2b03      	cmp	r3, #3
 80036a6:	d10c      	bne.n	80036c2 <RCC_GetSysClockFreqFromPLLSource+0x3e>
  {
  case RCC_PLLSOURCE_HSE:  /* HSE used as PLL clock source */
    pllvco = (HSE_VALUE / pllm) * (READ_BIT(RCC->PLLCFGR, RCC_PLLCFGR_PLLN) >> RCC_PLLCFGR_PLLN_Pos);
 80036a8:	4a17      	ldr	r2, [pc, #92]	@ (8003708 <RCC_GetSysClockFreqFromPLLSource+0x84>)
 80036aa:	68fb      	ldr	r3, [r7, #12]
 80036ac:	fbb2 f3f3 	udiv	r3, r2, r3
 80036b0:	4a14      	ldr	r2, [pc, #80]	@ (8003704 <RCC_GetSysClockFreqFromPLLSource+0x80>)
 80036b2:	68d2      	ldr	r2, [r2, #12]
 80036b4:	0a12      	lsrs	r2, r2, #8
 80036b6:	f002 027f 	and.w	r2, r2, #127	@ 0x7f
 80036ba:	fb02 f303 	mul.w	r3, r2, r3
 80036be:	617b      	str	r3, [r7, #20]
    break;
 80036c0:	e00c      	b.n	80036dc <RCC_GetSysClockFreqFromPLLSource+0x58>

  case RCC_PLLSOURCE_HSI:  /* HSI used as PLL clock source */
  default:
    pllvco = (HSI_VALUE / pllm) * (READ_BIT(RCC->PLLCFGR, RCC_PLLCFGR_PLLN) >> RCC_PLLCFGR_PLLN_Pos);
 80036c2:	4a12      	ldr	r2, [pc, #72]	@ (800370c <RCC_GetSysClockFreqFromPLLSource+0x88>)
 80036c4:	68fb      	ldr	r3, [r7, #12]
 80036c6:	fbb2 f3f3 	udiv	r3, r2, r3
 80036ca:	4a0e      	ldr	r2, [pc, #56]	@ (8003704 <RCC_GetSysClockFreqFromPLLSource+0x80>)
 80036cc:	68d2      	ldr	r2, [r2, #12]
 80036ce:	0a12      	lsrs	r2, r2, #8
 80036d0:	f002 027f 	and.w	r2, r2, #127	@ 0x7f
 80036d4:	fb02 f303 	mul.w	r3, r2, r3
 80036d8:	617b      	str	r3, [r7, #20]
    break;
 80036da:	bf00      	nop
  }

  pllr = ((READ_BIT(RCC->PLLCFGR, RCC_PLLCFGR_PLLR) >> RCC_PLLCFGR_PLLR_Pos) + 1U ) * 2U;
 80036dc:	4b09      	ldr	r3, [pc, #36]	@ (8003704 <RCC_GetSysClockFreqFromPLLSource+0x80>)
 80036de:	68db      	ldr	r3, [r3, #12]
 80036e0:	0e5b      	lsrs	r3, r3, #25
 80036e2:	f003 0303 	and.w	r3, r3, #3
 80036e6:	3301      	adds	r3, #1
 80036e8:	005b      	lsls	r3, r3, #1
 80036ea:	60bb      	str	r3, [r7, #8]
  sysclockfreq = pllvco/pllr;
 80036ec:	697a      	ldr	r2, [r7, #20]
 80036ee:	68bb      	ldr	r3, [r7, #8]
 80036f0:	fbb2 f3f3 	udiv	r3, r2, r3
 80036f4:	607b      	str	r3, [r7, #4]

  return sysclockfreq;
 80036f6:	687b      	ldr	r3, [r7, #4]
}
 80036f8:	4618      	mov	r0, r3
 80036fa:	371c      	adds	r7, #28
 80036fc:	46bd      	mov	sp, r7
 80036fe:	f85d 7b04 	ldr.w	r7, [sp], #4
 8003702:	4770      	bx	lr
 8003704:	40021000 	.word	0x40021000
 8003708:	016e3600 	.word	0x016e3600
 800370c:	00f42400 	.word	0x00f42400

08003710 <HAL_SPI_Init>:
  * @param  hspi pointer to a SPI_HandleTypeDef structure that contains
  *               the configuration information for SPI module.
  * @retval HAL status
  */
HAL_StatusTypeDef HAL_SPI_Init(SPI_HandleTypeDef *hspi)
{
 8003710:	b580      	push	{r7, lr}
 8003712:	b084      	sub	sp, #16
 8003714:	af00      	add	r7, sp, #0
 8003716:	6078      	str	r0, [r7, #4]
  uint32_t frxth;

  /* Check the SPI handle allocation */
  if (hspi == NULL)
 8003718:	687b      	ldr	r3, [r7, #4]
 800371a:	2b00      	cmp	r3, #0
 800371c:	d101      	bne.n	8003722 <HAL_SPI_Init+0x12>
  {
    return HAL_ERROR;
 800371e:	2301      	movs	r3, #1
 8003720:	e09d      	b.n	800385e <HAL_SPI_Init+0x14e>
  assert_param(IS_SPI_NSS(hspi->Init.NSS));
  assert_param(IS_SPI_NSSP(hspi->Init.NSSPMode));
  assert_param(IS_SPI_BAUDRATE_PRESCALER(hspi->Init.BaudRatePrescaler));
  assert_param(IS_SPI_FIRST_BIT(hspi->Init.FirstBit));
  assert_param(IS_SPI_TIMODE(hspi->Init.TIMode));
  if (hspi->Init.TIMode == SPI_TIMODE_DISABLE)
 8003722:	687b      	ldr	r3, [r7, #4]
 8003724:	6a5b      	ldr	r3, [r3, #36]	@ 0x24
 8003726:	2b00      	cmp	r3, #0
 8003728:	d108      	bne.n	800373c <HAL_SPI_Init+0x2c>
  {
    assert_param(IS_SPI_CPOL(hspi->Init.CLKPolarity));
    assert_param(IS_SPI_CPHA(hspi->Init.CLKPhase));

    if (hspi->Init.Mode == SPI_MODE_MASTER)
 800372a:	687b      	ldr	r3, [r7, #4]
 800372c:	685b      	ldr	r3, [r3, #4]
 800372e:	f5b3 7f82 	cmp.w	r3, #260	@ 0x104
 8003732:	d009      	beq.n	8003748 <HAL_SPI_Init+0x38>
      assert_param(IS_SPI_BAUDRATE_PRESCALER(hspi->Init.BaudRatePrescaler));
    }
    else
    {
      /* Baudrate prescaler not use in Motoraola Slave mode. force to default value */
      hspi->Init.BaudRatePrescaler = SPI_BAUDRATEPRESCALER_2;
 8003734:	687b      	ldr	r3, [r7, #4]
 8003736:	2200      	movs	r2, #0
 8003738:	61da      	str	r2, [r3, #28]
 800373a:	e005      	b.n	8003748 <HAL_SPI_Init+0x38>
  else
  {
    assert_param(IS_SPI_BAUDRATE_PRESCALER(hspi->Init.BaudRatePrescaler));

    /* Force polarity and phase to TI protocaol requirements */
    hspi->Init.CLKPolarity = SPI_POLARITY_LOW;
 800373c:	687b      	ldr	r3, [r7, #4]
 800373e:	2200      	movs	r2, #0
 8003740:	611a      	str	r2, [r3, #16]
    hspi->Init.CLKPhase    = SPI_PHASE_1EDGE;
 8003742:	687b      	ldr	r3, [r7, #4]
 8003744:	2200      	movs	r2, #0
 8003746:	615a      	str	r2, [r3, #20]
  {
    assert_param(IS_SPI_CRC_POLYNOMIAL(hspi->Init.CRCPolynomial));
    assert_param(IS_SPI_CRC_LENGTH(hspi->Init.CRCLength));
  }
#else
  hspi->Init.CRCCalculation = SPI_CRCCALCULATION_DISABLE;
 8003748:	687b      	ldr	r3, [r7, #4]
 800374a:	2200      	movs	r2, #0
 800374c:	629a      	str	r2, [r3, #40]	@ 0x28
#endif /* USE_SPI_CRC */

  if (hspi->State == HAL_SPI_STATE_RESET)
 800374e:	687b      	ldr	r3, [r7, #4]
 8003750:	f893 305d 	ldrb.w	r3, [r3, #93]	@ 0x5d
 8003754:	b2db      	uxtb	r3, r3
 8003756:	2b00      	cmp	r3, #0
 8003758:	d106      	bne.n	8003768 <HAL_SPI_Init+0x58>
  {
    /* Allocate lock resource and initialize it */
    hspi->Lock = HAL_UNLOCKED;
 800375a:	687b      	ldr	r3, [r7, #4]
 800375c:	2200      	movs	r2, #0
 800375e:	f883 205c 	strb.w	r2, [r3, #92]	@ 0x5c

    /* Init the low level hardware : GPIO, CLOCK, NVIC... */
    hspi->MspInitCallback(hspi);
#else
    /* Init the low level hardware : GPIO, CLOCK, NVIC... */
    HAL_SPI_MspInit(hspi);
 8003762:	6878      	ldr	r0, [r7, #4]
 8003764:	f7fd f89e 	bl	80008a4 <HAL_SPI_MspInit>
#endif /* USE_HAL_SPI_REGISTER_CALLBACKS */
  }

  hspi->State = HAL_SPI_STATE_BUSY;
 8003768:	687b      	ldr	r3, [r7, #4]
 800376a:	2202      	movs	r2, #2
 800376c:	f883 205d 	strb.w	r2, [r3, #93]	@ 0x5d

  /* Disable the selected SPI peripheral */
  __HAL_SPI_DISABLE(hspi);
 8003770:	687b      	ldr	r3, [r7, #4]
 8003772:	681b      	ldr	r3, [r3, #0]
 8003774:	681a      	ldr	r2, [r3, #0]
 8003776:	687b      	ldr	r3, [r7, #4]
 8003778:	681b      	ldr	r3, [r3, #0]
 800377a:	f022 0240 	bic.w	r2, r2, #64	@ 0x40
 800377e:	601a      	str	r2, [r3, #0]

  /* Align by default the rs fifo threshold on the data size */
  if (hspi->Init.DataSize > SPI_DATASIZE_8BIT)
 8003780:	687b      	ldr	r3, [r7, #4]
 8003782:	68db      	ldr	r3, [r3, #12]
 8003784:	f5b3 6fe0 	cmp.w	r3, #1792	@ 0x700
 8003788:	d902      	bls.n	8003790 <HAL_SPI_Init+0x80>
  {
    frxth = SPI_RXFIFO_THRESHOLD_HF;
 800378a:	2300      	movs	r3, #0
 800378c:	60fb      	str	r3, [r7, #12]
 800378e:	e002      	b.n	8003796 <HAL_SPI_Init+0x86>
  }
  else
  {
    frxth = SPI_RXFIFO_THRESHOLD_QF;
 8003790:	f44f 5380 	mov.w	r3, #4096	@ 0x1000
 8003794:	60fb      	str	r3, [r7, #12]
  }

  /* CRC calculation is valid only for 16Bit and 8 Bit */
  if ((hspi->Init.DataSize != SPI_DATASIZE_16BIT) && (hspi->Init.DataSize != SPI_DATASIZE_8BIT))
 8003796:	687b      	ldr	r3, [r7, #4]
 8003798:	68db      	ldr	r3, [r3, #12]
 800379a:	f5b3 6f70 	cmp.w	r3, #3840	@ 0xf00
 800379e:	d007      	beq.n	80037b0 <HAL_SPI_Init+0xa0>
 80037a0:	687b      	ldr	r3, [r7, #4]
 80037a2:	68db      	ldr	r3, [r3, #12]
 80037a4:	f5b3 6fe0 	cmp.w	r3, #1792	@ 0x700
 80037a8:	d002      	beq.n	80037b0 <HAL_SPI_Init+0xa0>
  {
    /* CRC must be disabled */
    hspi->Init.CRCCalculation = SPI_CRCCALCULATION_DISABLE;
 80037aa:	687b      	ldr	r3, [r7, #4]
 80037ac:	2200      	movs	r2, #0
 80037ae:	629a      	str	r2, [r3, #40]	@ 0x28
  }

  /*----------------------- SPIx CR1 & CR2 Configuration ---------------------*/
  /* Configure : SPI Mode, Communication Mode, Clock polarity and phase, NSS management,
  Communication speed, First bit and CRC calculation state */
  WRITE_REG(hspi->Instance->CR1, ((hspi->Init.Mode & (SPI_CR1_MSTR | SPI_CR1_SSI)) |
 80037b0:	687b      	ldr	r3, [r7, #4]
 80037b2:	685b      	ldr	r3, [r3, #4]
 80037b4:	f403 7282 	and.w	r2, r3, #260	@ 0x104
 80037b8:	687b      	ldr	r3, [r7, #4]
 80037ba:	689b      	ldr	r3, [r3, #8]
 80037bc:	f403 4304 	and.w	r3, r3, #33792	@ 0x8400
 80037c0:	431a      	orrs	r2, r3
 80037c2:	687b      	ldr	r3, [r7, #4]
 80037c4:	691b      	ldr	r3, [r3, #16]
 80037c6:	f003 0302 	and.w	r3, r3, #2
 80037ca:	431a      	orrs	r2, r3
 80037cc:	687b      	ldr	r3, [r7, #4]
 80037ce:	695b      	ldr	r3, [r3, #20]
 80037d0:	f003 0301 	and.w	r3, r3, #1
 80037d4:	431a      	orrs	r2, r3
 80037d6:	687b      	ldr	r3, [r7, #4]
 80037d8:	699b      	ldr	r3, [r3, #24]
 80037da:	f403 7300 	and.w	r3, r3, #512	@ 0x200
 80037de:	431a      	orrs	r2, r3
 80037e0:	687b      	ldr	r3, [r7, #4]
 80037e2:	69db      	ldr	r3, [r3, #28]
 80037e4:	f003 0338 	and.w	r3, r3, #56	@ 0x38
 80037e8:	431a      	orrs	r2, r3
 80037ea:	687b      	ldr	r3, [r7, #4]
 80037ec:	6a1b      	ldr	r3, [r3, #32]
 80037ee:	f003 0380 	and.w	r3, r3, #128	@ 0x80
 80037f2:	ea42 0103 	orr.w	r1, r2, r3
 80037f6:	687b      	ldr	r3, [r7, #4]
 80037f8:	6a9b      	ldr	r3, [r3, #40]	@ 0x28
 80037fa:	f403 5200 	and.w	r2, r3, #8192	@ 0x2000
 80037fe:	687b      	ldr	r3, [r7, #4]
 8003800:	681b      	ldr	r3, [r3, #0]
 8003802:	430a      	orrs	r2, r1
 8003804:	601a      	str	r2, [r3, #0]
    }
  }
#endif /* USE_SPI_CRC */

  /* Configure : NSS management, TI Mode, NSS Pulse, Data size and Rx Fifo threshold */
  WRITE_REG(hspi->Instance->CR2, (((hspi->Init.NSS >> 16U) & SPI_CR2_SSOE) |
 8003806:	687b      	ldr	r3, [r7, #4]
 8003808:	699b      	ldr	r3, [r3, #24]
 800380a:	0c1b      	lsrs	r3, r3, #16
 800380c:	f003 0204 	and.w	r2, r3, #4
 8003810:	687b      	ldr	r3, [r7, #4]
 8003812:	6a5b      	ldr	r3, [r3, #36]	@ 0x24
 8003814:	f003 0310 	and.w	r3, r3, #16
 8003818:	431a      	orrs	r2, r3
 800381a:	687b      	ldr	r3, [r7, #4]
 800381c:	6b5b      	ldr	r3, [r3, #52]	@ 0x34
 800381e:	f003 0308 	and.w	r3, r3, #8
 8003822:	431a      	orrs	r2, r3
 8003824:	687b      	ldr	r3, [r7, #4]
 8003826:	68db      	ldr	r3, [r3, #12]
 8003828:	f403 6370 	and.w	r3, r3, #3840	@ 0xf00
 800382c:	ea42 0103 	orr.w	r1, r2, r3
 8003830:	68fb      	ldr	r3, [r7, #12]
 8003832:	f403 5280 	and.w	r2, r3, #4096	@ 0x1000
 8003836:	687b      	ldr	r3, [r7, #4]
 8003838:	681b      	ldr	r3, [r3, #0]
 800383a:	430a      	orrs	r2, r1
 800383c:	605a      	str	r2, [r3, #4]
  }
#endif /* USE_SPI_CRC */

#if defined(SPI_I2SCFGR_I2SMOD)
  /* Activate the SPI mode (Make sure that I2SMOD bit in I2SCFGR register is reset) */
  CLEAR_BIT(hspi->Instance->I2SCFGR, SPI_I2SCFGR_I2SMOD);
 800383e:	687b      	ldr	r3, [r7, #4]
 8003840:	681b      	ldr	r3, [r3, #0]
 8003842:	69da      	ldr	r2, [r3, #28]
 8003844:	687b      	ldr	r3, [r7, #4]
 8003846:	681b      	ldr	r3, [r3, #0]
 8003848:	f422 6200 	bic.w	r2, r2, #2048	@ 0x800
 800384c:	61da      	str	r2, [r3, #28]
#endif /* SPI_I2SCFGR_I2SMOD */

  hspi->ErrorCode = HAL_SPI_ERROR_NONE;
 800384e:	687b      	ldr	r3, [r7, #4]
 8003850:	2200      	movs	r2, #0
 8003852:	661a      	str	r2, [r3, #96]	@ 0x60
  hspi->State     = HAL_SPI_STATE_READY;
 8003854:	687b      	ldr	r3, [r7, #4]
 8003856:	2201      	movs	r2, #1
 8003858:	f883 205d 	strb.w	r2, [r3, #93]	@ 0x5d

  return HAL_OK;
 800385c:	2300      	movs	r3, #0
}
 800385e:	4618      	mov	r0, r3
 8003860:	3710      	adds	r7, #16
 8003862:	46bd      	mov	sp, r7
 8003864:	bd80      	pop	{r7, pc}

08003866 <HAL_SPI_Transmit>:
  * @param  Size amount of data elements (u8 or u16) to be sent
  * @param  Timeout Timeout duration in ms
  * @retval HAL status
  */
HAL_StatusTypeDef HAL_SPI_Transmit(SPI_HandleTypeDef *hspi, const uint8_t *pData, uint16_t Size, uint32_t Timeout)
{
 8003866:	b580      	push	{r7, lr}
 8003868:	b088      	sub	sp, #32
 800386a:	af00      	add	r7, sp, #0
 800386c:	60f8      	str	r0, [r7, #12]
 800386e:	60b9      	str	r1, [r7, #8]
 8003870:	603b      	str	r3, [r7, #0]
 8003872:	4613      	mov	r3, r2
 8003874:	80fb      	strh	r3, [r7, #6]

  /* Check Direction parameter */
  assert_param(IS_SPI_DIRECTION_2LINES_OR_1LINE(hspi->Init.Direction));

  /* Init tickstart for timeout management*/
  tickstart = HAL_GetTick();
 8003876:	f7fe feeb 	bl	8002650 <HAL_GetTick>
 800387a:	61f8      	str	r0, [r7, #28]
  initial_TxXferCount = Size;
 800387c:	88fb      	ldrh	r3, [r7, #6]
 800387e:	837b      	strh	r3, [r7, #26]

  if (hspi->State != HAL_SPI_STATE_READY)
 8003880:	68fb      	ldr	r3, [r7, #12]
 8003882:	f893 305d 	ldrb.w	r3, [r3, #93]	@ 0x5d
 8003886:	b2db      	uxtb	r3, r3
 8003888:	2b01      	cmp	r3, #1
 800388a:	d001      	beq.n	8003890 <HAL_SPI_Transmit+0x2a>
  {
    return HAL_BUSY;
 800388c:	2302      	movs	r3, #2
 800388e:	e15c      	b.n	8003b4a <HAL_SPI_Transmit+0x2e4>
  }

  if ((pData == NULL) || (Size == 0U))
 8003890:	68bb      	ldr	r3, [r7, #8]
 8003892:	2b00      	cmp	r3, #0
 8003894:	d002      	beq.n	800389c <HAL_SPI_Transmit+0x36>
 8003896:	88fb      	ldrh	r3, [r7, #6]
 8003898:	2b00      	cmp	r3, #0
 800389a:	d101      	bne.n	80038a0 <HAL_SPI_Transmit+0x3a>
  {
    return HAL_ERROR;
 800389c:	2301      	movs	r3, #1
 800389e:	e154      	b.n	8003b4a <HAL_SPI_Transmit+0x2e4>
  }

  /* Process Locked */
  __HAL_LOCK(hspi);
 80038a0:	68fb      	ldr	r3, [r7, #12]
 80038a2:	f893 305c 	ldrb.w	r3, [r3, #92]	@ 0x5c
 80038a6:	2b01      	cmp	r3, #1
 80038a8:	d101      	bne.n	80038ae <HAL_SPI_Transmit+0x48>
 80038aa:	2302      	movs	r3, #2
 80038ac:	e14d      	b.n	8003b4a <HAL_SPI_Transmit+0x2e4>
 80038ae:	68fb      	ldr	r3, [r7, #12]
 80038b0:	2201      	movs	r2, #1
 80038b2:	f883 205c 	strb.w	r2, [r3, #92]	@ 0x5c

  /* Set the transaction information */
  hspi->State       = HAL_SPI_STATE_BUSY_TX;
 80038b6:	68fb      	ldr	r3, [r7, #12]
 80038b8:	2203      	movs	r2, #3
 80038ba:	f883 205d 	strb.w	r2, [r3, #93]	@ 0x5d
  hspi->ErrorCode   = HAL_SPI_ERROR_NONE;
 80038be:	68fb      	ldr	r3, [r7, #12]
 80038c0:	2200      	movs	r2, #0
 80038c2:	661a      	str	r2, [r3, #96]	@ 0x60
  hspi->pTxBuffPtr  = (const uint8_t *)pData;
 80038c4:	68fb      	ldr	r3, [r7, #12]
 80038c6:	68ba      	ldr	r2, [r7, #8]
 80038c8:	639a      	str	r2, [r3, #56]	@ 0x38
  hspi->TxXferSize  = Size;
 80038ca:	68fb      	ldr	r3, [r7, #12]
 80038cc:	88fa      	ldrh	r2, [r7, #6]
 80038ce:	879a      	strh	r2, [r3, #60]	@ 0x3c
  hspi->TxXferCount = Size;
 80038d0:	68fb      	ldr	r3, [r7, #12]
 80038d2:	88fa      	ldrh	r2, [r7, #6]
 80038d4:	87da      	strh	r2, [r3, #62]	@ 0x3e

  /*Init field not used in handle to zero */
  hspi->pRxBuffPtr  = (uint8_t *)NULL;
 80038d6:	68fb      	ldr	r3, [r7, #12]
 80038d8:	2200      	movs	r2, #0
 80038da:	641a      	str	r2, [r3, #64]	@ 0x40
  hspi->RxXferSize  = 0U;
 80038dc:	68fb      	ldr	r3, [r7, #12]
 80038de:	2200      	movs	r2, #0
 80038e0:	f8a3 2044 	strh.w	r2, [r3, #68]	@ 0x44
  hspi->RxXferCount = 0U;
 80038e4:	68fb      	ldr	r3, [r7, #12]
 80038e6:	2200      	movs	r2, #0
 80038e8:	f8a3 2046 	strh.w	r2, [r3, #70]	@ 0x46
  hspi->TxISR       = NULL;
 80038ec:	68fb      	ldr	r3, [r7, #12]
 80038ee:	2200      	movs	r2, #0
 80038f0:	651a      	str	r2, [r3, #80]	@ 0x50
  hspi->RxISR       = NULL;
 80038f2:	68fb      	ldr	r3, [r7, #12]
 80038f4:	2200      	movs	r2, #0
 80038f6:	64da      	str	r2, [r3, #76]	@ 0x4c

  /* Configure communication direction : 1Line */
  if (hspi->Init.Direction == SPI_DIRECTION_1LINE)
 80038f8:	68fb      	ldr	r3, [r7, #12]
 80038fa:	689b      	ldr	r3, [r3, #8]
 80038fc:	f5b3 4f00 	cmp.w	r3, #32768	@ 0x8000
 8003900:	d10f      	bne.n	8003922 <HAL_SPI_Transmit+0xbc>
  {
    /* Disable SPI Peripheral before set 1Line direction (BIDIOE bit) */
    __HAL_SPI_DISABLE(hspi);
 8003902:	68fb      	ldr	r3, [r7, #12]
 8003904:	681b      	ldr	r3, [r3, #0]
 8003906:	681a      	ldr	r2, [r3, #0]
 8003908:	68fb      	ldr	r3, [r7, #12]
 800390a:	681b      	ldr	r3, [r3, #0]
 800390c:	f022 0240 	bic.w	r2, r2, #64	@ 0x40
 8003910:	601a      	str	r2, [r3, #0]
    SPI_1LINE_TX(hspi);
 8003912:	68fb      	ldr	r3, [r7, #12]
 8003914:	681b      	ldr	r3, [r3, #0]
 8003916:	681a      	ldr	r2, [r3, #0]
 8003918:	68fb      	ldr	r3, [r7, #12]
 800391a:	681b      	ldr	r3, [r3, #0]
 800391c:	f442 4280 	orr.w	r2, r2, #16384	@ 0x4000
 8003920:	601a      	str	r2, [r3, #0]
    SPI_RESET_CRC(hspi);
  }
#endif /* USE_SPI_CRC */

  /* Check if the SPI is already enabled */
  if ((hspi->Instance->CR1 & SPI_CR1_SPE) != SPI_CR1_SPE)
 8003922:	68fb      	ldr	r3, [r7, #12]
 8003924:	681b      	ldr	r3, [r3, #0]
 8003926:	681b      	ldr	r3, [r3, #0]
 8003928:	f003 0340 	and.w	r3, r3, #64	@ 0x40
 800392c:	2b40      	cmp	r3, #64	@ 0x40
 800392e:	d007      	beq.n	8003940 <HAL_SPI_Transmit+0xda>
  {
    /* Enable SPI peripheral */
    __HAL_SPI_ENABLE(hspi);
 8003930:	68fb      	ldr	r3, [r7, #12]
 8003932:	681b      	ldr	r3, [r3, #0]
 8003934:	681a      	ldr	r2, [r3, #0]
 8003936:	68fb      	ldr	r3, [r7, #12]
 8003938:	681b      	ldr	r3, [r3, #0]
 800393a:	f042 0240 	orr.w	r2, r2, #64	@ 0x40
 800393e:	601a      	str	r2, [r3, #0]
  }

  /* Transmit data in 16 Bit mode */
  if (hspi->Init.DataSize > SPI_DATASIZE_8BIT)
 8003940:	68fb      	ldr	r3, [r7, #12]
 8003942:	68db      	ldr	r3, [r3, #12]
 8003944:	f5b3 6fe0 	cmp.w	r3, #1792	@ 0x700
 8003948:	d952      	bls.n	80039f0 <HAL_SPI_Transmit+0x18a>
  {
    if ((hspi->Init.Mode == SPI_MODE_SLAVE) || (initial_TxXferCount == 0x01U))
 800394a:	68fb      	ldr	r3, [r7, #12]
 800394c:	685b      	ldr	r3, [r3, #4]
 800394e:	2b00      	cmp	r3, #0
 8003950:	d002      	beq.n	8003958 <HAL_SPI_Transmit+0xf2>
 8003952:	8b7b      	ldrh	r3, [r7, #26]
 8003954:	2b01      	cmp	r3, #1
 8003956:	d145      	bne.n	80039e4 <HAL_SPI_Transmit+0x17e>
    {
      hspi->Instance->DR = *((const uint16_t *)hspi->pTxBuffPtr);
 8003958:	68fb      	ldr	r3, [r7, #12]
 800395a:	6b9b      	ldr	r3, [r3, #56]	@ 0x38
 800395c:	881a      	ldrh	r2, [r3, #0]
 800395e:	68fb      	ldr	r3, [r7, #12]
 8003960:	681b      	ldr	r3, [r3, #0]
 8003962:	60da      	str	r2, [r3, #12]
      hspi->pTxBuffPtr += sizeof(uint16_t);
 8003964:	68fb      	ldr	r3, [r7, #12]
 8003966:	6b9b      	ldr	r3, [r3, #56]	@ 0x38
 8003968:	1c9a      	adds	r2, r3, #2
 800396a:	68fb      	ldr	r3, [r7, #12]
 800396c:	639a      	str	r2, [r3, #56]	@ 0x38
      hspi->TxXferCount--;
 800396e:	68fb      	ldr	r3, [r7, #12]
 8003970:	8fdb      	ldrh	r3, [r3, #62]	@ 0x3e
 8003972:	b29b      	uxth	r3, r3
 8003974:	3b01      	subs	r3, #1
 8003976:	b29a      	uxth	r2, r3
 8003978:	68fb      	ldr	r3, [r7, #12]
 800397a:	87da      	strh	r2, [r3, #62]	@ 0x3e
    }
    /* Transmit data in 16 Bit mode */
    while (hspi->TxXferCount > 0U)
 800397c:	e032      	b.n	80039e4 <HAL_SPI_Transmit+0x17e>
    {
      /* Wait until TXE flag is set to send data */
      if (__HAL_SPI_GET_FLAG(hspi, SPI_FLAG_TXE))
 800397e:	68fb      	ldr	r3, [r7, #12]
 8003980:	681b      	ldr	r3, [r3, #0]
 8003982:	689b      	ldr	r3, [r3, #8]
 8003984:	f003 0302 	and.w	r3, r3, #2
 8003988:	2b02      	cmp	r3, #2
 800398a:	d112      	bne.n	80039b2 <HAL_SPI_Transmit+0x14c>
      {
        hspi->Instance->DR = *((const uint16_t *)hspi->pTxBuffPtr);
 800398c:	68fb      	ldr	r3, [r7, #12]
 800398e:	6b9b      	ldr	r3, [r3, #56]	@ 0x38
 8003990:	881a      	ldrh	r2, [r3, #0]
 8003992:	68fb      	ldr	r3, [r7, #12]
 8003994:	681b      	ldr	r3, [r3, #0]
 8003996:	60da      	str	r2, [r3, #12]
        hspi->pTxBuffPtr += sizeof(uint16_t);
 8003998:	68fb      	ldr	r3, [r7, #12]
 800399a:	6b9b      	ldr	r3, [r3, #56]	@ 0x38
 800399c:	1c9a      	adds	r2, r3, #2
 800399e:	68fb      	ldr	r3, [r7, #12]
 80039a0:	639a      	str	r2, [r3, #56]	@ 0x38
        hspi->TxXferCount--;
 80039a2:	68fb      	ldr	r3, [r7, #12]
 80039a4:	8fdb      	ldrh	r3, [r3, #62]	@ 0x3e
 80039a6:	b29b      	uxth	r3, r3
 80039a8:	3b01      	subs	r3, #1
 80039aa:	b29a      	uxth	r2, r3
 80039ac:	68fb      	ldr	r3, [r7, #12]
 80039ae:	87da      	strh	r2, [r3, #62]	@ 0x3e
 80039b0:	e018      	b.n	80039e4 <HAL_SPI_Transmit+0x17e>
      }
      else
      {
        /* Timeout management */
        if ((((HAL_GetTick() - tickstart) >=  Timeout) && (Timeout != HAL_MAX_DELAY)) || (Timeout == 0U))
 80039b2:	f7fe fe4d 	bl	8002650 <HAL_GetTick>
 80039b6:	4602      	mov	r2, r0
 80039b8:	69fb      	ldr	r3, [r7, #28]
 80039ba:	1ad3      	subs	r3, r2, r3
 80039bc:	683a      	ldr	r2, [r7, #0]
 80039be:	429a      	cmp	r2, r3
 80039c0:	d803      	bhi.n	80039ca <HAL_SPI_Transmit+0x164>
 80039c2:	683b      	ldr	r3, [r7, #0]
 80039c4:	f1b3 3fff 	cmp.w	r3, #4294967295
 80039c8:	d102      	bne.n	80039d0 <HAL_SPI_Transmit+0x16a>
 80039ca:	683b      	ldr	r3, [r7, #0]
 80039cc:	2b00      	cmp	r3, #0
 80039ce:	d109      	bne.n	80039e4 <HAL_SPI_Transmit+0x17e>
        {
          hspi->State = HAL_SPI_STATE_READY;
 80039d0:	68fb      	ldr	r3, [r7, #12]
 80039d2:	2201      	movs	r2, #1
 80039d4:	f883 205d 	strb.w	r2, [r3, #93]	@ 0x5d
          __HAL_UNLOCK(hspi);
 80039d8:	68fb      	ldr	r3, [r7, #12]
 80039da:	2200      	movs	r2, #0
 80039dc:	f883 205c 	strb.w	r2, [r3, #92]	@ 0x5c
          return HAL_TIMEOUT;
 80039e0:	2303      	movs	r3, #3
 80039e2:	e0b2      	b.n	8003b4a <HAL_SPI_Transmit+0x2e4>
    while (hspi->TxXferCount > 0U)
 80039e4:	68fb      	ldr	r3, [r7, #12]
 80039e6:	8fdb      	ldrh	r3, [r3, #62]	@ 0x3e
 80039e8:	b29b      	uxth	r3, r3
 80039ea:	2b00      	cmp	r3, #0
 80039ec:	d1c7      	bne.n	800397e <HAL_SPI_Transmit+0x118>
 80039ee:	e083      	b.n	8003af8 <HAL_SPI_Transmit+0x292>
    }
  }
  /* Transmit data in 8 Bit mode */
  else
  {
    if ((hspi->Init.Mode == SPI_MODE_SLAVE) || (initial_TxXferCount == 0x01U))
 80039f0:	68fb      	ldr	r3, [r7, #12]
 80039f2:	685b      	ldr	r3, [r3, #4]
 80039f4:	2b00      	cmp	r3, #0
 80039f6:	d002      	beq.n	80039fe <HAL_SPI_Transmit+0x198>
 80039f8:	8b7b      	ldrh	r3, [r7, #26]
 80039fa:	2b01      	cmp	r3, #1
 80039fc:	d177      	bne.n	8003aee <HAL_SPI_Transmit+0x288>
    {
      if (hspi->TxXferCount > 1U)
 80039fe:	68fb      	ldr	r3, [r7, #12]
 8003a00:	8fdb      	ldrh	r3, [r3, #62]	@ 0x3e
 8003a02:	b29b      	uxth	r3, r3
 8003a04:	2b01      	cmp	r3, #1
 8003a06:	d912      	bls.n	8003a2e <HAL_SPI_Transmit+0x1c8>
      {
        /* write on the data register in packing mode */
        hspi->Instance->DR = *((const uint16_t *)hspi->pTxBuffPtr);
 8003a08:	68fb      	ldr	r3, [r7, #12]
 8003a0a:	6b9b      	ldr	r3, [r3, #56]	@ 0x38
 8003a0c:	881a      	ldrh	r2, [r3, #0]
 8003a0e:	68fb      	ldr	r3, [r7, #12]
 8003a10:	681b      	ldr	r3, [r3, #0]
 8003a12:	60da      	str	r2, [r3, #12]
        hspi->pTxBuffPtr += sizeof(uint16_t);
 8003a14:	68fb      	ldr	r3, [r7, #12]
 8003a16:	6b9b      	ldr	r3, [r3, #56]	@ 0x38
 8003a18:	1c9a      	adds	r2, r3, #2
 8003a1a:	68fb      	ldr	r3, [r7, #12]
 8003a1c:	639a      	str	r2, [r3, #56]	@ 0x38
        hspi->TxXferCount -= 2U;
 8003a1e:	68fb      	ldr	r3, [r7, #12]
 8003a20:	8fdb      	ldrh	r3, [r3, #62]	@ 0x3e
 8003a22:	b29b      	uxth	r3, r3
 8003a24:	3b02      	subs	r3, #2
 8003a26:	b29a      	uxth	r2, r3
 8003a28:	68fb      	ldr	r3, [r7, #12]
 8003a2a:	87da      	strh	r2, [r3, #62]	@ 0x3e
 8003a2c:	e05f      	b.n	8003aee <HAL_SPI_Transmit+0x288>
      }
      else
      {
        *((__IO uint8_t *)&hspi->Instance->DR) = *((const uint8_t *)hspi->pTxBuffPtr);
 8003a2e:	68fb      	ldr	r3, [r7, #12]
 8003a30:	6b9a      	ldr	r2, [r3, #56]	@ 0x38
 8003a32:	68fb      	ldr	r3, [r7, #12]
 8003a34:	681b      	ldr	r3, [r3, #0]
 8003a36:	330c      	adds	r3, #12
 8003a38:	7812      	ldrb	r2, [r2, #0]
 8003a3a:	701a      	strb	r2, [r3, #0]
        hspi->pTxBuffPtr ++;
 8003a3c:	68fb      	ldr	r3, [r7, #12]
 8003a3e:	6b9b      	ldr	r3, [r3, #56]	@ 0x38
 8003a40:	1c5a      	adds	r2, r3, #1
 8003a42:	68fb      	ldr	r3, [r7, #12]
 8003a44:	639a      	str	r2, [r3, #56]	@ 0x38
        hspi->TxXferCount--;
 8003a46:	68fb      	ldr	r3, [r7, #12]
 8003a48:	8fdb      	ldrh	r3, [r3, #62]	@ 0x3e
 8003a4a:	b29b      	uxth	r3, r3
 8003a4c:	3b01      	subs	r3, #1
 8003a4e:	b29a      	uxth	r2, r3
 8003a50:	68fb      	ldr	r3, [r7, #12]
 8003a52:	87da      	strh	r2, [r3, #62]	@ 0x3e
      }
    }
    while (hspi->TxXferCount > 0U)
 8003a54:	e04b      	b.n	8003aee <HAL_SPI_Transmit+0x288>
    {
      /* Wait until TXE flag is set to send data */
      if (__HAL_SPI_GET_FLAG(hspi, SPI_FLAG_TXE))
 8003a56:	68fb      	ldr	r3, [r7, #12]
 8003a58:	681b      	ldr	r3, [r3, #0]
 8003a5a:	689b      	ldr	r3, [r3, #8]
 8003a5c:	f003 0302 	and.w	r3, r3, #2
 8003a60:	2b02      	cmp	r3, #2
 8003a62:	d12b      	bne.n	8003abc <HAL_SPI_Transmit+0x256>
      {
        if (hspi->TxXferCount > 1U)
 8003a64:	68fb      	ldr	r3, [r7, #12]
 8003a66:	8fdb      	ldrh	r3, [r3, #62]	@ 0x3e
 8003a68:	b29b      	uxth	r3, r3
 8003a6a:	2b01      	cmp	r3, #1
 8003a6c:	d912      	bls.n	8003a94 <HAL_SPI_Transmit+0x22e>
        {
          /* write on the data register in packing mode */
          hspi->Instance->DR = *((const uint16_t *)hspi->pTxBuffPtr);
 8003a6e:	68fb      	ldr	r3, [r7, #12]
 8003a70:	6b9b      	ldr	r3, [r3, #56]	@ 0x38
 8003a72:	881a      	ldrh	r2, [r3, #0]
 8003a74:	68fb      	ldr	r3, [r7, #12]
 8003a76:	681b      	ldr	r3, [r3, #0]
 8003a78:	60da      	str	r2, [r3, #12]
          hspi->pTxBuffPtr += sizeof(uint16_t);
 8003a7a:	68fb      	ldr	r3, [r7, #12]
 8003a7c:	6b9b      	ldr	r3, [r3, #56]	@ 0x38
 8003a7e:	1c9a      	adds	r2, r3, #2
 8003a80:	68fb      	ldr	r3, [r7, #12]
 8003a82:	639a      	str	r2, [r3, #56]	@ 0x38
          hspi->TxXferCount -= 2U;
 8003a84:	68fb      	ldr	r3, [r7, #12]
 8003a86:	8fdb      	ldrh	r3, [r3, #62]	@ 0x3e
 8003a88:	b29b      	uxth	r3, r3
 8003a8a:	3b02      	subs	r3, #2
 8003a8c:	b29a      	uxth	r2, r3
 8003a8e:	68fb      	ldr	r3, [r7, #12]
 8003a90:	87da      	strh	r2, [r3, #62]	@ 0x3e
 8003a92:	e02c      	b.n	8003aee <HAL_SPI_Transmit+0x288>
        }
        else
        {
          *((__IO uint8_t *)&hspi->Instance->DR) = *((const uint8_t *)hspi->pTxBuffPtr);
 8003a94:	68fb      	ldr	r3, [r7, #12]
 8003a96:	6b9a      	ldr	r2, [r3, #56]	@ 0x38
 8003a98:	68fb      	ldr	r3, [r7, #12]
 8003a9a:	681b      	ldr	r3, [r3, #0]
 8003a9c:	330c      	adds	r3, #12
 8003a9e:	7812      	ldrb	r2, [r2, #0]
 8003aa0:	701a      	strb	r2, [r3, #0]
          hspi->pTxBuffPtr++;
 8003aa2:	68fb      	ldr	r3, [r7, #12]
 8003aa4:	6b9b      	ldr	r3, [r3, #56]	@ 0x38
 8003aa6:	1c5a      	adds	r2, r3, #1
 8003aa8:	68fb      	ldr	r3, [r7, #12]
 8003aaa:	639a      	str	r2, [r3, #56]	@ 0x38
          hspi->TxXferCount--;
 8003aac:	68fb      	ldr	r3, [r7, #12]
 8003aae:	8fdb      	ldrh	r3, [r3, #62]	@ 0x3e
 8003ab0:	b29b      	uxth	r3, r3
 8003ab2:	3b01      	subs	r3, #1
 8003ab4:	b29a      	uxth	r2, r3
 8003ab6:	68fb      	ldr	r3, [r7, #12]
 8003ab8:	87da      	strh	r2, [r3, #62]	@ 0x3e
 8003aba:	e018      	b.n	8003aee <HAL_SPI_Transmit+0x288>
        }
      }
      else
      {
        /* Timeout management */
        if ((((HAL_GetTick() - tickstart) >=  Timeout) && (Timeout != HAL_MAX_DELAY)) || (Timeout == 0U))
 8003abc:	f7fe fdc8 	bl	8002650 <HAL_GetTick>
 8003ac0:	4602      	mov	r2, r0
 8003ac2:	69fb      	ldr	r3, [r7, #28]
 8003ac4:	1ad3      	subs	r3, r2, r3
 8003ac6:	683a      	ldr	r2, [r7, #0]
 8003ac8:	429a      	cmp	r2, r3
 8003aca:	d803      	bhi.n	8003ad4 <HAL_SPI_Transmit+0x26e>
 8003acc:	683b      	ldr	r3, [r7, #0]
 8003ace:	f1b3 3fff 	cmp.w	r3, #4294967295
 8003ad2:	d102      	bne.n	8003ada <HAL_SPI_Transmit+0x274>
 8003ad4:	683b      	ldr	r3, [r7, #0]
 8003ad6:	2b00      	cmp	r3, #0
 8003ad8:	d109      	bne.n	8003aee <HAL_SPI_Transmit+0x288>
        {
          hspi->State = HAL_SPI_STATE_READY;
 8003ada:	68fb      	ldr	r3, [r7, #12]
 8003adc:	2201      	movs	r2, #1
 8003ade:	f883 205d 	strb.w	r2, [r3, #93]	@ 0x5d
          __HAL_UNLOCK(hspi);
 8003ae2:	68fb      	ldr	r3, [r7, #12]
 8003ae4:	2200      	movs	r2, #0
 8003ae6:	f883 205c 	strb.w	r2, [r3, #92]	@ 0x5c
          return HAL_TIMEOUT;
 8003aea:	2303      	movs	r3, #3
 8003aec:	e02d      	b.n	8003b4a <HAL_SPI_Transmit+0x2e4>
    while (hspi->TxXferCount > 0U)
 8003aee:	68fb      	ldr	r3, [r7, #12]
 8003af0:	8fdb      	ldrh	r3, [r3, #62]	@ 0x3e
 8003af2:	b29b      	uxth	r3, r3
 8003af4:	2b00      	cmp	r3, #0
 8003af6:	d1ae      	bne.n	8003a56 <HAL_SPI_Transmit+0x1f0>
    SET_BIT(hspi->Instance->CR1, SPI_CR1_CRCNEXT);
  }
#endif /* USE_SPI_CRC */

  /* Check the end of the transaction */
  if (SPI_EndRxTxTransaction(hspi, Timeout, tickstart) != HAL_OK)
 8003af8:	69fa      	ldr	r2, [r7, #28]
 8003afa:	6839      	ldr	r1, [r7, #0]
 8003afc:	68f8      	ldr	r0, [r7, #12]
 8003afe:	f000 f947 	bl	8003d90 <SPI_EndRxTxTransaction>
 8003b02:	4603      	mov	r3, r0
 8003b04:	2b00      	cmp	r3, #0
 8003b06:	d002      	beq.n	8003b0e <HAL_SPI_Transmit+0x2a8>
  {
    hspi->ErrorCode = HAL_SPI_ERROR_FLAG;
 8003b08:	68fb      	ldr	r3, [r7, #12]
 8003b0a:	2220      	movs	r2, #32
 8003b0c:	661a      	str	r2, [r3, #96]	@ 0x60
  }

  /* Clear overrun flag in 2 Lines communication mode because received is not read */
  if (hspi->Init.Direction == SPI_DIRECTION_2LINES)
 8003b0e:	68fb      	ldr	r3, [r7, #12]
 8003b10:	689b      	ldr	r3, [r3, #8]
 8003b12:	2b00      	cmp	r3, #0
 8003b14:	d10a      	bne.n	8003b2c <HAL_SPI_Transmit+0x2c6>
  {
    __HAL_SPI_CLEAR_OVRFLAG(hspi);
 8003b16:	2300      	movs	r3, #0
 8003b18:	617b      	str	r3, [r7, #20]
 8003b1a:	68fb      	ldr	r3, [r7, #12]
 8003b1c:	681b      	ldr	r3, [r3, #0]
 8003b1e:	68db      	ldr	r3, [r3, #12]
 8003b20:	617b      	str	r3, [r7, #20]
 8003b22:	68fb      	ldr	r3, [r7, #12]
 8003b24:	681b      	ldr	r3, [r3, #0]
 8003b26:	689b      	ldr	r3, [r3, #8]
 8003b28:	617b      	str	r3, [r7, #20]
 8003b2a:	697b      	ldr	r3, [r7, #20]
  }

  hspi->State = HAL_SPI_STATE_READY;
 8003b2c:	68fb      	ldr	r3, [r7, #12]
 8003b2e:	2201      	movs	r2, #1
 8003b30:	f883 205d 	strb.w	r2, [r3, #93]	@ 0x5d
  /* Process Unlocked */
  __HAL_UNLOCK(hspi);
 8003b34:	68fb      	ldr	r3, [r7, #12]
 8003b36:	2200      	movs	r2, #0
 8003b38:	f883 205c 	strb.w	r2, [r3, #92]	@ 0x5c

  if (hspi->ErrorCode != HAL_SPI_ERROR_NONE)
 8003b3c:	68fb      	ldr	r3, [r7, #12]
 8003b3e:	6e1b      	ldr	r3, [r3, #96]	@ 0x60
 8003b40:	2b00      	cmp	r3, #0
 8003b42:	d001      	beq.n	8003b48 <HAL_SPI_Transmit+0x2e2>
  {
    return HAL_ERROR;
 8003b44:	2301      	movs	r3, #1
 8003b46:	e000      	b.n	8003b4a <HAL_SPI_Transmit+0x2e4>
  }
  else
  {
    return HAL_OK;
 8003b48:	2300      	movs	r3, #0
  }
}
 8003b4a:	4618      	mov	r0, r3
 8003b4c:	3720      	adds	r7, #32
 8003b4e:	46bd      	mov	sp, r7
 8003b50:	bd80      	pop	{r7, pc}
	...

08003b54 <SPI_WaitFlagStateUntilTimeout>:
  * @param  Tickstart tick start value
  * @retval HAL status
  */
static HAL_StatusTypeDef SPI_WaitFlagStateUntilTimeout(SPI_HandleTypeDef *hspi, uint32_t Flag, FlagStatus State,
                                                       uint32_t Timeout, uint32_t Tickstart)
{
 8003b54:	b580      	push	{r7, lr}
 8003b56:	b088      	sub	sp, #32
 8003b58:	af00      	add	r7, sp, #0
 8003b5a:	60f8      	str	r0, [r7, #12]
 8003b5c:	60b9      	str	r1, [r7, #8]
 8003b5e:	603b      	str	r3, [r7, #0]
 8003b60:	4613      	mov	r3, r2
 8003b62:	71fb      	strb	r3, [r7, #7]
  __IO uint32_t count;
  uint32_t tmp_timeout;
  uint32_t tmp_tickstart;

  /* Adjust Timeout value  in case of end of transfer */
  tmp_timeout   = Timeout - (HAL_GetTick() - Tickstart);
 8003b64:	f7fe fd74 	bl	8002650 <HAL_GetTick>
 8003b68:	4602      	mov	r2, r0
 8003b6a:	6abb      	ldr	r3, [r7, #40]	@ 0x28
 8003b6c:	1a9b      	subs	r3, r3, r2
 8003b6e:	683a      	ldr	r2, [r7, #0]
 8003b70:	4413      	add	r3, r2
 8003b72:	61fb      	str	r3, [r7, #28]
  tmp_tickstart = HAL_GetTick();
 8003b74:	f7fe fd6c 	bl	8002650 <HAL_GetTick>
 8003b78:	61b8      	str	r0, [r7, #24]

  /* Calculate Timeout based on a software loop to avoid blocking issue if Systick is disabled */
  count = tmp_timeout * ((SystemCoreClock * 32U) >> 20U);
 8003b7a:	4b39      	ldr	r3, [pc, #228]	@ (8003c60 <SPI_WaitFlagStateUntilTimeout+0x10c>)
 8003b7c:	681b      	ldr	r3, [r3, #0]
 8003b7e:	015b      	lsls	r3, r3, #5
 8003b80:	0d1b      	lsrs	r3, r3, #20
 8003b82:	69fa      	ldr	r2, [r7, #28]
 8003b84:	fb02 f303 	mul.w	r3, r2, r3
 8003b88:	617b      	str	r3, [r7, #20]

  while ((__HAL_SPI_GET_FLAG(hspi, Flag) ? SET : RESET) != State)
 8003b8a:	e055      	b.n	8003c38 <SPI_WaitFlagStateUntilTimeout+0xe4>
  {
    if (Timeout != HAL_MAX_DELAY)
 8003b8c:	683b      	ldr	r3, [r7, #0]
 8003b8e:	f1b3 3fff 	cmp.w	r3, #4294967295
 8003b92:	d051      	beq.n	8003c38 <SPI_WaitFlagStateUntilTimeout+0xe4>
    {
      if (((HAL_GetTick() - tmp_tickstart) >= tmp_timeout) || (tmp_timeout == 0U))
 8003b94:	f7fe fd5c 	bl	8002650 <HAL_GetTick>
 8003b98:	4602      	mov	r2, r0
 8003b9a:	69bb      	ldr	r3, [r7, #24]
 8003b9c:	1ad3      	subs	r3, r2, r3
 8003b9e:	69fa      	ldr	r2, [r7, #28]
 8003ba0:	429a      	cmp	r2, r3
 8003ba2:	d902      	bls.n	8003baa <SPI_WaitFlagStateUntilTimeout+0x56>
 8003ba4:	69fb      	ldr	r3, [r7, #28]
 8003ba6:	2b00      	cmp	r3, #0
 8003ba8:	d13d      	bne.n	8003c26 <SPI_WaitFlagStateUntilTimeout+0xd2>
        /* Disable the SPI and reset the CRC: the CRC value should be cleared
           on both master and slave sides in order to resynchronize the master
           and slave for their respective CRC calculation */

        /* Disable TXE, RXNE and ERR interrupts for the interrupt process */
        __HAL_SPI_DISABLE_IT(hspi, (SPI_IT_TXE | SPI_IT_RXNE | SPI_IT_ERR));
 8003baa:	68fb      	ldr	r3, [r7, #12]
 8003bac:	681b      	ldr	r3, [r3, #0]
 8003bae:	685a      	ldr	r2, [r3, #4]
 8003bb0:	68fb      	ldr	r3, [r7, #12]
 8003bb2:	681b      	ldr	r3, [r3, #0]
 8003bb4:	f022 02e0 	bic.w	r2, r2, #224	@ 0xe0
 8003bb8:	605a      	str	r2, [r3, #4]

        if ((hspi->Init.Mode == SPI_MODE_MASTER) && ((hspi->Init.Direction == SPI_DIRECTION_1LINE)
 8003bba:	68fb      	ldr	r3, [r7, #12]
 8003bbc:	685b      	ldr	r3, [r3, #4]
 8003bbe:	f5b3 7f82 	cmp.w	r3, #260	@ 0x104
 8003bc2:	d111      	bne.n	8003be8 <SPI_WaitFlagStateUntilTimeout+0x94>
 8003bc4:	68fb      	ldr	r3, [r7, #12]
 8003bc6:	689b      	ldr	r3, [r3, #8]
 8003bc8:	f5b3 4f00 	cmp.w	r3, #32768	@ 0x8000
 8003bcc:	d004      	beq.n	8003bd8 <SPI_WaitFlagStateUntilTimeout+0x84>
                                                     || (hspi->Init.Direction == SPI_DIRECTION_2LINES_RXONLY)))
 8003bce:	68fb      	ldr	r3, [r7, #12]
 8003bd0:	689b      	ldr	r3, [r3, #8]
 8003bd2:	f5b3 6f80 	cmp.w	r3, #1024	@ 0x400
 8003bd6:	d107      	bne.n	8003be8 <SPI_WaitFlagStateUntilTimeout+0x94>
        {
          /* Disable SPI peripheral */
          __HAL_SPI_DISABLE(hspi);
 8003bd8:	68fb      	ldr	r3, [r7, #12]
 8003bda:	681b      	ldr	r3, [r3, #0]
 8003bdc:	681a      	ldr	r2, [r3, #0]
 8003bde:	68fb      	ldr	r3, [r7, #12]
 8003be0:	681b      	ldr	r3, [r3, #0]
 8003be2:	f022 0240 	bic.w	r2, r2, #64	@ 0x40
 8003be6:	601a      	str	r2, [r3, #0]
        }

        /* Reset CRC Calculation */
        if (hspi->Init.CRCCalculation == SPI_CRCCALCULATION_ENABLE)
 8003be8:	68fb      	ldr	r3, [r7, #12]
 8003bea:	6a9b      	ldr	r3, [r3, #40]	@ 0x28
 8003bec:	f5b3 5f00 	cmp.w	r3, #8192	@ 0x2000
 8003bf0:	d10f      	bne.n	8003c12 <SPI_WaitFlagStateUntilTimeout+0xbe>
        {
          SPI_RESET_CRC(hspi);
 8003bf2:	68fb      	ldr	r3, [r7, #12]
 8003bf4:	681b      	ldr	r3, [r3, #0]
 8003bf6:	681a      	ldr	r2, [r3, #0]
 8003bf8:	68fb      	ldr	r3, [r7, #12]
 8003bfa:	681b      	ldr	r3, [r3, #0]
 8003bfc:	f422 5200 	bic.w	r2, r2, #8192	@ 0x2000
 8003c00:	601a      	str	r2, [r3, #0]
 8003c02:	68fb      	ldr	r3, [r7, #12]
 8003c04:	681b      	ldr	r3, [r3, #0]
 8003c06:	681a      	ldr	r2, [r3, #0]
 8003c08:	68fb      	ldr	r3, [r7, #12]
 8003c0a:	681b      	ldr	r3, [r3, #0]
 8003c0c:	f442 5200 	orr.w	r2, r2, #8192	@ 0x2000
 8003c10:	601a      	str	r2, [r3, #0]
        }

        hspi->State = HAL_SPI_STATE_READY;
 8003c12:	68fb      	ldr	r3, [r7, #12]
 8003c14:	2201      	movs	r2, #1
 8003c16:	f883 205d 	strb.w	r2, [r3, #93]	@ 0x5d

        /* Process Unlocked */
        __HAL_UNLOCK(hspi);
 8003c1a:	68fb      	ldr	r3, [r7, #12]
 8003c1c:	2200      	movs	r2, #0
 8003c1e:	f883 205c 	strb.w	r2, [r3, #92]	@ 0x5c

        return HAL_TIMEOUT;
 8003c22:	2303      	movs	r3, #3
 8003c24:	e018      	b.n	8003c58 <SPI_WaitFlagStateUntilTimeout+0x104>
      }
      /* If Systick is disabled or not incremented, deactivate timeout to go in disable loop procedure */
      if (count == 0U)
 8003c26:	697b      	ldr	r3, [r7, #20]
 8003c28:	2b00      	cmp	r3, #0
 8003c2a:	d102      	bne.n	8003c32 <SPI_WaitFlagStateUntilTimeout+0xde>
      {
        tmp_timeout = 0U;
 8003c2c:	2300      	movs	r3, #0
 8003c2e:	61fb      	str	r3, [r7, #28]
 8003c30:	e002      	b.n	8003c38 <SPI_WaitFlagStateUntilTimeout+0xe4>
      }
      else
      {
        count--;
 8003c32:	697b      	ldr	r3, [r7, #20]
 8003c34:	3b01      	subs	r3, #1
 8003c36:	617b      	str	r3, [r7, #20]
  while ((__HAL_SPI_GET_FLAG(hspi, Flag) ? SET : RESET) != State)
 8003c38:	68fb      	ldr	r3, [r7, #12]
 8003c3a:	681b      	ldr	r3, [r3, #0]
 8003c3c:	689a      	ldr	r2, [r3, #8]
 8003c3e:	68bb      	ldr	r3, [r7, #8]
 8003c40:	4013      	ands	r3, r2
 8003c42:	68ba      	ldr	r2, [r7, #8]
 8003c44:	429a      	cmp	r2, r3
 8003c46:	bf0c      	ite	eq
 8003c48:	2301      	moveq	r3, #1
 8003c4a:	2300      	movne	r3, #0
 8003c4c:	b2db      	uxtb	r3, r3
 8003c4e:	461a      	mov	r2, r3
 8003c50:	79fb      	ldrb	r3, [r7, #7]
 8003c52:	429a      	cmp	r2, r3
 8003c54:	d19a      	bne.n	8003b8c <SPI_WaitFlagStateUntilTimeout+0x38>
      }
    }
  }

  return HAL_OK;
 8003c56:	2300      	movs	r3, #0
}
 8003c58:	4618      	mov	r0, r3
 8003c5a:	3720      	adds	r7, #32
 8003c5c:	46bd      	mov	sp, r7
 8003c5e:	bd80      	pop	{r7, pc}
 8003c60:	20000000 	.word	0x20000000

08003c64 <SPI_WaitFifoStateUntilTimeout>:
  * @param  Tickstart tick start value
  * @retval HAL status
  */
static HAL_StatusTypeDef SPI_WaitFifoStateUntilTimeout(SPI_HandleTypeDef *hspi, uint32_t Fifo, uint32_t State,
                                                       uint32_t Timeout, uint32_t Tickstart)
{
 8003c64:	b580      	push	{r7, lr}
 8003c66:	b08a      	sub	sp, #40	@ 0x28
 8003c68:	af00      	add	r7, sp, #0
 8003c6a:	60f8      	str	r0, [r7, #12]
 8003c6c:	60b9      	str	r1, [r7, #8]
 8003c6e:	607a      	str	r2, [r7, #4]
 8003c70:	603b      	str	r3, [r7, #0]
  __IO uint32_t count;
  uint32_t tmp_timeout;
  uint32_t tmp_tickstart;
  __IO const uint8_t  *ptmpreg8;
  __IO uint8_t  tmpreg8 = 0;
 8003c72:	2300      	movs	r3, #0
 8003c74:	75fb      	strb	r3, [r7, #23]

  /* Adjust Timeout value  in case of end of transfer */
  tmp_timeout = Timeout - (HAL_GetTick() - Tickstart);
 8003c76:	f7fe fceb 	bl	8002650 <HAL_GetTick>
 8003c7a:	4602      	mov	r2, r0
 8003c7c:	6b3b      	ldr	r3, [r7, #48]	@ 0x30
 8003c7e:	1a9b      	subs	r3, r3, r2
 8003c80:	683a      	ldr	r2, [r7, #0]
 8003c82:	4413      	add	r3, r2
 8003c84:	627b      	str	r3, [r7, #36]	@ 0x24
  tmp_tickstart = HAL_GetTick();
 8003c86:	f7fe fce3 	bl	8002650 <HAL_GetTick>
 8003c8a:	6238      	str	r0, [r7, #32]

  /* Initialize the 8bit temporary pointer */
  ptmpreg8 = (__IO uint8_t *)&hspi->Instance->DR;
 8003c8c:	68fb      	ldr	r3, [r7, #12]
 8003c8e:	681b      	ldr	r3, [r3, #0]
 8003c90:	330c      	adds	r3, #12
 8003c92:	61fb      	str	r3, [r7, #28]

  /* Calculate Timeout based on a software loop to avoid blocking issue if Systick is disabled */
  count = tmp_timeout * ((SystemCoreClock * 35U) >> 20U);
 8003c94:	4b3d      	ldr	r3, [pc, #244]	@ (8003d8c <SPI_WaitFifoStateUntilTimeout+0x128>)
 8003c96:	681a      	ldr	r2, [r3, #0]
 8003c98:	4613      	mov	r3, r2
 8003c9a:	009b      	lsls	r3, r3, #2
 8003c9c:	4413      	add	r3, r2
 8003c9e:	00da      	lsls	r2, r3, #3
 8003ca0:	1ad3      	subs	r3, r2, r3
 8003ca2:	0d1b      	lsrs	r3, r3, #20
 8003ca4:	6a7a      	ldr	r2, [r7, #36]	@ 0x24
 8003ca6:	fb02 f303 	mul.w	r3, r2, r3
 8003caa:	61bb      	str	r3, [r7, #24]

  while ((hspi->Instance->SR & Fifo) != State)
 8003cac:	e061      	b.n	8003d72 <SPI_WaitFifoStateUntilTimeout+0x10e>
  {
    if ((Fifo == SPI_SR_FRLVL) && (State == SPI_FRLVL_EMPTY))
 8003cae:	68bb      	ldr	r3, [r7, #8]
 8003cb0:	f5b3 6fc0 	cmp.w	r3, #1536	@ 0x600
 8003cb4:	d107      	bne.n	8003cc6 <SPI_WaitFifoStateUntilTimeout+0x62>
 8003cb6:	687b      	ldr	r3, [r7, #4]
 8003cb8:	2b00      	cmp	r3, #0
 8003cba:	d104      	bne.n	8003cc6 <SPI_WaitFifoStateUntilTimeout+0x62>
    {
      /* Flush Data Register by a blank read */
      tmpreg8 = *ptmpreg8;
 8003cbc:	69fb      	ldr	r3, [r7, #28]
 8003cbe:	781b      	ldrb	r3, [r3, #0]
 8003cc0:	b2db      	uxtb	r3, r3
 8003cc2:	75fb      	strb	r3, [r7, #23]
      /* To avoid GCC warning */
      UNUSED(tmpreg8);
 8003cc4:	7dfb      	ldrb	r3, [r7, #23]
    }

    if (Timeout != HAL_MAX_DELAY)
 8003cc6:	683b      	ldr	r3, [r7, #0]
 8003cc8:	f1b3 3fff 	cmp.w	r3, #4294967295
 8003ccc:	d051      	beq.n	8003d72 <SPI_WaitFifoStateUntilTimeout+0x10e>
    {
      if (((HAL_GetTick() - tmp_tickstart) >= tmp_timeout) || (tmp_timeout == 0U))
 8003cce:	f7fe fcbf 	bl	8002650 <HAL_GetTick>
 8003cd2:	4602      	mov	r2, r0
 8003cd4:	6a3b      	ldr	r3, [r7, #32]
 8003cd6:	1ad3      	subs	r3, r2, r3
 8003cd8:	6a7a      	ldr	r2, [r7, #36]	@ 0x24
 8003cda:	429a      	cmp	r2, r3
 8003cdc:	d902      	bls.n	8003ce4 <SPI_WaitFifoStateUntilTimeout+0x80>
 8003cde:	6a7b      	ldr	r3, [r7, #36]	@ 0x24
 8003ce0:	2b00      	cmp	r3, #0
 8003ce2:	d13d      	bne.n	8003d60 <SPI_WaitFifoStateUntilTimeout+0xfc>
        /* Disable the SPI and reset the CRC: the CRC value should be cleared
           on both master and slave sides in order to resynchronize the master
           and slave for their respective CRC calculation */

        /* Disable TXE, RXNE and ERR interrupts for the interrupt process */
        __HAL_SPI_DISABLE_IT(hspi, (SPI_IT_TXE | SPI_IT_RXNE | SPI_IT_ERR));
 8003ce4:	68fb      	ldr	r3, [r7, #12]
 8003ce6:	681b      	ldr	r3, [r3, #0]
 8003ce8:	685a      	ldr	r2, [r3, #4]
 8003cea:	68fb      	ldr	r3, [r7, #12]
 8003cec:	681b      	ldr	r3, [r3, #0]
 8003cee:	f022 02e0 	bic.w	r2, r2, #224	@ 0xe0
 8003cf2:	605a      	str	r2, [r3, #4]

        if ((hspi->Init.Mode == SPI_MODE_MASTER) && ((hspi->Init.Direction == SPI_DIRECTION_1LINE)
 8003cf4:	68fb      	ldr	r3, [r7, #12]
 8003cf6:	685b      	ldr	r3, [r3, #4]
 8003cf8:	f5b3 7f82 	cmp.w	r3, #260	@ 0x104
 8003cfc:	d111      	bne.n	8003d22 <SPI_WaitFifoStateUntilTimeout+0xbe>
 8003cfe:	68fb      	ldr	r3, [r7, #12]
 8003d00:	689b      	ldr	r3, [r3, #8]
 8003d02:	f5b3 4f00 	cmp.w	r3, #32768	@ 0x8000
 8003d06:	d004      	beq.n	8003d12 <SPI_WaitFifoStateUntilTimeout+0xae>
                                                     || (hspi->Init.Direction == SPI_DIRECTION_2LINES_RXONLY)))
 8003d08:	68fb      	ldr	r3, [r7, #12]
 8003d0a:	689b      	ldr	r3, [r3, #8]
 8003d0c:	f5b3 6f80 	cmp.w	r3, #1024	@ 0x400
 8003d10:	d107      	bne.n	8003d22 <SPI_WaitFifoStateUntilTimeout+0xbe>
        {
          /* Disable SPI peripheral */
          __HAL_SPI_DISABLE(hspi);
 8003d12:	68fb      	ldr	r3, [r7, #12]
 8003d14:	681b      	ldr	r3, [r3, #0]
 8003d16:	681a      	ldr	r2, [r3, #0]
 8003d18:	68fb      	ldr	r3, [r7, #12]
 8003d1a:	681b      	ldr	r3, [r3, #0]
 8003d1c:	f022 0240 	bic.w	r2, r2, #64	@ 0x40
 8003d20:	601a      	str	r2, [r3, #0]
        }

        /* Reset CRC Calculation */
        if (hspi->Init.CRCCalculation == SPI_CRCCALCULATION_ENABLE)
 8003d22:	68fb      	ldr	r3, [r7, #12]
 8003d24:	6a9b      	ldr	r3, [r3, #40]	@ 0x28
 8003d26:	f5b3 5f00 	cmp.w	r3, #8192	@ 0x2000
 8003d2a:	d10f      	bne.n	8003d4c <SPI_WaitFifoStateUntilTimeout+0xe8>
        {
          SPI_RESET_CRC(hspi);
 8003d2c:	68fb      	ldr	r3, [r7, #12]
 8003d2e:	681b      	ldr	r3, [r3, #0]
 8003d30:	681a      	ldr	r2, [r3, #0]
 8003d32:	68fb      	ldr	r3, [r7, #12]
 8003d34:	681b      	ldr	r3, [r3, #0]
 8003d36:	f422 5200 	bic.w	r2, r2, #8192	@ 0x2000
 8003d3a:	601a      	str	r2, [r3, #0]
 8003d3c:	68fb      	ldr	r3, [r7, #12]
 8003d3e:	681b      	ldr	r3, [r3, #0]
 8003d40:	681a      	ldr	r2, [r3, #0]
 8003d42:	68fb      	ldr	r3, [r7, #12]
 8003d44:	681b      	ldr	r3, [r3, #0]
 8003d46:	f442 5200 	orr.w	r2, r2, #8192	@ 0x2000
 8003d4a:	601a      	str	r2, [r3, #0]
        }

        hspi->State = HAL_SPI_STATE_READY;
 8003d4c:	68fb      	ldr	r3, [r7, #12]
 8003d4e:	2201      	movs	r2, #1
 8003d50:	f883 205d 	strb.w	r2, [r3, #93]	@ 0x5d

        /* Process Unlocked */
        __HAL_UNLOCK(hspi);
 8003d54:	68fb      	ldr	r3, [r7, #12]
 8003d56:	2200      	movs	r2, #0
 8003d58:	f883 205c 	strb.w	r2, [r3, #92]	@ 0x5c

        return HAL_TIMEOUT;
 8003d5c:	2303      	movs	r3, #3
 8003d5e:	e011      	b.n	8003d84 <SPI_WaitFifoStateUntilTimeout+0x120>
      }
      /* If Systick is disabled or not incremented, deactivate timeout to go in disable loop procedure */
      if (count == 0U)
 8003d60:	69bb      	ldr	r3, [r7, #24]
 8003d62:	2b00      	cmp	r3, #0
 8003d64:	d102      	bne.n	8003d6c <SPI_WaitFifoStateUntilTimeout+0x108>
      {
        tmp_timeout = 0U;
 8003d66:	2300      	movs	r3, #0
 8003d68:	627b      	str	r3, [r7, #36]	@ 0x24
 8003d6a:	e002      	b.n	8003d72 <SPI_WaitFifoStateUntilTimeout+0x10e>
      }
      else
      {
        count--;
 8003d6c:	69bb      	ldr	r3, [r7, #24]
 8003d6e:	3b01      	subs	r3, #1
 8003d70:	61bb      	str	r3, [r7, #24]
  while ((hspi->Instance->SR & Fifo) != State)
 8003d72:	68fb      	ldr	r3, [r7, #12]
 8003d74:	681b      	ldr	r3, [r3, #0]
 8003d76:	689a      	ldr	r2, [r3, #8]
 8003d78:	68bb      	ldr	r3, [r7, #8]
 8003d7a:	4013      	ands	r3, r2
 8003d7c:	687a      	ldr	r2, [r7, #4]
 8003d7e:	429a      	cmp	r2, r3
 8003d80:	d195      	bne.n	8003cae <SPI_WaitFifoStateUntilTimeout+0x4a>
      }
    }
  }

  return HAL_OK;
 8003d82:	2300      	movs	r3, #0
}
 8003d84:	4618      	mov	r0, r3
 8003d86:	3728      	adds	r7, #40	@ 0x28
 8003d88:	46bd      	mov	sp, r7
 8003d8a:	bd80      	pop	{r7, pc}
 8003d8c:	20000000 	.word	0x20000000

08003d90 <SPI_EndRxTxTransaction>:
  * @param  Timeout Timeout duration
  * @param  Tickstart tick start value
  * @retval HAL status
  */
static HAL_StatusTypeDef SPI_EndRxTxTransaction(SPI_HandleTypeDef *hspi, uint32_t Timeout, uint32_t Tickstart)
{
 8003d90:	b580      	push	{r7, lr}
 8003d92:	b086      	sub	sp, #24
 8003d94:	af02      	add	r7, sp, #8
 8003d96:	60f8      	str	r0, [r7, #12]
 8003d98:	60b9      	str	r1, [r7, #8]
 8003d9a:	607a      	str	r2, [r7, #4]
  /* Control if the TX fifo is empty */
  if (SPI_WaitFifoStateUntilTimeout(hspi, SPI_FLAG_FTLVL, SPI_FTLVL_EMPTY, Timeout, Tickstart) != HAL_OK)
 8003d9c:	687b      	ldr	r3, [r7, #4]
 8003d9e:	9300      	str	r3, [sp, #0]
 8003da0:	68bb      	ldr	r3, [r7, #8]
 8003da2:	2200      	movs	r2, #0
 8003da4:	f44f 51c0 	mov.w	r1, #6144	@ 0x1800
 8003da8:	68f8      	ldr	r0, [r7, #12]
 8003daa:	f7ff ff5b 	bl	8003c64 <SPI_WaitFifoStateUntilTimeout>
 8003dae:	4603      	mov	r3, r0
 8003db0:	2b00      	cmp	r3, #0
 8003db2:	d007      	beq.n	8003dc4 <SPI_EndRxTxTransaction+0x34>
  {
    SET_BIT(hspi->ErrorCode, HAL_SPI_ERROR_FLAG);
 8003db4:	68fb      	ldr	r3, [r7, #12]
 8003db6:	6e1b      	ldr	r3, [r3, #96]	@ 0x60
 8003db8:	f043 0220 	orr.w	r2, r3, #32
 8003dbc:	68fb      	ldr	r3, [r7, #12]
 8003dbe:	661a      	str	r2, [r3, #96]	@ 0x60
    return HAL_TIMEOUT;
 8003dc0:	2303      	movs	r3, #3
 8003dc2:	e027      	b.n	8003e14 <SPI_EndRxTxTransaction+0x84>
  }

  /* Control the BSY flag */
  if (SPI_WaitFlagStateUntilTimeout(hspi, SPI_FLAG_BSY, RESET, Timeout, Tickstart) != HAL_OK)
 8003dc4:	687b      	ldr	r3, [r7, #4]
 8003dc6:	9300      	str	r3, [sp, #0]
 8003dc8:	68bb      	ldr	r3, [r7, #8]
 8003dca:	2200      	movs	r2, #0
 8003dcc:	2180      	movs	r1, #128	@ 0x80
 8003dce:	68f8      	ldr	r0, [r7, #12]
 8003dd0:	f7ff fec0 	bl	8003b54 <SPI_WaitFlagStateUntilTimeout>
 8003dd4:	4603      	mov	r3, r0
 8003dd6:	2b00      	cmp	r3, #0
 8003dd8:	d007      	beq.n	8003dea <SPI_EndRxTxTransaction+0x5a>
  {
    SET_BIT(hspi->ErrorCode, HAL_SPI_ERROR_FLAG);
 8003dda:	68fb      	ldr	r3, [r7, #12]
 8003ddc:	6e1b      	ldr	r3, [r3, #96]	@ 0x60
 8003dde:	f043 0220 	orr.w	r2, r3, #32
 8003de2:	68fb      	ldr	r3, [r7, #12]
 8003de4:	661a      	str	r2, [r3, #96]	@ 0x60
    return HAL_TIMEOUT;
 8003de6:	2303      	movs	r3, #3
 8003de8:	e014      	b.n	8003e14 <SPI_EndRxTxTransaction+0x84>
  }

  /* Control if the RX fifo is empty */
  if (SPI_WaitFifoStateUntilTimeout(hspi, SPI_FLAG_FRLVL, SPI_FRLVL_EMPTY, Timeout, Tickstart) != HAL_OK)
 8003dea:	687b      	ldr	r3, [r7, #4]
 8003dec:	9300      	str	r3, [sp, #0]
 8003dee:	68bb      	ldr	r3, [r7, #8]
 8003df0:	2200      	movs	r2, #0
 8003df2:	f44f 61c0 	mov.w	r1, #1536	@ 0x600
 8003df6:	68f8      	ldr	r0, [r7, #12]
 8003df8:	f7ff ff34 	bl	8003c64 <SPI_WaitFifoStateUntilTimeout>
 8003dfc:	4603      	mov	r3, r0
 8003dfe:	2b00      	cmp	r3, #0
 8003e00:	d007      	beq.n	8003e12 <SPI_EndRxTxTransaction+0x82>
  {
    SET_BIT(hspi->ErrorCode, HAL_SPI_ERROR_FLAG);
 8003e02:	68fb      	ldr	r3, [r7, #12]
 8003e04:	6e1b      	ldr	r3, [r3, #96]	@ 0x60
 8003e06:	f043 0220 	orr.w	r2, r3, #32
 8003e0a:	68fb      	ldr	r3, [r7, #12]
 8003e0c:	661a      	str	r2, [r3, #96]	@ 0x60
    return HAL_TIMEOUT;
 8003e0e:	2303      	movs	r3, #3
 8003e10:	e000      	b.n	8003e14 <SPI_EndRxTxTransaction+0x84>
  }

  return HAL_OK;
 8003e12:	2300      	movs	r3, #0
}
 8003e14:	4618      	mov	r0, r3
 8003e16:	3710      	adds	r7, #16
 8003e18:	46bd      	mov	sp, r7
 8003e1a:	bd80      	pop	{r7, pc}

08003e1c <siprintf>:
 8003e1c:	b40e      	push	{r1, r2, r3}
 8003e1e:	b510      	push	{r4, lr}
 8003e20:	b09d      	sub	sp, #116	@ 0x74
 8003e22:	ab1f      	add	r3, sp, #124	@ 0x7c
 8003e24:	9002      	str	r0, [sp, #8]
 8003e26:	9006      	str	r0, [sp, #24]
 8003e28:	f06f 4100 	mvn.w	r1, #2147483648	@ 0x80000000
 8003e2c:	480a      	ldr	r0, [pc, #40]	@ (8003e58 <siprintf+0x3c>)
 8003e2e:	9107      	str	r1, [sp, #28]
 8003e30:	9104      	str	r1, [sp, #16]
 8003e32:	490a      	ldr	r1, [pc, #40]	@ (8003e5c <siprintf+0x40>)
 8003e34:	f853 2b04 	ldr.w	r2, [r3], #4
 8003e38:	9105      	str	r1, [sp, #20]
 8003e3a:	2400      	movs	r4, #0
 8003e3c:	a902      	add	r1, sp, #8
 8003e3e:	6800      	ldr	r0, [r0, #0]
 8003e40:	9301      	str	r3, [sp, #4]
 8003e42:	941b      	str	r4, [sp, #108]	@ 0x6c
 8003e44:	f000 f998 	bl	8004178 <_svfiprintf_r>
 8003e48:	9b02      	ldr	r3, [sp, #8]
 8003e4a:	701c      	strb	r4, [r3, #0]
 8003e4c:	b01d      	add	sp, #116	@ 0x74
 8003e4e:	e8bd 4010 	ldmia.w	sp!, {r4, lr}
 8003e52:	b003      	add	sp, #12
 8003e54:	4770      	bx	lr
 8003e56:	bf00      	nop
 8003e58:	2000000c 	.word	0x2000000c
 8003e5c:	ffff0208 	.word	0xffff0208

08003e60 <memset>:
 8003e60:	4402      	add	r2, r0
 8003e62:	4603      	mov	r3, r0
 8003e64:	4293      	cmp	r3, r2
 8003e66:	d100      	bne.n	8003e6a <memset+0xa>
 8003e68:	4770      	bx	lr
 8003e6a:	f803 1b01 	strb.w	r1, [r3], #1
 8003e6e:	e7f9      	b.n	8003e64 <memset+0x4>

08003e70 <__errno>:
 8003e70:	4b01      	ldr	r3, [pc, #4]	@ (8003e78 <__errno+0x8>)
 8003e72:	6818      	ldr	r0, [r3, #0]
 8003e74:	4770      	bx	lr
 8003e76:	bf00      	nop
 8003e78:	2000000c 	.word	0x2000000c

08003e7c <__libc_init_array>:
 8003e7c:	b570      	push	{r4, r5, r6, lr}
 8003e7e:	4b0d      	ldr	r3, [pc, #52]	@ (8003eb4 <__libc_init_array+0x38>)
 8003e80:	4d0d      	ldr	r5, [pc, #52]	@ (8003eb8 <__libc_init_array+0x3c>)
 8003e82:	1b5b      	subs	r3, r3, r5
 8003e84:	109c      	asrs	r4, r3, #2
 8003e86:	2600      	movs	r6, #0
 8003e88:	42a6      	cmp	r6, r4
 8003e8a:	d109      	bne.n	8003ea0 <__libc_init_array+0x24>
 8003e8c:	f000 fc6e 	bl	800476c <_init>
 8003e90:	4d0a      	ldr	r5, [pc, #40]	@ (8003ebc <__libc_init_array+0x40>)
 8003e92:	4b0b      	ldr	r3, [pc, #44]	@ (8003ec0 <__libc_init_array+0x44>)
 8003e94:	1b5b      	subs	r3, r3, r5
 8003e96:	109c      	asrs	r4, r3, #2
 8003e98:	2600      	movs	r6, #0
 8003e9a:	42a6      	cmp	r6, r4
 8003e9c:	d105      	bne.n	8003eaa <__libc_init_array+0x2e>
 8003e9e:	bd70      	pop	{r4, r5, r6, pc}
 8003ea0:	f855 3b04 	ldr.w	r3, [r5], #4
 8003ea4:	4798      	blx	r3
 8003ea6:	3601      	adds	r6, #1
 8003ea8:	e7ee      	b.n	8003e88 <__libc_init_array+0xc>
 8003eaa:	f855 3b04 	ldr.w	r3, [r5], #4
 8003eae:	4798      	blx	r3
 8003eb0:	3601      	adds	r6, #1
 8003eb2:	e7f2      	b.n	8003e9a <__libc_init_array+0x1e>
 8003eb4:	08005124 	.word	0x08005124
 8003eb8:	08005124 	.word	0x08005124
 8003ebc:	08005124 	.word	0x08005124
 8003ec0:	08005128 	.word	0x08005128

08003ec4 <__retarget_lock_acquire_recursive>:
 8003ec4:	4770      	bx	lr

08003ec6 <__retarget_lock_release_recursive>:
 8003ec6:	4770      	bx	lr

08003ec8 <_free_r>:
 8003ec8:	b538      	push	{r3, r4, r5, lr}
 8003eca:	4605      	mov	r5, r0
 8003ecc:	2900      	cmp	r1, #0
 8003ece:	d041      	beq.n	8003f54 <_free_r+0x8c>
 8003ed0:	f851 3c04 	ldr.w	r3, [r1, #-4]
 8003ed4:	1f0c      	subs	r4, r1, #4
 8003ed6:	2b00      	cmp	r3, #0
 8003ed8:	bfb8      	it	lt
 8003eda:	18e4      	addlt	r4, r4, r3
 8003edc:	f000 f8e0 	bl	80040a0 <__malloc_lock>
 8003ee0:	4a1d      	ldr	r2, [pc, #116]	@ (8003f58 <_free_r+0x90>)
 8003ee2:	6813      	ldr	r3, [r2, #0]
 8003ee4:	b933      	cbnz	r3, 8003ef4 <_free_r+0x2c>
 8003ee6:	6063      	str	r3, [r4, #4]
 8003ee8:	6014      	str	r4, [r2, #0]
 8003eea:	4628      	mov	r0, r5
 8003eec:	e8bd 4038 	ldmia.w	sp!, {r3, r4, r5, lr}
 8003ef0:	f000 b8dc 	b.w	80040ac <__malloc_unlock>
 8003ef4:	42a3      	cmp	r3, r4
 8003ef6:	d908      	bls.n	8003f0a <_free_r+0x42>
 8003ef8:	6820      	ldr	r0, [r4, #0]
 8003efa:	1821      	adds	r1, r4, r0
 8003efc:	428b      	cmp	r3, r1
 8003efe:	bf01      	itttt	eq
 8003f00:	6819      	ldreq	r1, [r3, #0]
 8003f02:	685b      	ldreq	r3, [r3, #4]
 8003f04:	1809      	addeq	r1, r1, r0
 8003f06:	6021      	streq	r1, [r4, #0]
 8003f08:	e7ed      	b.n	8003ee6 <_free_r+0x1e>
 8003f0a:	461a      	mov	r2, r3
 8003f0c:	685b      	ldr	r3, [r3, #4]
 8003f0e:	b10b      	cbz	r3, 8003f14 <_free_r+0x4c>
 8003f10:	42a3      	cmp	r3, r4
 8003f12:	d9fa      	bls.n	8003f0a <_free_r+0x42>
 8003f14:	6811      	ldr	r1, [r2, #0]
 8003f16:	1850      	adds	r0, r2, r1
 8003f18:	42a0      	cmp	r0, r4
 8003f1a:	d10b      	bne.n	8003f34 <_free_r+0x6c>
 8003f1c:	6820      	ldr	r0, [r4, #0]
 8003f1e:	4401      	add	r1, r0
 8003f20:	1850      	adds	r0, r2, r1
 8003f22:	4283      	cmp	r3, r0
 8003f24:	6011      	str	r1, [r2, #0]
 8003f26:	d1e0      	bne.n	8003eea <_free_r+0x22>
 8003f28:	6818      	ldr	r0, [r3, #0]
 8003f2a:	685b      	ldr	r3, [r3, #4]
 8003f2c:	6053      	str	r3, [r2, #4]
 8003f2e:	4408      	add	r0, r1
 8003f30:	6010      	str	r0, [r2, #0]
 8003f32:	e7da      	b.n	8003eea <_free_r+0x22>
 8003f34:	d902      	bls.n	8003f3c <_free_r+0x74>
 8003f36:	230c      	movs	r3, #12
 8003f38:	602b      	str	r3, [r5, #0]
 8003f3a:	e7d6      	b.n	8003eea <_free_r+0x22>
 8003f3c:	6820      	ldr	r0, [r4, #0]
 8003f3e:	1821      	adds	r1, r4, r0
 8003f40:	428b      	cmp	r3, r1
 8003f42:	bf04      	itt	eq
 8003f44:	6819      	ldreq	r1, [r3, #0]
 8003f46:	685b      	ldreq	r3, [r3, #4]
 8003f48:	6063      	str	r3, [r4, #4]
 8003f4a:	bf04      	itt	eq
 8003f4c:	1809      	addeq	r1, r1, r0
 8003f4e:	6021      	streq	r1, [r4, #0]
 8003f50:	6054      	str	r4, [r2, #4]
 8003f52:	e7ca      	b.n	8003eea <_free_r+0x22>
 8003f54:	bd38      	pop	{r3, r4, r5, pc}
 8003f56:	bf00      	nop
 8003f58:	200006c0 	.word	0x200006c0

08003f5c <sbrk_aligned>:
 8003f5c:	b570      	push	{r4, r5, r6, lr}
 8003f5e:	4e0f      	ldr	r6, [pc, #60]	@ (8003f9c <sbrk_aligned+0x40>)
 8003f60:	460c      	mov	r4, r1
 8003f62:	6831      	ldr	r1, [r6, #0]
 8003f64:	4605      	mov	r5, r0
 8003f66:	b911      	cbnz	r1, 8003f6e <sbrk_aligned+0x12>
 8003f68:	f000 fbac 	bl	80046c4 <_sbrk_r>
 8003f6c:	6030      	str	r0, [r6, #0]
 8003f6e:	4621      	mov	r1, r4
 8003f70:	4628      	mov	r0, r5
 8003f72:	f000 fba7 	bl	80046c4 <_sbrk_r>
 8003f76:	1c43      	adds	r3, r0, #1
 8003f78:	d103      	bne.n	8003f82 <sbrk_aligned+0x26>
 8003f7a:	f04f 34ff 	mov.w	r4, #4294967295
 8003f7e:	4620      	mov	r0, r4
 8003f80:	bd70      	pop	{r4, r5, r6, pc}
 8003f82:	1cc4      	adds	r4, r0, #3
 8003f84:	f024 0403 	bic.w	r4, r4, #3
 8003f88:	42a0      	cmp	r0, r4
 8003f8a:	d0f8      	beq.n	8003f7e <sbrk_aligned+0x22>
 8003f8c:	1a21      	subs	r1, r4, r0
 8003f8e:	4628      	mov	r0, r5
 8003f90:	f000 fb98 	bl	80046c4 <_sbrk_r>
 8003f94:	3001      	adds	r0, #1
 8003f96:	d1f2      	bne.n	8003f7e <sbrk_aligned+0x22>
 8003f98:	e7ef      	b.n	8003f7a <sbrk_aligned+0x1e>
 8003f9a:	bf00      	nop
 8003f9c:	200006bc 	.word	0x200006bc

08003fa0 <_malloc_r>:
 8003fa0:	e92d 43f8 	stmdb	sp!, {r3, r4, r5, r6, r7, r8, r9, lr}
 8003fa4:	1ccd      	adds	r5, r1, #3
 8003fa6:	f025 0503 	bic.w	r5, r5, #3
 8003faa:	3508      	adds	r5, #8
 8003fac:	2d0c      	cmp	r5, #12
 8003fae:	bf38      	it	cc
 8003fb0:	250c      	movcc	r5, #12
 8003fb2:	2d00      	cmp	r5, #0
 8003fb4:	4606      	mov	r6, r0
 8003fb6:	db01      	blt.n	8003fbc <_malloc_r+0x1c>
 8003fb8:	42a9      	cmp	r1, r5
 8003fba:	d904      	bls.n	8003fc6 <_malloc_r+0x26>
 8003fbc:	230c      	movs	r3, #12
 8003fbe:	6033      	str	r3, [r6, #0]
 8003fc0:	2000      	movs	r0, #0
 8003fc2:	e8bd 83f8 	ldmia.w	sp!, {r3, r4, r5, r6, r7, r8, r9, pc}
 8003fc6:	f8df 80d4 	ldr.w	r8, [pc, #212]	@ 800409c <_malloc_r+0xfc>
 8003fca:	f000 f869 	bl	80040a0 <__malloc_lock>
 8003fce:	f8d8 3000 	ldr.w	r3, [r8]
 8003fd2:	461c      	mov	r4, r3
 8003fd4:	bb44      	cbnz	r4, 8004028 <_malloc_r+0x88>
 8003fd6:	4629      	mov	r1, r5
 8003fd8:	4630      	mov	r0, r6
 8003fda:	f7ff ffbf 	bl	8003f5c <sbrk_aligned>
 8003fde:	1c43      	adds	r3, r0, #1
 8003fe0:	4604      	mov	r4, r0
 8003fe2:	d158      	bne.n	8004096 <_malloc_r+0xf6>
 8003fe4:	f8d8 4000 	ldr.w	r4, [r8]
 8003fe8:	4627      	mov	r7, r4
 8003fea:	2f00      	cmp	r7, #0
 8003fec:	d143      	bne.n	8004076 <_malloc_r+0xd6>
 8003fee:	2c00      	cmp	r4, #0
 8003ff0:	d04b      	beq.n	800408a <_malloc_r+0xea>
 8003ff2:	6823      	ldr	r3, [r4, #0]
 8003ff4:	4639      	mov	r1, r7
 8003ff6:	4630      	mov	r0, r6
 8003ff8:	eb04 0903 	add.w	r9, r4, r3
 8003ffc:	f000 fb62 	bl	80046c4 <_sbrk_r>
 8004000:	4581      	cmp	r9, r0
 8004002:	d142      	bne.n	800408a <_malloc_r+0xea>
 8004004:	6821      	ldr	r1, [r4, #0]
 8004006:	1a6d      	subs	r5, r5, r1
 8004008:	4629      	mov	r1, r5
 800400a:	4630      	mov	r0, r6
 800400c:	f7ff ffa6 	bl	8003f5c <sbrk_aligned>
 8004010:	3001      	adds	r0, #1
 8004012:	d03a      	beq.n	800408a <_malloc_r+0xea>
 8004014:	6823      	ldr	r3, [r4, #0]
 8004016:	442b      	add	r3, r5
 8004018:	6023      	str	r3, [r4, #0]
 800401a:	f8d8 3000 	ldr.w	r3, [r8]
 800401e:	685a      	ldr	r2, [r3, #4]
 8004020:	bb62      	cbnz	r2, 800407c <_malloc_r+0xdc>
 8004022:	f8c8 7000 	str.w	r7, [r8]
 8004026:	e00f      	b.n	8004048 <_malloc_r+0xa8>
 8004028:	6822      	ldr	r2, [r4, #0]
 800402a:	1b52      	subs	r2, r2, r5
 800402c:	d420      	bmi.n	8004070 <_malloc_r+0xd0>
 800402e:	2a0b      	cmp	r2, #11
 8004030:	d917      	bls.n	8004062 <_malloc_r+0xc2>
 8004032:	1961      	adds	r1, r4, r5
 8004034:	42a3      	cmp	r3, r4
 8004036:	6025      	str	r5, [r4, #0]
 8004038:	bf18      	it	ne
 800403a:	6059      	strne	r1, [r3, #4]
 800403c:	6863      	ldr	r3, [r4, #4]
 800403e:	bf08      	it	eq
 8004040:	f8c8 1000 	streq.w	r1, [r8]
 8004044:	5162      	str	r2, [r4, r5]
 8004046:	604b      	str	r3, [r1, #4]
 8004048:	4630      	mov	r0, r6
 800404a:	f000 f82f 	bl	80040ac <__malloc_unlock>
 800404e:	f104 000b 	add.w	r0, r4, #11
 8004052:	1d23      	adds	r3, r4, #4
 8004054:	f020 0007 	bic.w	r0, r0, #7
 8004058:	1ac2      	subs	r2, r0, r3
 800405a:	bf1c      	itt	ne
 800405c:	1a1b      	subne	r3, r3, r0
 800405e:	50a3      	strne	r3, [r4, r2]
 8004060:	e7af      	b.n	8003fc2 <_malloc_r+0x22>
 8004062:	6862      	ldr	r2, [r4, #4]
 8004064:	42a3      	cmp	r3, r4
 8004066:	bf0c      	ite	eq
 8004068:	f8c8 2000 	streq.w	r2, [r8]
 800406c:	605a      	strne	r2, [r3, #4]
 800406e:	e7eb      	b.n	8004048 <_malloc_r+0xa8>
 8004070:	4623      	mov	r3, r4
 8004072:	6864      	ldr	r4, [r4, #4]
 8004074:	e7ae      	b.n	8003fd4 <_malloc_r+0x34>
 8004076:	463c      	mov	r4, r7
 8004078:	687f      	ldr	r7, [r7, #4]
 800407a:	e7b6      	b.n	8003fea <_malloc_r+0x4a>
 800407c:	461a      	mov	r2, r3
 800407e:	685b      	ldr	r3, [r3, #4]
 8004080:	42a3      	cmp	r3, r4
 8004082:	d1fb      	bne.n	800407c <_malloc_r+0xdc>
 8004084:	2300      	movs	r3, #0
 8004086:	6053      	str	r3, [r2, #4]
 8004088:	e7de      	b.n	8004048 <_malloc_r+0xa8>
 800408a:	230c      	movs	r3, #12
 800408c:	6033      	str	r3, [r6, #0]
 800408e:	4630      	mov	r0, r6
 8004090:	f000 f80c 	bl	80040ac <__malloc_unlock>
 8004094:	e794      	b.n	8003fc0 <_malloc_r+0x20>
 8004096:	6005      	str	r5, [r0, #0]
 8004098:	e7d6      	b.n	8004048 <_malloc_r+0xa8>
 800409a:	bf00      	nop
 800409c:	200006c0 	.word	0x200006c0

080040a0 <__malloc_lock>:
 80040a0:	4801      	ldr	r0, [pc, #4]	@ (80040a8 <__malloc_lock+0x8>)
 80040a2:	f7ff bf0f 	b.w	8003ec4 <__retarget_lock_acquire_recursive>
 80040a6:	bf00      	nop
 80040a8:	200006b8 	.word	0x200006b8

080040ac <__malloc_unlock>:
 80040ac:	4801      	ldr	r0, [pc, #4]	@ (80040b4 <__malloc_unlock+0x8>)
 80040ae:	f7ff bf0a 	b.w	8003ec6 <__retarget_lock_release_recursive>
 80040b2:	bf00      	nop
 80040b4:	200006b8 	.word	0x200006b8

080040b8 <__ssputs_r>:
 80040b8:	e92d 47f0 	stmdb	sp!, {r4, r5, r6, r7, r8, r9, sl, lr}
 80040bc:	688e      	ldr	r6, [r1, #8]
 80040be:	461f      	mov	r7, r3
 80040c0:	42be      	cmp	r6, r7
 80040c2:	4682      	mov	sl, r0
 80040c4:	460c      	mov	r4, r1
 80040c6:	4690      	mov	r8, r2
 80040c8:	4633      	mov	r3, r6
 80040ca:	d853      	bhi.n	8004174 <__ssputs_r+0xbc>
 80040cc:	f9b1 000c 	ldrsh.w	r0, [r1, #12]
 80040d0:	f410 6f90 	tst.w	r0, #1152	@ 0x480
 80040d4:	d02b      	beq.n	800412e <__ssputs_r+0x76>
 80040d6:	6965      	ldr	r5, [r4, #20]
 80040d8:	6823      	ldr	r3, [r4, #0]
 80040da:	6909      	ldr	r1, [r1, #16]
 80040dc:	eb05 0545 	add.w	r5, r5, r5, lsl #1
 80040e0:	eba3 0901 	sub.w	r9, r3, r1
 80040e4:	eb05 75d5 	add.w	r5, r5, r5, lsr #31
 80040e8:	1c7b      	adds	r3, r7, #1
 80040ea:	106d      	asrs	r5, r5, #1
 80040ec:	444b      	add	r3, r9
 80040ee:	42ab      	cmp	r3, r5
 80040f0:	462a      	mov	r2, r5
 80040f2:	bf84      	itt	hi
 80040f4:	461d      	movhi	r5, r3
 80040f6:	462a      	movhi	r2, r5
 80040f8:	0543      	lsls	r3, r0, #21
 80040fa:	d527      	bpl.n	800414c <__ssputs_r+0x94>
 80040fc:	4611      	mov	r1, r2
 80040fe:	4650      	mov	r0, sl
 8004100:	f7ff ff4e 	bl	8003fa0 <_malloc_r>
 8004104:	4606      	mov	r6, r0
 8004106:	b358      	cbz	r0, 8004160 <__ssputs_r+0xa8>
 8004108:	6921      	ldr	r1, [r4, #16]
 800410a:	464a      	mov	r2, r9
 800410c:	f000 faea 	bl	80046e4 <memcpy>
 8004110:	89a3      	ldrh	r3, [r4, #12]
 8004112:	f423 6390 	bic.w	r3, r3, #1152	@ 0x480
 8004116:	f043 0380 	orr.w	r3, r3, #128	@ 0x80
 800411a:	81a3      	strh	r3, [r4, #12]
 800411c:	6126      	str	r6, [r4, #16]
 800411e:	6165      	str	r5, [r4, #20]
 8004120:	444e      	add	r6, r9
 8004122:	eba5 0509 	sub.w	r5, r5, r9
 8004126:	6026      	str	r6, [r4, #0]
 8004128:	60a5      	str	r5, [r4, #8]
 800412a:	463e      	mov	r6, r7
 800412c:	463b      	mov	r3, r7
 800412e:	461f      	mov	r7, r3
 8004130:	6820      	ldr	r0, [r4, #0]
 8004132:	463a      	mov	r2, r7
 8004134:	4641      	mov	r1, r8
 8004136:	f000 faab 	bl	8004690 <memmove>
 800413a:	68a3      	ldr	r3, [r4, #8]
 800413c:	1b9b      	subs	r3, r3, r6
 800413e:	60a3      	str	r3, [r4, #8]
 8004140:	6823      	ldr	r3, [r4, #0]
 8004142:	443b      	add	r3, r7
 8004144:	6023      	str	r3, [r4, #0]
 8004146:	2000      	movs	r0, #0
 8004148:	e8bd 87f0 	ldmia.w	sp!, {r4, r5, r6, r7, r8, r9, sl, pc}
 800414c:	4650      	mov	r0, sl
 800414e:	f000 fad7 	bl	8004700 <_realloc_r>
 8004152:	4606      	mov	r6, r0
 8004154:	2800      	cmp	r0, #0
 8004156:	d1e1      	bne.n	800411c <__ssputs_r+0x64>
 8004158:	6921      	ldr	r1, [r4, #16]
 800415a:	4650      	mov	r0, sl
 800415c:	f7ff feb4 	bl	8003ec8 <_free_r>
 8004160:	230c      	movs	r3, #12
 8004162:	f8ca 3000 	str.w	r3, [sl]
 8004166:	89a3      	ldrh	r3, [r4, #12]
 8004168:	f043 0340 	orr.w	r3, r3, #64	@ 0x40
 800416c:	81a3      	strh	r3, [r4, #12]
 800416e:	f04f 30ff 	mov.w	r0, #4294967295
 8004172:	e7e9      	b.n	8004148 <__ssputs_r+0x90>
 8004174:	463e      	mov	r6, r7
 8004176:	e7db      	b.n	8004130 <__ssputs_r+0x78>

08004178 <_svfiprintf_r>:
 8004178:	e92d 47f0 	stmdb	sp!, {r4, r5, r6, r7, r8, r9, sl, lr}
 800417c:	461f      	mov	r7, r3
 800417e:	898b      	ldrh	r3, [r1, #12]
 8004180:	061b      	lsls	r3, r3, #24
 8004182:	b09c      	sub	sp, #112	@ 0x70
 8004184:	4606      	mov	r6, r0
 8004186:	460d      	mov	r5, r1
 8004188:	4614      	mov	r4, r2
 800418a:	d510      	bpl.n	80041ae <_svfiprintf_r+0x36>
 800418c:	690b      	ldr	r3, [r1, #16]
 800418e:	b973      	cbnz	r3, 80041ae <_svfiprintf_r+0x36>
 8004190:	2140      	movs	r1, #64	@ 0x40
 8004192:	f7ff ff05 	bl	8003fa0 <_malloc_r>
 8004196:	6028      	str	r0, [r5, #0]
 8004198:	6128      	str	r0, [r5, #16]
 800419a:	b930      	cbnz	r0, 80041aa <_svfiprintf_r+0x32>
 800419c:	230c      	movs	r3, #12
 800419e:	6033      	str	r3, [r6, #0]
 80041a0:	f04f 30ff 	mov.w	r0, #4294967295
 80041a4:	b01c      	add	sp, #112	@ 0x70
 80041a6:	e8bd 87f0 	ldmia.w	sp!, {r4, r5, r6, r7, r8, r9, sl, pc}
 80041aa:	2340      	movs	r3, #64	@ 0x40
 80041ac:	616b      	str	r3, [r5, #20]
 80041ae:	2300      	movs	r3, #0
 80041b0:	9309      	str	r3, [sp, #36]	@ 0x24
 80041b2:	2320      	movs	r3, #32
 80041b4:	f88d 3029 	strb.w	r3, [sp, #41]	@ 0x29
 80041b8:	9703      	str	r7, [sp, #12]
 80041ba:	2330      	movs	r3, #48	@ 0x30
 80041bc:	4f65      	ldr	r7, [pc, #404]	@ (8004354 <_svfiprintf_r+0x1dc>)
 80041be:	f88d 302a 	strb.w	r3, [sp, #42]	@ 0x2a
 80041c2:	f04f 0801 	mov.w	r8, #1
 80041c6:	4623      	mov	r3, r4
 80041c8:	4699      	mov	r9, r3
 80041ca:	f813 2b01 	ldrb.w	r2, [r3], #1
 80041ce:	b10a      	cbz	r2, 80041d4 <_svfiprintf_r+0x5c>
 80041d0:	2a25      	cmp	r2, #37	@ 0x25
 80041d2:	d1f9      	bne.n	80041c8 <_svfiprintf_r+0x50>
 80041d4:	ebb9 0a04 	subs.w	sl, r9, r4
 80041d8:	d00b      	beq.n	80041f2 <_svfiprintf_r+0x7a>
 80041da:	4653      	mov	r3, sl
 80041dc:	4622      	mov	r2, r4
 80041de:	4629      	mov	r1, r5
 80041e0:	4630      	mov	r0, r6
 80041e2:	f7ff ff69 	bl	80040b8 <__ssputs_r>
 80041e6:	3001      	adds	r0, #1
 80041e8:	f000 80a4 	beq.w	8004334 <_svfiprintf_r+0x1bc>
 80041ec:	9a09      	ldr	r2, [sp, #36]	@ 0x24
 80041ee:	4452      	add	r2, sl
 80041f0:	9209      	str	r2, [sp, #36]	@ 0x24
 80041f2:	f899 3000 	ldrb.w	r3, [r9]
 80041f6:	2b00      	cmp	r3, #0
 80041f8:	f000 809c 	beq.w	8004334 <_svfiprintf_r+0x1bc>
 80041fc:	2300      	movs	r3, #0
 80041fe:	f04f 32ff 	mov.w	r2, #4294967295
 8004202:	e9cd 2305 	strd	r2, r3, [sp, #20]
 8004206:	f109 0901 	add.w	r9, r9, #1
 800420a:	9304      	str	r3, [sp, #16]
 800420c:	9307      	str	r3, [sp, #28]
 800420e:	f88d 3053 	strb.w	r3, [sp, #83]	@ 0x53
 8004212:	931a      	str	r3, [sp, #104]	@ 0x68
 8004214:	464c      	mov	r4, r9
 8004216:	484f      	ldr	r0, [pc, #316]	@ (8004354 <_svfiprintf_r+0x1dc>)
 8004218:	f814 1b01 	ldrb.w	r1, [r4], #1
 800421c:	2205      	movs	r2, #5
 800421e:	f7fb ffff 	bl	8000220 <memchr>
 8004222:	9b04      	ldr	r3, [sp, #16]
 8004224:	b9d0      	cbnz	r0, 800425c <_svfiprintf_r+0xe4>
 8004226:	06d8      	lsls	r0, r3, #27
 8004228:	bf44      	itt	mi
 800422a:	2220      	movmi	r2, #32
 800422c:	f88d 2053 	strbmi.w	r2, [sp, #83]	@ 0x53
 8004230:	0719      	lsls	r1, r3, #28
 8004232:	bf44      	itt	mi
 8004234:	222b      	movmi	r2, #43	@ 0x2b
 8004236:	f88d 2053 	strbmi.w	r2, [sp, #83]	@ 0x53
 800423a:	f899 2000 	ldrb.w	r2, [r9]
 800423e:	2a2a      	cmp	r2, #42	@ 0x2a
 8004240:	d013      	beq.n	800426a <_svfiprintf_r+0xf2>
 8004242:	9a07      	ldr	r2, [sp, #28]
 8004244:	464c      	mov	r4, r9
 8004246:	2000      	movs	r0, #0
 8004248:	f04f 0c0a 	mov.w	ip, #10
 800424c:	4621      	mov	r1, r4
 800424e:	f811 3b01 	ldrb.w	r3, [r1], #1
 8004252:	3b30      	subs	r3, #48	@ 0x30
 8004254:	2b09      	cmp	r3, #9
 8004256:	d949      	bls.n	80042ec <_svfiprintf_r+0x174>
 8004258:	b968      	cbnz	r0, 8004276 <_svfiprintf_r+0xfe>
 800425a:	e013      	b.n	8004284 <_svfiprintf_r+0x10c>
 800425c:	1bc0      	subs	r0, r0, r7
 800425e:	fa08 f000 	lsl.w	r0, r8, r0
 8004262:	4318      	orrs	r0, r3
 8004264:	9004      	str	r0, [sp, #16]
 8004266:	46a1      	mov	r9, r4
 8004268:	e7d4      	b.n	8004214 <_svfiprintf_r+0x9c>
 800426a:	9a03      	ldr	r2, [sp, #12]
 800426c:	1d11      	adds	r1, r2, #4
 800426e:	6812      	ldr	r2, [r2, #0]
 8004270:	9103      	str	r1, [sp, #12]
 8004272:	2a00      	cmp	r2, #0
 8004274:	db01      	blt.n	800427a <_svfiprintf_r+0x102>
 8004276:	9207      	str	r2, [sp, #28]
 8004278:	e004      	b.n	8004284 <_svfiprintf_r+0x10c>
 800427a:	4252      	negs	r2, r2
 800427c:	f043 0302 	orr.w	r3, r3, #2
 8004280:	9207      	str	r2, [sp, #28]
 8004282:	9304      	str	r3, [sp, #16]
 8004284:	7823      	ldrb	r3, [r4, #0]
 8004286:	2b2e      	cmp	r3, #46	@ 0x2e
 8004288:	d10a      	bne.n	80042a0 <_svfiprintf_r+0x128>
 800428a:	7863      	ldrb	r3, [r4, #1]
 800428c:	2b2a      	cmp	r3, #42	@ 0x2a
 800428e:	d132      	bne.n	80042f6 <_svfiprintf_r+0x17e>
 8004290:	9b03      	ldr	r3, [sp, #12]
 8004292:	1d1a      	adds	r2, r3, #4
 8004294:	681b      	ldr	r3, [r3, #0]
 8004296:	9203      	str	r2, [sp, #12]
 8004298:	ea43 73e3 	orr.w	r3, r3, r3, asr #31
 800429c:	3402      	adds	r4, #2
 800429e:	9305      	str	r3, [sp, #20]
 80042a0:	f8df 90c0 	ldr.w	r9, [pc, #192]	@ 8004364 <_svfiprintf_r+0x1ec>
 80042a4:	7821      	ldrb	r1, [r4, #0]
 80042a6:	2203      	movs	r2, #3
 80042a8:	4648      	mov	r0, r9
 80042aa:	f7fb ffb9 	bl	8000220 <memchr>
 80042ae:	b138      	cbz	r0, 80042c0 <_svfiprintf_r+0x148>
 80042b0:	9b04      	ldr	r3, [sp, #16]
 80042b2:	eba0 0009 	sub.w	r0, r0, r9
 80042b6:	2240      	movs	r2, #64	@ 0x40
 80042b8:	4082      	lsls	r2, r0
 80042ba:	4313      	orrs	r3, r2
 80042bc:	3401      	adds	r4, #1
 80042be:	9304      	str	r3, [sp, #16]
 80042c0:	f814 1b01 	ldrb.w	r1, [r4], #1
 80042c4:	4824      	ldr	r0, [pc, #144]	@ (8004358 <_svfiprintf_r+0x1e0>)
 80042c6:	f88d 1028 	strb.w	r1, [sp, #40]	@ 0x28
 80042ca:	2206      	movs	r2, #6
 80042cc:	f7fb ffa8 	bl	8000220 <memchr>
 80042d0:	2800      	cmp	r0, #0
 80042d2:	d035      	beq.n	8004340 <_svfiprintf_r+0x1c8>
 80042d4:	4821      	ldr	r0, [pc, #132]	@ (800435c <_svfiprintf_r+0x1e4>)
 80042d6:	bb18      	cbnz	r0, 8004320 <_svfiprintf_r+0x1a8>
 80042d8:	9b03      	ldr	r3, [sp, #12]
 80042da:	3307      	adds	r3, #7
 80042dc:	f023 0307 	bic.w	r3, r3, #7
 80042e0:	3308      	adds	r3, #8
 80042e2:	9303      	str	r3, [sp, #12]
 80042e4:	9b09      	ldr	r3, [sp, #36]	@ 0x24
 80042e6:	4403      	add	r3, r0
 80042e8:	9309      	str	r3, [sp, #36]	@ 0x24
 80042ea:	e76c      	b.n	80041c6 <_svfiprintf_r+0x4e>
 80042ec:	fb0c 3202 	mla	r2, ip, r2, r3
 80042f0:	460c      	mov	r4, r1
 80042f2:	2001      	movs	r0, #1
 80042f4:	e7aa      	b.n	800424c <_svfiprintf_r+0xd4>
 80042f6:	2300      	movs	r3, #0
 80042f8:	3401      	adds	r4, #1
 80042fa:	9305      	str	r3, [sp, #20]
 80042fc:	4619      	mov	r1, r3
 80042fe:	f04f 0c0a 	mov.w	ip, #10
 8004302:	4620      	mov	r0, r4
 8004304:	f810 2b01 	ldrb.w	r2, [r0], #1
 8004308:	3a30      	subs	r2, #48	@ 0x30
 800430a:	2a09      	cmp	r2, #9
 800430c:	d903      	bls.n	8004316 <_svfiprintf_r+0x19e>
 800430e:	2b00      	cmp	r3, #0
 8004310:	d0c6      	beq.n	80042a0 <_svfiprintf_r+0x128>
 8004312:	9105      	str	r1, [sp, #20]
 8004314:	e7c4      	b.n	80042a0 <_svfiprintf_r+0x128>
 8004316:	fb0c 2101 	mla	r1, ip, r1, r2
 800431a:	4604      	mov	r4, r0
 800431c:	2301      	movs	r3, #1
 800431e:	e7f0      	b.n	8004302 <_svfiprintf_r+0x18a>
 8004320:	ab03      	add	r3, sp, #12
 8004322:	9300      	str	r3, [sp, #0]
 8004324:	462a      	mov	r2, r5
 8004326:	4b0e      	ldr	r3, [pc, #56]	@ (8004360 <_svfiprintf_r+0x1e8>)
 8004328:	a904      	add	r1, sp, #16
 800432a:	4630      	mov	r0, r6
 800432c:	f3af 8000 	nop.w
 8004330:	1c42      	adds	r2, r0, #1
 8004332:	d1d7      	bne.n	80042e4 <_svfiprintf_r+0x16c>
 8004334:	89ab      	ldrh	r3, [r5, #12]
 8004336:	065b      	lsls	r3, r3, #25
 8004338:	f53f af32 	bmi.w	80041a0 <_svfiprintf_r+0x28>
 800433c:	9809      	ldr	r0, [sp, #36]	@ 0x24
 800433e:	e731      	b.n	80041a4 <_svfiprintf_r+0x2c>
 8004340:	ab03      	add	r3, sp, #12
 8004342:	9300      	str	r3, [sp, #0]
 8004344:	462a      	mov	r2, r5
 8004346:	4b06      	ldr	r3, [pc, #24]	@ (8004360 <_svfiprintf_r+0x1e8>)
 8004348:	a904      	add	r1, sp, #16
 800434a:	4630      	mov	r0, r6
 800434c:	f000 f87a 	bl	8004444 <_printf_i>
 8004350:	e7ee      	b.n	8004330 <_svfiprintf_r+0x1b8>
 8004352:	bf00      	nop
 8004354:	080050e8 	.word	0x080050e8
 8004358:	080050f2 	.word	0x080050f2
 800435c:	00000000 	.word	0x00000000
 8004360:	080040b9 	.word	0x080040b9
 8004364:	080050ee 	.word	0x080050ee

08004368 <_printf_common>:
 8004368:	e92d 47f0 	stmdb	sp!, {r4, r5, r6, r7, r8, r9, sl, lr}
 800436c:	4616      	mov	r6, r2
 800436e:	4698      	mov	r8, r3
 8004370:	688a      	ldr	r2, [r1, #8]
 8004372:	690b      	ldr	r3, [r1, #16]
 8004374:	f8dd 9020 	ldr.w	r9, [sp, #32]
 8004378:	4293      	cmp	r3, r2
 800437a:	bfb8      	it	lt
 800437c:	4613      	movlt	r3, r2
 800437e:	6033      	str	r3, [r6, #0]
 8004380:	f891 2043 	ldrb.w	r2, [r1, #67]	@ 0x43
 8004384:	4607      	mov	r7, r0
 8004386:	460c      	mov	r4, r1
 8004388:	b10a      	cbz	r2, 800438e <_printf_common+0x26>
 800438a:	3301      	adds	r3, #1
 800438c:	6033      	str	r3, [r6, #0]
 800438e:	6823      	ldr	r3, [r4, #0]
 8004390:	0699      	lsls	r1, r3, #26
 8004392:	bf42      	ittt	mi
 8004394:	6833      	ldrmi	r3, [r6, #0]
 8004396:	3302      	addmi	r3, #2
 8004398:	6033      	strmi	r3, [r6, #0]
 800439a:	6825      	ldr	r5, [r4, #0]
 800439c:	f015 0506 	ands.w	r5, r5, #6
 80043a0:	d106      	bne.n	80043b0 <_printf_common+0x48>
 80043a2:	f104 0a19 	add.w	sl, r4, #25
 80043a6:	68e3      	ldr	r3, [r4, #12]
 80043a8:	6832      	ldr	r2, [r6, #0]
 80043aa:	1a9b      	subs	r3, r3, r2
 80043ac:	42ab      	cmp	r3, r5
 80043ae:	dc26      	bgt.n	80043fe <_printf_common+0x96>
 80043b0:	f894 3043 	ldrb.w	r3, [r4, #67]	@ 0x43
 80043b4:	6822      	ldr	r2, [r4, #0]
 80043b6:	3b00      	subs	r3, #0
 80043b8:	bf18      	it	ne
 80043ba:	2301      	movne	r3, #1
 80043bc:	0692      	lsls	r2, r2, #26
 80043be:	d42b      	bmi.n	8004418 <_printf_common+0xb0>
 80043c0:	f104 0243 	add.w	r2, r4, #67	@ 0x43
 80043c4:	4641      	mov	r1, r8
 80043c6:	4638      	mov	r0, r7
 80043c8:	47c8      	blx	r9
 80043ca:	3001      	adds	r0, #1
 80043cc:	d01e      	beq.n	800440c <_printf_common+0xa4>
 80043ce:	6823      	ldr	r3, [r4, #0]
 80043d0:	6922      	ldr	r2, [r4, #16]
 80043d2:	f003 0306 	and.w	r3, r3, #6
 80043d6:	2b04      	cmp	r3, #4
 80043d8:	bf02      	ittt	eq
 80043da:	68e5      	ldreq	r5, [r4, #12]
 80043dc:	6833      	ldreq	r3, [r6, #0]
 80043de:	1aed      	subeq	r5, r5, r3
 80043e0:	68a3      	ldr	r3, [r4, #8]
 80043e2:	bf0c      	ite	eq
 80043e4:	ea25 75e5 	biceq.w	r5, r5, r5, asr #31
 80043e8:	2500      	movne	r5, #0
 80043ea:	4293      	cmp	r3, r2
 80043ec:	bfc4      	itt	gt
 80043ee:	1a9b      	subgt	r3, r3, r2
 80043f0:	18ed      	addgt	r5, r5, r3
 80043f2:	2600      	movs	r6, #0
 80043f4:	341a      	adds	r4, #26
 80043f6:	42b5      	cmp	r5, r6
 80043f8:	d11a      	bne.n	8004430 <_printf_common+0xc8>
 80043fa:	2000      	movs	r0, #0
 80043fc:	e008      	b.n	8004410 <_printf_common+0xa8>
 80043fe:	2301      	movs	r3, #1
 8004400:	4652      	mov	r2, sl
 8004402:	4641      	mov	r1, r8
 8004404:	4638      	mov	r0, r7
 8004406:	47c8      	blx	r9
 8004408:	3001      	adds	r0, #1
 800440a:	d103      	bne.n	8004414 <_printf_common+0xac>
 800440c:	f04f 30ff 	mov.w	r0, #4294967295
 8004410:	e8bd 87f0 	ldmia.w	sp!, {r4, r5, r6, r7, r8, r9, sl, pc}
 8004414:	3501      	adds	r5, #1
 8004416:	e7c6      	b.n	80043a6 <_printf_common+0x3e>
 8004418:	18e1      	adds	r1, r4, r3
 800441a:	1c5a      	adds	r2, r3, #1
 800441c:	2030      	movs	r0, #48	@ 0x30
 800441e:	f881 0043 	strb.w	r0, [r1, #67]	@ 0x43
 8004422:	4422      	add	r2, r4
 8004424:	f894 1045 	ldrb.w	r1, [r4, #69]	@ 0x45
 8004428:	f882 1043 	strb.w	r1, [r2, #67]	@ 0x43
 800442c:	3302      	adds	r3, #2
 800442e:	e7c7      	b.n	80043c0 <_printf_common+0x58>
 8004430:	2301      	movs	r3, #1
 8004432:	4622      	mov	r2, r4
 8004434:	4641      	mov	r1, r8
 8004436:	4638      	mov	r0, r7
 8004438:	47c8      	blx	r9
 800443a:	3001      	adds	r0, #1
 800443c:	d0e6      	beq.n	800440c <_printf_common+0xa4>
 800443e:	3601      	adds	r6, #1
 8004440:	e7d9      	b.n	80043f6 <_printf_common+0x8e>
	...

08004444 <_printf_i>:
 8004444:	e92d 43f0 	stmdb	sp!, {r4, r5, r6, r7, r8, r9, lr}
 8004448:	7e0d      	ldrb	r5, [r1, #24]
 800444a:	b085      	sub	sp, #20
 800444c:	2d78      	cmp	r5, #120	@ 0x78
 800444e:	4690      	mov	r8, r2
 8004450:	9e0c      	ldr	r6, [sp, #48]	@ 0x30
 8004452:	4607      	mov	r7, r0
 8004454:	460c      	mov	r4, r1
 8004456:	4699      	mov	r9, r3
 8004458:	f101 0243 	add.w	r2, r1, #67	@ 0x43
 800445c:	d807      	bhi.n	800446e <_printf_i+0x2a>
 800445e:	2d62      	cmp	r5, #98	@ 0x62
 8004460:	d80a      	bhi.n	8004478 <_printf_i+0x34>
 8004462:	2d00      	cmp	r5, #0
 8004464:	f000 80d7 	beq.w	8004616 <_printf_i+0x1d2>
 8004468:	2d58      	cmp	r5, #88	@ 0x58
 800446a:	f000 80bc 	beq.w	80045e6 <_printf_i+0x1a2>
 800446e:	f104 0642 	add.w	r6, r4, #66	@ 0x42
 8004472:	f884 5042 	strb.w	r5, [r4, #66]	@ 0x42
 8004476:	e03b      	b.n	80044f0 <_printf_i+0xac>
 8004478:	f1a5 0363 	sub.w	r3, r5, #99	@ 0x63
 800447c:	2b15      	cmp	r3, #21
 800447e:	d8f6      	bhi.n	800446e <_printf_i+0x2a>
 8004480:	a101      	add	r1, pc, #4	@ (adr r1, 8004488 <_printf_i+0x44>)
 8004482:	f851 f023 	ldr.w	pc, [r1, r3, lsl #2]
 8004486:	bf00      	nop
 8004488:	080044e1 	.word	0x080044e1
 800448c:	080044f5 	.word	0x080044f5
 8004490:	0800446f 	.word	0x0800446f
 8004494:	0800446f 	.word	0x0800446f
 8004498:	0800446f 	.word	0x0800446f
 800449c:	0800446f 	.word	0x0800446f
 80044a0:	080044f5 	.word	0x080044f5
 80044a4:	0800446f 	.word	0x0800446f
 80044a8:	0800446f 	.word	0x0800446f
 80044ac:	0800446f 	.word	0x0800446f
 80044b0:	0800446f 	.word	0x0800446f
 80044b4:	080045fd 	.word	0x080045fd
 80044b8:	0800451f 	.word	0x0800451f
 80044bc:	080045af 	.word	0x080045af
 80044c0:	0800446f 	.word	0x0800446f
 80044c4:	0800446f 	.word	0x0800446f
 80044c8:	0800461f 	.word	0x0800461f
 80044cc:	0800446f 	.word	0x0800446f
 80044d0:	0800451f 	.word	0x0800451f
 80044d4:	0800446f 	.word	0x0800446f
 80044d8:	0800446f 	.word	0x0800446f
 80044dc:	080045b7 	.word	0x080045b7
 80044e0:	6833      	ldr	r3, [r6, #0]
 80044e2:	1d1a      	adds	r2, r3, #4
 80044e4:	681b      	ldr	r3, [r3, #0]
 80044e6:	6032      	str	r2, [r6, #0]
 80044e8:	f104 0642 	add.w	r6, r4, #66	@ 0x42
 80044ec:	f884 3042 	strb.w	r3, [r4, #66]	@ 0x42
 80044f0:	2301      	movs	r3, #1
 80044f2:	e0a1      	b.n	8004638 <_printf_i+0x1f4>
 80044f4:	6833      	ldr	r3, [r6, #0]
 80044f6:	6820      	ldr	r0, [r4, #0]
 80044f8:	1d19      	adds	r1, r3, #4
 80044fa:	6031      	str	r1, [r6, #0]
 80044fc:	0606      	lsls	r6, r0, #24
 80044fe:	d501      	bpl.n	8004504 <_printf_i+0xc0>
 8004500:	681d      	ldr	r5, [r3, #0]
 8004502:	e003      	b.n	800450c <_printf_i+0xc8>
 8004504:	0645      	lsls	r5, r0, #25
 8004506:	d5fb      	bpl.n	8004500 <_printf_i+0xbc>
 8004508:	f9b3 5000 	ldrsh.w	r5, [r3]
 800450c:	2d00      	cmp	r5, #0
 800450e:	da03      	bge.n	8004518 <_printf_i+0xd4>
 8004510:	232d      	movs	r3, #45	@ 0x2d
 8004512:	426d      	negs	r5, r5
 8004514:	f884 3043 	strb.w	r3, [r4, #67]	@ 0x43
 8004518:	485b      	ldr	r0, [pc, #364]	@ (8004688 <_printf_i+0x244>)
 800451a:	230a      	movs	r3, #10
 800451c:	e011      	b.n	8004542 <_printf_i+0xfe>
 800451e:	6821      	ldr	r1, [r4, #0]
 8004520:	6833      	ldr	r3, [r6, #0]
 8004522:	0608      	lsls	r0, r1, #24
 8004524:	f853 5b04 	ldr.w	r5, [r3], #4
 8004528:	d402      	bmi.n	8004530 <_printf_i+0xec>
 800452a:	0649      	lsls	r1, r1, #25
 800452c:	bf48      	it	mi
 800452e:	b2ad      	uxthmi	r5, r5
 8004530:	6033      	str	r3, [r6, #0]
 8004532:	7e23      	ldrb	r3, [r4, #24]
 8004534:	4854      	ldr	r0, [pc, #336]	@ (8004688 <_printf_i+0x244>)
 8004536:	2b6f      	cmp	r3, #111	@ 0x6f
 8004538:	d15c      	bne.n	80045f4 <_printf_i+0x1b0>
 800453a:	2308      	movs	r3, #8
 800453c:	2100      	movs	r1, #0
 800453e:	f884 1043 	strb.w	r1, [r4, #67]	@ 0x43
 8004542:	6866      	ldr	r6, [r4, #4]
 8004544:	60a6      	str	r6, [r4, #8]
 8004546:	2e00      	cmp	r6, #0
 8004548:	db05      	blt.n	8004556 <_printf_i+0x112>
 800454a:	6821      	ldr	r1, [r4, #0]
 800454c:	432e      	orrs	r6, r5
 800454e:	f021 0104 	bic.w	r1, r1, #4
 8004552:	6021      	str	r1, [r4, #0]
 8004554:	d050      	beq.n	80045f8 <_printf_i+0x1b4>
 8004556:	4616      	mov	r6, r2
 8004558:	fbb5 f1f3 	udiv	r1, r5, r3
 800455c:	fb03 5c11 	mls	ip, r3, r1, r5
 8004560:	f810 c00c 	ldrb.w	ip, [r0, ip]
 8004564:	f806 cd01 	strb.w	ip, [r6, #-1]!
 8004568:	46ac      	mov	ip, r5
 800456a:	4563      	cmp	r3, ip
 800456c:	460d      	mov	r5, r1
 800456e:	d9f3      	bls.n	8004558 <_printf_i+0x114>
 8004570:	2b08      	cmp	r3, #8
 8004572:	d10b      	bne.n	800458c <_printf_i+0x148>
 8004574:	6823      	ldr	r3, [r4, #0]
 8004576:	07db      	lsls	r3, r3, #31
 8004578:	d508      	bpl.n	800458c <_printf_i+0x148>
 800457a:	6923      	ldr	r3, [r4, #16]
 800457c:	6861      	ldr	r1, [r4, #4]
 800457e:	4299      	cmp	r1, r3
 8004580:	bfde      	ittt	le
 8004582:	2330      	movle	r3, #48	@ 0x30
 8004584:	f806 3c01 	strble.w	r3, [r6, #-1]
 8004588:	f106 36ff 	addle.w	r6, r6, #4294967295
 800458c:	1b92      	subs	r2, r2, r6
 800458e:	6122      	str	r2, [r4, #16]
 8004590:	f8cd 9000 	str.w	r9, [sp]
 8004594:	4643      	mov	r3, r8
 8004596:	aa03      	add	r2, sp, #12
 8004598:	4621      	mov	r1, r4
 800459a:	4638      	mov	r0, r7
 800459c:	f7ff fee4 	bl	8004368 <_printf_common>
 80045a0:	3001      	adds	r0, #1
 80045a2:	d14e      	bne.n	8004642 <_printf_i+0x1fe>
 80045a4:	f04f 30ff 	mov.w	r0, #4294967295
 80045a8:	b005      	add	sp, #20
 80045aa:	e8bd 83f0 	ldmia.w	sp!, {r4, r5, r6, r7, r8, r9, pc}
 80045ae:	6823      	ldr	r3, [r4, #0]
 80045b0:	f043 0320 	orr.w	r3, r3, #32
 80045b4:	6023      	str	r3, [r4, #0]
 80045b6:	4835      	ldr	r0, [pc, #212]	@ (800468c <_printf_i+0x248>)
 80045b8:	2578      	movs	r5, #120	@ 0x78
 80045ba:	f884 5045 	strb.w	r5, [r4, #69]	@ 0x45
 80045be:	6823      	ldr	r3, [r4, #0]
 80045c0:	6831      	ldr	r1, [r6, #0]
 80045c2:	f013 0f80 	tst.w	r3, #128	@ 0x80
 80045c6:	f851 5b04 	ldr.w	r5, [r1], #4
 80045ca:	d103      	bne.n	80045d4 <_printf_i+0x190>
 80045cc:	f013 0f40 	tst.w	r3, #64	@ 0x40
 80045d0:	bf18      	it	ne
 80045d2:	b2ad      	uxthne	r5, r5
 80045d4:	6031      	str	r1, [r6, #0]
 80045d6:	07d9      	lsls	r1, r3, #31
 80045d8:	bf44      	itt	mi
 80045da:	f043 0320 	orrmi.w	r3, r3, #32
 80045de:	6023      	strmi	r3, [r4, #0]
 80045e0:	b11d      	cbz	r5, 80045ea <_printf_i+0x1a6>
 80045e2:	2310      	movs	r3, #16
 80045e4:	e7aa      	b.n	800453c <_printf_i+0xf8>
 80045e6:	4828      	ldr	r0, [pc, #160]	@ (8004688 <_printf_i+0x244>)
 80045e8:	e7e7      	b.n	80045ba <_printf_i+0x176>
 80045ea:	6823      	ldr	r3, [r4, #0]
 80045ec:	f023 0320 	bic.w	r3, r3, #32
 80045f0:	6023      	str	r3, [r4, #0]
 80045f2:	e7f6      	b.n	80045e2 <_printf_i+0x19e>
 80045f4:	230a      	movs	r3, #10
 80045f6:	e7a1      	b.n	800453c <_printf_i+0xf8>
 80045f8:	4616      	mov	r6, r2
 80045fa:	e7b9      	b.n	8004570 <_printf_i+0x12c>
 80045fc:	6833      	ldr	r3, [r6, #0]
 80045fe:	6825      	ldr	r5, [r4, #0]
 8004600:	6961      	ldr	r1, [r4, #20]
 8004602:	1d18      	adds	r0, r3, #4
 8004604:	6030      	str	r0, [r6, #0]
 8004606:	062e      	lsls	r6, r5, #24
 8004608:	681b      	ldr	r3, [r3, #0]
 800460a:	d501      	bpl.n	8004610 <_printf_i+0x1cc>
 800460c:	6019      	str	r1, [r3, #0]
 800460e:	e002      	b.n	8004616 <_printf_i+0x1d2>
 8004610:	0668      	lsls	r0, r5, #25
 8004612:	d5fb      	bpl.n	800460c <_printf_i+0x1c8>
 8004614:	8019      	strh	r1, [r3, #0]
 8004616:	2300      	movs	r3, #0
 8004618:	6123      	str	r3, [r4, #16]
 800461a:	4616      	mov	r6, r2
 800461c:	e7b8      	b.n	8004590 <_printf_i+0x14c>
 800461e:	6833      	ldr	r3, [r6, #0]
 8004620:	1d1a      	adds	r2, r3, #4
 8004622:	6032      	str	r2, [r6, #0]
 8004624:	681e      	ldr	r6, [r3, #0]
 8004626:	6862      	ldr	r2, [r4, #4]
 8004628:	2100      	movs	r1, #0
 800462a:	4630      	mov	r0, r6
 800462c:	f7fb fdf8 	bl	8000220 <memchr>
 8004630:	b108      	cbz	r0, 8004636 <_printf_i+0x1f2>
 8004632:	1b80      	subs	r0, r0, r6
 8004634:	6060      	str	r0, [r4, #4]
 8004636:	6863      	ldr	r3, [r4, #4]
 8004638:	6123      	str	r3, [r4, #16]
 800463a:	2300      	movs	r3, #0
 800463c:	f884 3043 	strb.w	r3, [r4, #67]	@ 0x43
 8004640:	e7a6      	b.n	8004590 <_printf_i+0x14c>
 8004642:	6923      	ldr	r3, [r4, #16]
 8004644:	4632      	mov	r2, r6
 8004646:	4641      	mov	r1, r8
 8004648:	4638      	mov	r0, r7
 800464a:	47c8      	blx	r9
 800464c:	3001      	adds	r0, #1
 800464e:	d0a9      	beq.n	80045a4 <_printf_i+0x160>
 8004650:	6823      	ldr	r3, [r4, #0]
 8004652:	079b      	lsls	r3, r3, #30
 8004654:	d413      	bmi.n	800467e <_printf_i+0x23a>
 8004656:	68e0      	ldr	r0, [r4, #12]
 8004658:	9b03      	ldr	r3, [sp, #12]
 800465a:	4298      	cmp	r0, r3
 800465c:	bfb8      	it	lt
 800465e:	4618      	movlt	r0, r3
 8004660:	e7a2      	b.n	80045a8 <_printf_i+0x164>
 8004662:	2301      	movs	r3, #1
 8004664:	4632      	mov	r2, r6
 8004666:	4641      	mov	r1, r8
 8004668:	4638      	mov	r0, r7
 800466a:	47c8      	blx	r9
 800466c:	3001      	adds	r0, #1
 800466e:	d099      	beq.n	80045a4 <_printf_i+0x160>
 8004670:	3501      	adds	r5, #1
 8004672:	68e3      	ldr	r3, [r4, #12]
 8004674:	9903      	ldr	r1, [sp, #12]
 8004676:	1a5b      	subs	r3, r3, r1
 8004678:	42ab      	cmp	r3, r5
 800467a:	dcf2      	bgt.n	8004662 <_printf_i+0x21e>
 800467c:	e7eb      	b.n	8004656 <_printf_i+0x212>
 800467e:	2500      	movs	r5, #0
 8004680:	f104 0619 	add.w	r6, r4, #25
 8004684:	e7f5      	b.n	8004672 <_printf_i+0x22e>
 8004686:	bf00      	nop
 8004688:	080050f9 	.word	0x080050f9
 800468c:	0800510a 	.word	0x0800510a

08004690 <memmove>:
 8004690:	4288      	cmp	r0, r1
 8004692:	b510      	push	{r4, lr}
 8004694:	eb01 0402 	add.w	r4, r1, r2
 8004698:	d902      	bls.n	80046a0 <memmove+0x10>
 800469a:	4284      	cmp	r4, r0
 800469c:	4623      	mov	r3, r4
 800469e:	d807      	bhi.n	80046b0 <memmove+0x20>
 80046a0:	1e43      	subs	r3, r0, #1
 80046a2:	42a1      	cmp	r1, r4
 80046a4:	d007      	beq.n	80046b6 <memmove+0x26>
 80046a6:	f811 2b01 	ldrb.w	r2, [r1], #1
 80046aa:	f803 2f01 	strb.w	r2, [r3, #1]!
 80046ae:	e7f8      	b.n	80046a2 <memmove+0x12>
 80046b0:	4402      	add	r2, r0
 80046b2:	4282      	cmp	r2, r0
 80046b4:	d100      	bne.n	80046b8 <memmove+0x28>
 80046b6:	bd10      	pop	{r4, pc}
 80046b8:	f813 1d01 	ldrb.w	r1, [r3, #-1]!
 80046bc:	f802 1d01 	strb.w	r1, [r2, #-1]!
 80046c0:	e7f7      	b.n	80046b2 <memmove+0x22>
	...

080046c4 <_sbrk_r>:
 80046c4:	b538      	push	{r3, r4, r5, lr}
 80046c6:	4d06      	ldr	r5, [pc, #24]	@ (80046e0 <_sbrk_r+0x1c>)
 80046c8:	2300      	movs	r3, #0
 80046ca:	4604      	mov	r4, r0
 80046cc:	4608      	mov	r0, r1
 80046ce:	602b      	str	r3, [r5, #0]
 80046d0:	f7fc f95a 	bl	8000988 <_sbrk>
 80046d4:	1c43      	adds	r3, r0, #1
 80046d6:	d102      	bne.n	80046de <_sbrk_r+0x1a>
 80046d8:	682b      	ldr	r3, [r5, #0]
 80046da:	b103      	cbz	r3, 80046de <_sbrk_r+0x1a>
 80046dc:	6023      	str	r3, [r4, #0]
 80046de:	bd38      	pop	{r3, r4, r5, pc}
 80046e0:	200006b4 	.word	0x200006b4

080046e4 <memcpy>:
 80046e4:	440a      	add	r2, r1
 80046e6:	4291      	cmp	r1, r2
 80046e8:	f100 33ff 	add.w	r3, r0, #4294967295
 80046ec:	d100      	bne.n	80046f0 <memcpy+0xc>
 80046ee:	4770      	bx	lr
 80046f0:	b510      	push	{r4, lr}
 80046f2:	f811 4b01 	ldrb.w	r4, [r1], #1
 80046f6:	f803 4f01 	strb.w	r4, [r3, #1]!
 80046fa:	4291      	cmp	r1, r2
 80046fc:	d1f9      	bne.n	80046f2 <memcpy+0xe>
 80046fe:	bd10      	pop	{r4, pc}

08004700 <_realloc_r>:
 8004700:	e92d 41f0 	stmdb	sp!, {r4, r5, r6, r7, r8, lr}
 8004704:	4607      	mov	r7, r0
 8004706:	4614      	mov	r4, r2
 8004708:	460d      	mov	r5, r1
 800470a:	b921      	cbnz	r1, 8004716 <_realloc_r+0x16>
 800470c:	e8bd 41f0 	ldmia.w	sp!, {r4, r5, r6, r7, r8, lr}
 8004710:	4611      	mov	r1, r2
 8004712:	f7ff bc45 	b.w	8003fa0 <_malloc_r>
 8004716:	b92a      	cbnz	r2, 8004724 <_realloc_r+0x24>
 8004718:	f7ff fbd6 	bl	8003ec8 <_free_r>
 800471c:	4625      	mov	r5, r4
 800471e:	4628      	mov	r0, r5
 8004720:	e8bd 81f0 	ldmia.w	sp!, {r4, r5, r6, r7, r8, pc}
 8004724:	f000 f81a 	bl	800475c <_malloc_usable_size_r>
 8004728:	4284      	cmp	r4, r0
 800472a:	4606      	mov	r6, r0
 800472c:	d802      	bhi.n	8004734 <_realloc_r+0x34>
 800472e:	ebb4 0f50 	cmp.w	r4, r0, lsr #1
 8004732:	d8f4      	bhi.n	800471e <_realloc_r+0x1e>
 8004734:	4621      	mov	r1, r4
 8004736:	4638      	mov	r0, r7
 8004738:	f7ff fc32 	bl	8003fa0 <_malloc_r>
 800473c:	4680      	mov	r8, r0
 800473e:	b908      	cbnz	r0, 8004744 <_realloc_r+0x44>
 8004740:	4645      	mov	r5, r8
 8004742:	e7ec      	b.n	800471e <_realloc_r+0x1e>
 8004744:	42b4      	cmp	r4, r6
 8004746:	4622      	mov	r2, r4
 8004748:	4629      	mov	r1, r5
 800474a:	bf28      	it	cs
 800474c:	4632      	movcs	r2, r6
 800474e:	f7ff ffc9 	bl	80046e4 <memcpy>
 8004752:	4629      	mov	r1, r5
 8004754:	4638      	mov	r0, r7
 8004756:	f7ff fbb7 	bl	8003ec8 <_free_r>
 800475a:	e7f1      	b.n	8004740 <_realloc_r+0x40>

0800475c <_malloc_usable_size_r>:
 800475c:	f851 3c04 	ldr.w	r3, [r1, #-4]
 8004760:	1f18      	subs	r0, r3, #4
 8004762:	2b00      	cmp	r3, #0
 8004764:	bfbc      	itt	lt
 8004766:	580b      	ldrlt	r3, [r1, r0]
 8004768:	18c0      	addlt	r0, r0, r3
 800476a:	4770      	bx	lr

0800476c <_init>:
 800476c:	b5f8      	push	{r3, r4, r5, r6, r7, lr}
 800476e:	bf00      	nop
 8004770:	bcf8      	pop	{r3, r4, r5, r6, r7}
 8004772:	bc08      	pop	{r3}
 8004774:	469e      	mov	lr, r3
 8004776:	4770      	bx	lr

08004778 <_fini>:
 8004778:	b5f8      	push	{r3, r4, r5, r6, r7, lr}
 800477a:	bf00      	nop
 800477c:	bcf8      	pop	{r3, r4, r5, r6, r7}
 800477e:	bc08      	pop	{r3}
 8004780:	469e      	mov	lr, r3
 8004782:	4770      	bx	lr
